Archive member included to satisfy reference by file (symbol)

..\..\libs\cpu\libplatform.a(sdadc.o)
                              Output\obj\driver\driver_sdadc.o (mic_adc_init)
..\..\libs\cpu\libplatform.a(cm.o)
                              Output\obj\project\ble_peripheral\bsp\bsp_param.o (cm_sync)
..\..\libs\cpu\libplatform.a(os_flash.o)
                              ..\..\libs\cpu\libplatform.a(cm.o) (os_spiflash_read)
..\..\libs\cpu\libplatform.a(xcfg.o)
                              Output\obj\project\ble_peripheral\bsp\bsp_sys.o (xcfg_init)
..\..\libs\cpu\libplatform.a(main.o)
                              Output\obj\driver\driver_touch_key.o (delay_5ms)
..\..\libs\cpu\libplatform.a(interrupt.o)
                              Output\obj\driver\driver_gpio.o (sys_irq_init)
..\..\libs\cpu\libplatform.a(startup.o)
                              Output\obj\project\ble_peripheral\strong_symbol.o (thread_btstack_create)
..\..\libs\cpu\libplatform.a(sys_hook.o)
                              ..\..\libs\cpu\libplatform.a(startup.o) (sys_hook_init)
..\..\libs\cpu\libplatform.a(thread_aupcm.o)
                              ..\..\libs\cpu\libplatform.a(sdadc.o) (os_mq_aupcm_post)
..\..\libs\cpu\libplatform.a(thread_driver.o)
                              ..\..\libs\cpu\libplatform.a(startup.o) (thread_driver_entry)
..\..\libs\cpu\libplatform.a(pll.o)
                              ..\..\libs\cpu\libplatform.a(main.o) (pll0_disable)
..\..\libs\cpu\libplatform.a(pmu.o)
                              Output\obj\driver\driver_lowpwr.o (pmu_get_vddcore)
..\..\libs\cpu\libplatform.a(rc.o)
                              ..\..\libs\cpu\libplatform.a(main.o) (rc_compile)
..\..\libs\cpu\libplatform.a(reset.o)
                              (_start)
..\..\libs\cpu\libplatform.a(spiflash.o)
                              ..\..\libs\cpu\libplatform.a(os_flash.o) (spi_delay)
..\..\libs\cpu\libplatform.a(debug.o)
                              ..\..\libs\cpu\libplatform.a(main.o) (debug_set)
..\..\libs\cpu\libplatform.a(fot_pack.o)
                              Output\obj\project\ble_peripheral\ble\ble_fota_service.o (ota_pack_init)
..\..\libs\cpu\libplatform.a(key.o)
                              Output\obj\project\ble_peripheral\bsp\bsp_key.o (multiple_key_init)
..\..\libs\cpu\libplatform.a(lock.o)
                              ..\..\libs\cpu\libplatform.a(main.o) (lock_init)
..\..\libs\cpu\libplatform.a(patch.o)
                              ..\..\libs\cpu\libplatform.a(main.o) (patch_init)
..\..\libs\cpu\libplatform.a(s_sys.o)
                              ..\..\libs\cpu\libplatform.a(startup.o) (dummy_func)
..\..\libs\cpu\libplatform.a(sleep.o)
                              Output\obj\driver\driver_lowpwr.o (lowpwr_sleep_sfr_save)
..\..\libs\cpu\libplatform.a(sys.o)
                              Output\obj\project\ble_peripheral\main.o (sys_rst_init)
..\..\libs\cpu\libplatform.a(sys_clk.o)
                              Output\obj\driver\driver_spi.o (sys_clk_nhz_get)
..\..\libs\cpu\libplatform.a(voltage_trim.o)
                              Output\obj\driver\driver_charge.o (charge_const_curr_trim)
..\..\libs\cpu\libplatform.a(weak_symbol.o)
                              ..\..\libs\cpu\libplatform.a(main.o) (xosc_24m_div_get)
..\..\libs\cpu\libplatform.a(sddac.o)
                              ..\..\libs\cpu\libplatform.a(thread_aupcm.o) (sddac_dma_done_do)
..\..\libs\cpu\libplatform.a(bt.o)
                              ..\..\libs\cpu\libplatform.a(startup.o) (thread_btstack_entry)
..\..\libs\cpu\libplatform.a(crc.o)
                              ..\..\libs\cpu\libplatform.a(fot_pack.o) (calc_crc32)
..\..\libs\cpu\libgcc.a(divdf3.o)
                              Output\obj\driver\driver_irrx.o (__divdf3)
..\..\libs\cpu\libgcc.a(muldf3.o)
                              Output\obj\driver\driver_irrx.o (__muldf3)
..\..\libs\cpu\libgcc.a(fixunsdfsi.o)
                              Output\obj\driver\driver_irrx.o (__fixunsdfsi)
..\..\libs\cpu\libgcc.a(floatsidf.o)
                              Output\obj\driver\driver_irtx.o (__floatsidf)
..\..\libs\cpu\libgcc.a(floatunsidf.o)
                              Output\obj\driver\driver_irrx.o (__floatunsidf)
..\..\libs\cpu\libgcc.a(_clzsi2.o)
                              ..\..\libs\cpu\libgcc.a(divdf3.o) (__clzsi2)
..\..\libs\cpu\libgcc.a(_clz.o)
                              ..\..\libs\cpu\libgcc.a(_clzsi2.o) (__clz_tab)
..\..\libs\ble\libbtstack.a(txpkt.o)
                              Output\obj\project\ble_peripheral\ble\ble_init.o (txpkt_init)
..\..\libs\ble\libbtstack.a(sm.o)
                              Output\obj\project\ble_peripheral\ble\ble_init.o (ble_sm_init)
..\..\libs\ble\libbtstack.a(le_device_db_memory.o)
                              ..\..\libs\ble\libbtstack.a(sm.o) (ble_bonding_info_max_count)
..\..\libs\ble\libbtstack.a(gatt_server.o)
                              Output\obj\project\ble_peripheral\ble\ble_fota_service.o (ble_notify_for_handle)
..\..\libs\ble\libbtstack.a(gatt_client.o)
                              ..\..\libs\ble\libbtstack.a(gatt_server.o) (att_client_request_can_send_now_event)
..\..\libs\ble\libbtstack.a(att_server.o)
                              Output\obj\project\ble_peripheral\ble\ble_fota_service.o (att_server_register_service_handler)
..\..\libs\ble\libbtstack.a(att_dispatch.o)
                              ..\..\libs\ble\libbtstack.a(gatt_client.o) (att_dispatch_register_client)
..\..\libs\ble\libbtstack.a(att_db.o)
                              ..\..\libs\ble\libbtstack.a(att_server.o) (att_set_db)
..\..\libs\ble\libbtstack.a(btstack_api.o)
                              Output\obj\project\ble_peripheral\ble\ble_init.o (bt_init)
..\..\libs\ble\libbtstack.a(bt_api.o)
                              Output\obj\project\ble_peripheral\app\func_bt.o (bt_off)
..\..\libs\ble\libbtstack.a(ble_api.o)
                              Output\obj\project\ble_peripheral\ble\ble_proc.o (ble_set_adv_interval)
..\..\libs\ble\libbtstack.a(rf.o)
                              ..\..\libs\ble\libbtstack.a(btstack_api.o) (rf_single_tone_enter)
..\..\libs\ble\libbtstack.a(ble_con.o)
                              ..\..\libs\ble\libbtstack.a(btstack_api.o) (ble_get_con_rssi)
..\..\libs\ble\libbtstack.a(bb_utils.o)
                              ..\..\libs\ble\libbtstack.a(ble_con.o) (bb_sca2ppm)
..\..\libs\ble\libbtstack.a(bb_int.o)
                              ..\..\libs\ble\libbtstack.a(bt_api.o) (bb_timer_init)
..\..\libs\ble\libbtstack.a(bb.o)
                              ..\..\libs\ble\libbtstack.a(btstack_api.o) (bb_var_init)
..\..\libs\ble\libbtstack.a(platform.o)
                              ..\..\libs\ble\libbtstack.a(bb.o) (dummy_void)
..\..\libs\ble\libbtstack.a(extern_ble.o)
                              ..\..\libs\ble\libbtstack.a(att_server.o) (att_user_read_callback)
..\..\libs\ble\libbtstack.a(extern.o)
                              ..\..\libs\ble\libbtstack.a(bb_int.o) (sys_sleep_check)
..\..\libs\ble\libbtstack.a(l2cap.o)
                              ..\..\libs\ble\libbtstack.a(btstack_api.o) (gap_request_connection_parameter_update)
..\..\libs\ble\libbtstack.a(hci_dump.o)
                              ..\..\libs\ble\libbtstack.a(btstack_api.o) (hci_dump_open)
..\..\libs\ble\libbtstack.a(hci_cmd.o)
                              ..\..\libs\ble\libbtstack.a(sm.o) (hci_le_long_term_key_negative_reply)
..\..\libs\ble\libbtstack.a(hci.o)
                              ..\..\libs\ble\libbtstack.a(sm.o) (hci_get_state)
..\..\libs\ble\libbtstack.a(btstack_util.o)
                              ..\..\libs\ble\libbtstack.a(hci.o) (bd_addr_copy)
..\..\libs\ble\libbtstack.a(btstack_run_loop.o)
                              ..\..\libs\ble\libbtstack.a(sm.o) (btstack_run_loop_set_timer_handler)
..\..\libs\ble\libbtstack.a(btstack_memory.o)
                              ..\..\libs\ble\libbtstack.a(gatt_client.o) (btstack_memory_gatt_client_get)
..\..\libs\ble\libbtstack.a(btstack_linked_list.o)
                              ..\..\libs\ble\libbtstack.a(gatt_client.o) (btstack_linked_list_add)
..\..\libs\ble\libbtstack.a(ad_parser.o)
                              ..\..\libs\ble\libbtstack.a(btstack_api.o) (ad_param)
..\..\libs\ble\libbtstack.a(hci_transport_hcic.o)
                              ..\..\libs\ble\libbtstack.a(hci.o) (hcic_rx_flush)
..\..\libs\ble\libbtstack.a(hci_transport_h3_controller.o)
                              ..\..\libs\ble\libbtstack.a(btstack_run_loop.o) (hci_is_sleep)
..\..\libs\ble\libbtstack.a(hci_transport_dummy.o)
                              ..\..\libs\ble\libbtstack.a(btstack_api.o) (hci_iodm_init)
..\..\libs\ble\libbtstack.a(btstack_main.o)
                              ..\..\libs\ble\libbtstack.a(ble_api.o) (btstack_ble_set_init_callback)
..\..\libs\ble\libbtstack.a(btstack_hal.o)
                              ..\..\libs\ble\libbtstack.a(btstack_run_loop.o) (hal_tick_init)
..\..\libs\ble\libbtstack.a(nanos.o)
                              ..\..\libs\ble\libbtstack.a(bb_int.o) (nanos_event_set)
..\..\libs\ble\libbtstack.a(bb_sche.o)
                              ..\..\libs\ble\libbtstack.a(bb.o) (bb_sche_init)
..\..\libs\ble\libbtstack.a(patch.o)
                              ..\..\libs\ble\libbtstack.a(bb.o) (bb_patch_dummy)
..\..\libs\ble\libbtstack.a(bb_dbg.o)
                              ..\..\libs\ble\libbtstack.a(bb.o) (bb_dbg_init)
..\..\libs\ble\libbtstack.a(bb_clk.o)
                              ..\..\libs\ble\libbtstack.a(bb.o) (bb_clk_init)
..\..\libs\ble\libbtstack.a(aes.o)
                              ..\..\libs\ble\libbtstack.a(bb.o) (aes_init)
..\..\libs\ble\libbtstack.a(extern.o)
                              ..\..\libs\ble\libbtstack.a(bb_int.o) (ble_sleep_duration_max_get)
..\..\libs\ble\libbtstack.a(vs.o)
                              ..\..\libs\ble\libbtstack.a(bb.o) (vs_init)
..\..\libs\ble\libbtstack.a(rf_xbox.o)
                              ..\..\libs\ble\libbtstack.a(rf.o) (rfphy_deep_sleep)
..\..\libs\ble\libbtstack.a(complex.o)
                              ..\..\libs\ble\libbtstack.a(rf_xbox.o) (complexSubtract)
..\..\libs\ble\libbtstack.a(ble_hook.o)
                              ..\..\libs\ble\libbtstack.a(bb.o) (ble_isr_hook)
..\..\libs\ble\libbtstack.a(hct_tl.o)
                              ..\..\libs\ble\libbtstack.a(hci_transport_hcic.o) (hci_tx_done)
..\..\libs\ble\libbtstack.a(hct_msg.o)
                              ..\..\libs\ble\libbtstack.a(hct_tl.o) (hci_look_for_cmd_desc)
..\..\libs\ble\libbtstack.a(hct.o)
                              ..\..\libs\ble\libbtstack.a(bb.o) (hct_init)
..\..\libs\ble\libbtstack.a(mgr_hci.o)
                              ..\..\libs\ble\libbtstack.a(hci.o) (hci_le_rd_buff_size)
..\..\libs\ble\libbtstack.a(mgr.o)
                              ..\..\libs\ble\libbtstack.a(mgr_hci.o) (mgr_cmd_cmp_send)
..\..\libs\ble\libbtstack.a(ll_adv.o)
                              ..\..\libs\ble\libbtstack.a(mgr_hci.o) (hci_le_set_adv_param_cmd_func)
..\..\libs\ble\libbtstack.a(ll_tbox_freq_cal.o)
                              ..\..\libs\ble\libbtstack.a(patch.o) (ll_tbox_freq_cal_patch)
..\..\libs\ble\libbtstack.a(ll_con_upd.o)
                              ..\..\libs\ble\libbtstack.a(ll_adv.o) (ll_con_move_cb)
..\..\libs\ble\libbtstack.a(ll_cntl.o)
                              ..\..\libs\ble\libbtstack.a(ll_tbox_freq_cal.o) (ll_cntl_send)
..\..\libs\ble\libbtstack.a(ll_clk_acc.o)
                              ..\..\libs\ble\libbtstack.a(ll_cntl.o) (ll_clk_acc_req_func)
..\..\libs\ble\libbtstack.a(ll_chmap_upd.o)
                              ..\..\libs\ble\libbtstack.a(ll_cntl.o) (ll_channel_map_ind_func)
..\..\libs\ble\libbtstack.a(ll.o)
                              ..\..\libs\ble\libbtstack.a(ll_adv.o) (ll_start)
..\..\libs\ble\libbtstack.a(ble_hal.o)
                              ..\..\libs\ble\libbtstack.a(ble_con.o) (ble_channel_assess)
..\..\libs\ble\libbtstack.a(ble_adv.o)
                              ..\..\libs\ble\libbtstack.a(ll_adv.o) (ble_adv_start)
..\..\libs\ble\libbtstack.a(ble_buf.o)
                              ..\..\libs\ble\libbtstack.a(hct_tl.o) (ble_buf_rx_free)
..\..\libs\ble\libbtstack.a(ble.o)
                              ..\..\libs\ble\libbtstack.a(bb.o) (ble_var_init)
..\..\libs\ble\libbtstack.a(bb_sleep.o)
                              ..\..\libs\ble\libbtstack.a(bb_int.o) (bb_sleep_suspend)
..\..\libs\ble\libbtstack.a(periph.o)
                              ..\..\libs\ble\libbtstack.a(btstack_hal.o) (bt_uart_init)
..\..\libs\ble\libbtstack.a(l2cap_signaling.o)
                              ..\..\libs\ble\libbtstack.a(l2cap.o) (l2cap_create_signaling_le)
..\..\libs\ble\libbtstack.a(btstack_memory_pool.o)
                              ..\..\libs\ble\libbtstack.a(btstack_memory.o) (btstack_memory_pool_get)
..\..\libs\ble\libbtstack.a(patch_asm.o)
                              ..\..\libs\ble\libbtstack.a(patch.o) (bb_v1_patch0)
..\..\libs\ble\libbtstack.a(platform.o)
                              ..\..\libs\ble\libbtstack.a(ll_cntl.o) (bb_ll_tx_cb)
..\..\libs\ble\libbtstack.a(vs_proc.o)
                              ..\..\libs\ble\libbtstack.a(vs.o) (vs_env)
..\..\libs\ble\libbtstack.a(vs_fcc.o)
                              ..\..\libs\ble\libbtstack.a(vs_proc.o) (vs_fcc_test_cmd)
..\..\libs\ble\libbtstack.a(adv_hook.o)
                              ..\..\libs\ble\libbtstack.a(ll_adv.o) (ble_adv_end_ind_hook)
..\..\libs\ble\libbtstack.a(mgr_test.o)
                              ..\..\libs\ble\libbtstack.a(mgr_hci.o) (hci_le_rx_test_v1_cmd_func)
..\..\libs\ble\libbtstack.a(mgr_proc.o)
                              ..\..\libs\ble\libbtstack.a(mgr.o) (mgr_msg_env)
..\..\libs\ble\libbtstack.a(ll_version.o)
                              ..\..\libs\ble\libbtstack.a(ll_cntl.o) (ll_version_ind_func)
..\..\libs\ble\libbtstack.a(ll_tbox_prod_test.o)
                              ..\..\libs\ble\libbtstack.a(ll_cntl.o) (ll_tbox_prod_test_req_func)
..\..\libs\ble\libbtstack.a(ll_tbox_feature.o)
                              ..\..\libs\ble\libbtstack.a(ll_cntl.o) (ll_tbox_feat_req_func)
..\..\libs\ble\libbtstack.a(ll_proc.o)
                              ..\..\libs\ble\libbtstack.a(ll_con_upd.o) (ll_cmd_stat_send)
..\..\libs\ble\libbtstack.a(ll_ping.o)
                              ..\..\libs\ble\libbtstack.a(ll_cntl.o) (ll_ping_req_func)
..\..\libs\ble\libbtstack.a(ll_phy_upd.o)
                              ..\..\libs\ble\libbtstack.a(ll_cntl.o) (ll_phy_req_func)
..\..\libs\ble\libbtstack.a(ll_length.o)
                              ..\..\libs\ble\libbtstack.a(ll_cntl.o) (ll_length_req_func)
..\..\libs\ble\libbtstack.a(ll_feature.o)
                              ..\..\libs\ble\libbtstack.a(ll_cntl.o) (ll_feature_req_func)
..\..\libs\ble\libbtstack.a(ll_encrypt.o)
                              ..\..\libs\ble\libbtstack.a(ll_cntl.o) (ll_pause_enc_req_func)
..\..\libs\ble\libbtstack.a(ll_disconnect.o)
                              ..\..\libs\ble\libbtstack.a(ll_proc.o) (ble_disc_ind_func)
..\..\libs\ble\libbtstack.a(ble_test.o)
                              ..\..\libs\ble\libbtstack.a(vs_fcc.o) (ble_test_start)
..\..\libs\ble\libbtstack.a(ble_sync.o)
                              ..\..\libs\ble\libbtstack.a(ble.o) (ble_get_sync_var)
..\..\libs\ble\libbtstack.a(ble_scan.o)
                              ..\..\libs\ble\libbtstack.a(ble.o) (ble_get_scan_var)
..\..\libs\ble\libbtstack.a(ble_init.o)
                              ..\..\libs\ble\libbtstack.a(ble.o) (ble_get_init_var)

Allocating common symbols
Common symbol       size              file

tmr5ms_cnt          0x2               Output\obj\project\ble_peripheral\bsp\bsp_sys.o
g_variance          0x10              Output\obj\driver\driver_touch_key.o
fot_var             0x21              Output\obj\project\ble_peripheral\ble\ble_fota_service.o
ble_user_cb         0x64              Output\obj\project\ble_peripheral\ble\ble_user_service.o
cfg_bt_rf_def_txpwr
                    0x1               Output\obj\project\ble_peripheral\strong_symbol.o
sfr_user_backup     0x20              Output\obj\project\ble_peripheral\app\func_lowpwr.o
xcfg_cb             0x34              Output\obj\project\ble_peripheral\bsp\bsp_sys.o
g_avg               0x10              Output\obj\driver\driver_touch_key.o

Discarded input sections

 .text          0x0000000000000000        0x0 Output\obj\driver\driver_adv_timer.o
 .data          0x0000000000000000        0x0 Output\obj\driver\driver_adv_timer.o
 .bss           0x0000000000000000        0x0 Output\obj\driver\driver_adv_timer.o
 .text.tim_timebaseinit
                0x0000000000000000       0x50 Output\obj\driver\driver_adv_timer.o
 .text.tim_oc1init
                0x0000000000000000       0x78 Output\obj\driver\driver_adv_timer.o
 .text.tim_oc2init
                0x0000000000000000       0x9c Output\obj\driver\driver_adv_timer.o
 .text.tim_oc3init
                0x0000000000000000       0x96 Output\obj\driver\driver_adv_timer.o
 .text.tim_oc4init
                0x0000000000000000       0x74 Output\obj\driver\driver_adv_timer.o
 .text.tim_bdtrconfig
                0x0000000000000000       0x30 Output\obj\driver\driver_adv_timer.o
 .text.tim_timebasestructinit
                0x0000000000000000       0x18 Output\obj\driver\driver_adv_timer.o
 .text.tim_ocstructinit
                0x0000000000000000       0x22 Output\obj\driver\driver_adv_timer.o
 .text.tim_bdtrstructinit
                0x0000000000000000       0x1e Output\obj\driver\driver_adv_timer.o
 .com_text.tim.cmd
                0x0000000000000000       0x14 Output\obj\driver\driver_adv_timer.o
 .com_text.tim.ctrlpwmoutputs
                0x0000000000000000       0x12 Output\obj\driver\driver_adv_timer.o
 .text.tim_itconfig
                0x0000000000000000       0x16 Output\obj\driver\driver_adv_timer.o
 .com_periph.tim.generateevent
                0x0000000000000000        0x4 Output\obj\driver\driver_adv_timer.o
 .com_periph.tim.internalclock
                0x0000000000000000        0xc Output\obj\driver\driver_adv_timer.o
 .com_periph.tim.itrxexternalclock
                0x0000000000000000       0x18 Output\obj\driver\driver_adv_timer.o
 .com_periph.tim.tixexternalclock
                0x0000000000000000       0xb0 Output\obj\driver\driver_adv_timer.o
 .com_periph.tim.etrconfig
                0x0000000000000000       0x16 Output\obj\driver\driver_adv_timer.o
 .com_periph.etrclockmode1
                0x0000000000000000       0x2a Output\obj\driver\driver_adv_timer.o
 .com_periph.tim.etrclockmode2
                0x0000000000000000       0x22 Output\obj\driver\driver_adv_timer.o
 .com_periph.tim.prescaler
                0x0000000000000000        0x6 Output\obj\driver\driver_adv_timer.o
 .com_periph.tim.countermode
                0x0000000000000000       0x10 Output\obj\driver\driver_adv_timer.o
 .com_periph.tim.selectinputtrigger
                0x0000000000000000       0x10 Output\obj\driver\driver_adv_timer.o
 .text.tim_encoderinterfaceconfig
                0x0000000000000000       0x3a Output\obj\driver\driver_adv_timer.o
 .com_periph.tim.forcedoc1
                0x0000000000000000       0x10 Output\obj\driver\driver_adv_timer.o
 .com_periph.tim.forcedoc2
                0x0000000000000000       0x18 Output\obj\driver\driver_adv_timer.o
 .com_periph.tim.forcedoc3
                0x0000000000000000       0x10 Output\obj\driver\driver_adv_timer.o
 .com_periph.tim.forcedoc4
                0x0000000000000000       0x18 Output\obj\driver\driver_adv_timer.o
 .com_periph.tim.arrpreload
                0x0000000000000000       0x16 Output\obj\driver\driver_adv_timer.o
 .com_periph.tim.selectcom
                0x0000000000000000       0x14 Output\obj\driver\driver_adv_timer.o
 .com_periph.tim.ccpreloadcontrol
                0x0000000000000000       0x14 Output\obj\driver\driver_adv_timer.o
 .com_periph.tim.oc1preload
                0x0000000000000000        0xe Output\obj\driver\driver_adv_timer.o
 .com_periph.tim.oc2preload
                0x0000000000000000       0x1a Output\obj\driver\driver_adv_timer.o
 .com_periph.tim.oc3preload
                0x0000000000000000        0xe Output\obj\driver\driver_adv_timer.o
 .com_periph.tim.oc4preload
                0x0000000000000000       0x1a Output\obj\driver\driver_adv_timer.o
 .com_periph.tim.clearoc1
                0x0000000000000000       0x10 Output\obj\driver\driver_adv_timer.o
 .com_periph.tim.clearoc2
                0x0000000000000000       0x12 Output\obj\driver\driver_adv_timer.o
 .com_periph.tim.clearoc3
                0x0000000000000000       0x10 Output\obj\driver\driver_adv_timer.o
 .com_periph.tim.clearoc4
                0x0000000000000000       0x12 Output\obj\driver\driver_adv_timer.o
 .com_periph.tim.oc1polarity
                0x0000000000000000        0xe Output\obj\driver\driver_adv_timer.o
 .com_periph.oc1npolarity
                0x0000000000000000        0xe Output\obj\driver\driver_adv_timer.o
 .com_periph.oc2polarity
                0x0000000000000000       0x16 Output\obj\driver\driver_adv_timer.o
 .com_periph.oc2npolarity
                0x0000000000000000       0x16 Output\obj\driver\driver_adv_timer.o
 .com_periph.oc3polarity
                0x0000000000000000       0x16 Output\obj\driver\driver_adv_timer.o
 .com_periph.oc3npolarity
                0x0000000000000000       0x1a Output\obj\driver\driver_adv_timer.o
 .com_periph.oc4polarity
                0x0000000000000000       0x18 Output\obj\driver\driver_adv_timer.o
 .com_periph.ccxcmd
                0x0000000000000000       0x24 Output\obj\driver\driver_adv_timer.o
 .com_periph.ccxncmd
                0x0000000000000000       0x24 Output\obj\driver\driver_adv_timer.o
 .com_periph.selectocxm
                0x0000000000000000       0x58 Output\obj\driver\driver_adv_timer.o
 .com_periph.tim.updatedisable
                0x0000000000000000       0x14 Output\obj\driver\driver_adv_timer.o
 .com_periph.tim.updaterequest
                0x0000000000000000       0x14 Output\obj\driver\driver_adv_timer.o
 .com_periph.selectonepulsemode
                0x0000000000000000       0x12 Output\obj\driver\driver_adv_timer.o
 .com_periph.tim.selectoutputtrigger
                0x0000000000000000       0x14 Output\obj\driver\driver_adv_timer.o
 .com_periph.tim.selectslavemode
                0x0000000000000000       0x12 Output\obj\driver\driver_adv_timer.o
 .com_periph.tim.setcounter
                0x0000000000000000        0x4 Output\obj\driver\driver_adv_timer.o
 .com_periph.tim.setautoreload
                0x0000000000000000        0x4 Output\obj\driver\driver_adv_timer.o
 .com_periph.setcompare1
                0x0000000000000000        0x4 Output\obj\driver\driver_adv_timer.o
 .com_periph.setcompare2
                0x0000000000000000        0x4 Output\obj\driver\driver_adv_timer.o
 .com_periph.setcompare3
                0x0000000000000000        0x4 Output\obj\driver\driver_adv_timer.o
 .com_periph.setcompare4
                0x0000000000000000        0x4 Output\obj\driver\driver_adv_timer.o
 .com_periph.setic1prescaler
                0x0000000000000000       0x12 Output\obj\driver\driver_adv_timer.o
 .com_periph.setic2prescaler
                0x0000000000000000       0x1a Output\obj\driver\driver_adv_timer.o
 .com_periph.setic3prescaler
                0x0000000000000000       0x12 Output\obj\driver\driver_adv_timer.o
 .com_periph.setic4prescaler
                0x0000000000000000       0x1a Output\obj\driver\driver_adv_timer.o
 .com_periph.tim.setclockdivision
                0x0000000000000000       0x14 Output\obj\driver\driver_adv_timer.o
 .com_periph.tim.getcounter
                0x0000000000000000        0x8 Output\obj\driver\driver_adv_timer.o
 .com_periph.tim.getprescaler
                0x0000000000000000        0x8 Output\obj\driver\driver_adv_timer.o
 .com_periph.getflagstatus
                0x0000000000000000        0xa Output\obj\driver\driver_adv_timer.o
 .com_periph.clearflag
                0x0000000000000000        0x4 Output\obj\driver\driver_adv_timer.o
 .com_periph.getitstatus
                0x0000000000000000       0x14 Output\obj\driver\driver_adv_timer.o
 .com_periph.clearitpendingbit
                0x0000000000000000        0x4 Output\obj\driver\driver_adv_timer.o
 .com_periph.tim.trgosaradc
                0x0000000000000000       0x12 Output\obj\driver\driver_adv_timer.o
 .comment       0x0000000000000000       0x12 Output\obj\driver\driver_adv_timer.o
 .text          0x0000000000000000        0x0 Output\obj\driver\driver_charge.o
 .data          0x0000000000000000        0x0 Output\obj\driver\driver_charge.o
 .bss           0x0000000000000000        0x0 Output\obj\driver\driver_charge.o
 .text.charge_deinit
                0x0000000000000000       0x24 Output\obj\driver\driver_charge.o
 .text.charge_change_mode
                0x0000000000000000       0x10 Output\obj\driver\driver_charge.o
 .text.charge_cutoff_cur_condition
                0x0000000000000000        0xa Output\obj\driver\driver_charge.o
 .text.charge_cutoff_vol_condition
                0x0000000000000000        0xa Output\obj\driver\driver_charge.o
 .text.charge_trickle_vol_condition
                0x0000000000000000        0xa Output\obj\driver\driver_charge.o
 .text.charge_cutoff_vol_to_stop_time_set
                0x0000000000000000        0xa Output\obj\driver\driver_charge.o
 .text.charge_pwrup_charge_cur_sel
                0x0000000000000000       0x12 Output\obj\driver\driver_charge.o
 .text.charge_cutoff_vol_triming
                0x0000000000000000       0x2e Output\obj\driver\driver_charge.o
 .text          0x0000000000000000        0x0 Output\obj\driver\driver_clk.o
 .data          0x0000000000000000        0x0 Output\obj\driver\driver_clk.o
 .bss           0x0000000000000000        0x0 Output\obj\driver\driver_clk.o
 .text.clk_gate1_cmd
                0x0000000000000000       0x16 Output\obj\driver\driver_clk.o
 .text.clk_gate2_cmd
                0x0000000000000000       0x16 Output\obj\driver\driver_clk.o
 .text.clk_clkout_set
                0x0000000000000000       0x4e Output\obj\driver\driver_clk.o
 .text.clk_clk32k_rtc_set
                0x0000000000000000       0x28 Output\obj\driver\driver_clk.o
 .text.clk_clk32k_rtc_get
                0x0000000000000000       0x46 Output\obj\driver\driver_clk.o
 .text.clk_hsut0_clk_set
                0x0000000000000000       0x4a Output\obj\driver\driver_clk.o
 .text.clk_saradc_clk_set
                0x0000000000000000       0x18 Output\obj\driver\driver_clk.o
 .text.clk_udet_clk_set
                0x0000000000000000       0x18 Output\obj\driver\driver_clk.o
 .text.clk_hsut0_clk_get
                0x0000000000000000       0x6c Output\obj\driver\driver_clk.o
 .text.clk_tmr_inc_set
                0x0000000000000000       0x18 Output\obj\driver\driver_clk.o
 .text.clk_tmr_inc_get
                0x0000000000000000       0x60 Output\obj\driver\driver_clk.o
 .text.clk_uart_inc_set
                0x0000000000000000       0x16 Output\obj\driver\driver_clk.o
 .text.clk_clk2m_ks_set
                0x0000000000000000       0x18 Output\obj\driver\driver_clk.o
 .text.clk_clk2m_ks_get
                0x0000000000000000       0x3a Output\obj\driver\driver_clk.o
 .text.clk_sdadda_clk_set
                0x0000000000000000       0x40 Output\obj\driver\driver_clk.o
 .text.clk_sdadda_clk_get
                0x0000000000000000       0x54 Output\obj\driver\driver_clk.o
 .text.clk_ledc_clk_set
                0x0000000000000000       0x18 Output\obj\driver\driver_clk.o
 .text.clk_ledc_clk_get
                0x0000000000000000       0x24 Output\obj\driver\driver_clk.o
 .text.clk_touch_key_clk_set
                0x0000000000000000       0x54 Output\obj\driver\driver_clk.o
 .text.clk_touch_key_clk_get
                0x0000000000000000       0x34 Output\obj\driver\driver_clk.o
 .text.clk_ttmr_inc_set
                0x0000000000000000       0x16 Output\obj\driver\driver_clk.o
 .text.clk_ttmr_inc_get
                0x0000000000000000       0x60 Output\obj\driver\driver_clk.o
 .text.clk_qdec_set
                0x0000000000000000       0x16 Output\obj\driver\driver_clk.o
 .text          0x0000000000000000        0x0 Output\obj\driver\driver_gpio.o
 .data          0x0000000000000000        0x0 Output\obj\driver\driver_gpio.o
 .bss           0x0000000000000000        0x0 Output\obj\driver\driver_gpio.o
 .text.gpio_deinit
                0x0000000000000000       0x1c Output\obj\driver\driver_gpio.o
 .com_periph.gpio.set
                0x0000000000000000        0x4 Output\obj\driver\driver_gpio.o
 .com_periph.gpio.reset
                0x0000000000000000        0x4 Output\obj\driver\driver_gpio.o
 .com_periph.gpio.write
                0x0000000000000000        0x4 Output\obj\driver\driver_gpio.o
 .com_periph.gpio.toggle
                0x0000000000000000        0x8 Output\obj\driver\driver_gpio.o
 .com_periph.gpio.read_data
                0x0000000000000000        0x8 Output\obj\driver\driver_gpio.o
 .com_periph.gpio.read_bit
                0x0000000000000000        0xa Output\obj\driver\driver_gpio.o
 .text.gpio_func_mapping_clear
                0x0000000000000000       0x84 Output\obj\driver\driver_gpio.o
 .com_periph.gpio.pending_clr
                0x0000000000000000        0xc Output\obj\driver\driver_gpio.o
 .com_periph.gpio.pending_is
                0x0000000000000000       0x12 Output\obj\driver\driver_gpio.o
 .text.gpio_edge_pic_disable
                0x0000000000000000       0x1c Output\obj\driver\driver_gpio.o
 .text.gpio_reset_init
                0x0000000000000000       0x84 Output\obj\driver\driver_gpio.o
 .text.gpio_reset_10s_sel
                0x0000000000000000       0x3a Output\obj\driver\driver_gpio.o
 .text          0x0000000000000000        0x0 Output\obj\driver\driver_hsuart.o
 .data          0x0000000000000000        0x0 Output\obj\driver\driver_hsuart.o
 .bss           0x0000000000000000        0x0 Output\obj\driver\driver_hsuart.o
 .text.hsuart_init
                0x0000000000000000       0x92 Output\obj\driver\driver_hsuart.o
 .text.hsuart_deinit
                0x0000000000000000       0x14 Output\obj\driver\driver_hsuart.o
 .text.hsuart_cmd
                0x0000000000000000       0x16 Output\obj\driver\driver_hsuart.o
 .com_periph.hsuart.send
                0x0000000000000000       0x1a Output\obj\driver\driver_hsuart.o
 .com_periph.hsuart.recv
                0x0000000000000000        0xa Output\obj\driver\driver_hsuart.o
 .com_periph.hsuart.receive_data
                0x0000000000000000       0x44 Output\obj\driver\driver_hsuart.o
 .com_periph.hsuart.fifo_get
                0x0000000000000000        0xa Output\obj\driver\driver_hsuart.o
 .text.hsuart_clear_fifo_counter
                0x0000000000000000        0xe Output\obj\driver\driver_hsuart.o
 .text.hsuart_baud_config
                0x0000000000000000       0x2c Output\obj\driver\driver_hsuart.o
 .text.hsuart_pic_config
                0x0000000000000000       0x6c Output\obj\driver\driver_hsuart.o
 .com_periph.hsuart.get_flag
                0x0000000000000000       0x32 Output\obj\driver\driver_hsuart.o
 .com_periph.hsuart.clear
                0x0000000000000000       0x32 Output\obj\driver\driver_hsuart.o
 .text.hsuart_rx_idle_config
                0x0000000000000000       0x1e Output\obj\driver\driver_hsuart.o
 .com_periph.hsuart.dma
                0x0000000000000000       0x20 Output\obj\driver\driver_hsuart.o
 .com_periph.hsuart.stop
                0x0000000000000000       0x18 Output\obj\driver\driver_hsuart.o
 .comment       0x0000000000000000       0x12 Output\obj\driver\driver_hsuart.o
 .text          0x0000000000000000        0x0 Output\obj\driver\driver_iic.o
 .data          0x0000000000000000        0x0 Output\obj\driver\driver_iic.o
 .bss           0x0000000000000000        0x0 Output\obj\driver\driver_iic.o
 .text.iic_transmit_config
                0x0000000000000000       0xc6 Output\obj\driver\driver_iic.o
 .text.iic_init
                0x0000000000000000       0x80 Output\obj\driver\driver_iic.o
 .text.iic_deinit
                0x0000000000000000       0x10 Output\obj\driver\driver_iic.o
 .text.iic_cmd  0x0000000000000000       0x14 Output\obj\driver\driver_iic.o
 .text.iic_send_data
                0x0000000000000000       0x6a Output\obj\driver\driver_iic.o
 .com_periph.iic.dma
                0x0000000000000000      0x10e Output\obj\driver\driver_iic.o
 .text.iic_receive_data
                0x0000000000000000       0x6c Output\obj\driver\driver_iic.o
 .text.iic_pic_config
                0x0000000000000000       0x3e Output\obj\driver\driver_iic.o
 .com_periph.iic.get
                0x0000000000000000       0x20 Output\obj\driver\driver_iic.o
 .com_periph.iic.clear
                0x0000000000000000        0xe Output\obj\driver\driver_iic.o
 .com_periph.iic.nack_en
                0x0000000000000000       0x16 Output\obj\driver\driver_iic.o
 .com_periph.iic.smp_sel
                0x0000000000000000       0x16 Output\obj\driver\driver_iic.o
 .text.iic_slave_addr_set
                0x0000000000000000        0x6 Output\obj\driver\driver_iic.o
 .com_periph.iic.slave_status_get
                0x0000000000000000        0x6 Output\obj\driver\driver_iic.o
 .com_periph.iic.slave_data_len_get
                0x0000000000000000        0xa Output\obj\driver\driver_iic.o
 .com_periph.iic.slave_data_get
                0x0000000000000000        0x6 Output\obj\driver\driver_iic.o
 .com_periph.iic.slave_data_send
                0x0000000000000000       0x10 Output\obj\driver\driver_iic.o
 .com_periph.iic.clear_done_flag
                0x0000000000000000        0xe Output\obj\driver\driver_iic.o
 .com_periph.iic.clear_slave_tx_status
                0x0000000000000000        0xe Output\obj\driver\driver_iic.o
 .com_periph.iic.clear_slave_rx_status
                0x0000000000000000       0x10 Output\obj\driver\driver_iic.o
 .com_periph.iic.slave_is_rx_status
                0x0000000000000000        0x6 Output\obj\driver\driver_iic.o
 .com_periph.iic.slave_is_tx_status
                0x0000000000000000        0x6 Output\obj\driver\driver_iic.o
 .com_periph.iic.slave_rx_stop_sign
                0x0000000000000000        0xa Output\obj\driver\driver_iic.o
 .comment       0x0000000000000000       0x12 Output\obj\driver\driver_iic.o
 .text          0x0000000000000000        0x0 Output\obj\driver\driver_irrx.o
 .data          0x0000000000000000        0x0 Output\obj\driver\driver_irrx.o
 .bss           0x0000000000000000        0x0 Output\obj\driver\driver_irrx.o
 .text.irrx_init
                0x0000000000000000       0x8a Output\obj\driver\driver_irrx.o
 .text.irrx_decode_config
                0x0000000000000000      0x1a0 Output\obj\driver\driver_irrx.o
 .text.irrx_base_init
                0x0000000000000000       0x28 Output\obj\driver\driver_irrx.o
 .text.irrx_wake_init
                0x0000000000000000       0x38 Output\obj\driver\driver_irrx.o
 .text.irrx_decode_init
                0x0000000000000000        0x8 Output\obj\driver\driver_irrx.o
 .rodata.irrx_decode_config.cst8
                0x0000000000000000       0x48 Output\obj\driver\driver_irrx.o
 .rodata.timing_freq
                0x0000000000000000       0x10 Output\obj\driver\driver_irrx.o
 .comment       0x0000000000000000       0x12 Output\obj\driver\driver_irrx.o
 .text          0x0000000000000000        0x0 Output\obj\driver\driver_irtx.o
 .data          0x0000000000000000        0x0 Output\obj\driver\driver_irtx.o
 .bss           0x0000000000000000        0x0 Output\obj\driver\driver_irtx.o
 .text.ir_clk_init
                0x0000000000000000       0xce Output\obj\driver\driver_irtx.o
 .text.irtx_clk_init
                0x0000000000000000       0x30 Output\obj\driver\driver_irtx.o
 .text.irtx_timing_set
                0x0000000000000000      0x212 Output\obj\driver\driver_irtx.o
 .text.irtx_timing_init
                0x0000000000000000       0x7e Output\obj\driver\driver_irtx.o
 .text.irtx_capture_edge
                0x0000000000000000       0x18 Output\obj\driver\driver_irtx.o
 .text.irtx_carrier_init
                0x0000000000000000       0x66 Output\obj\driver\driver_irtx.o
 .text.irtx_dma_init
                0x0000000000000000       0x40 Output\obj\driver\driver_irtx.o
 .text.irtx_data_set
                0x0000000000000000        0x4 Output\obj\driver\driver_irtx.o
 .text.irtx_init
                0x0000000000000000       0x3c Output\obj\driver\driver_irtx.o
 .text.irtx_set_repeat
                0x0000000000000000       0x20 Output\obj\driver\driver_irtx.o
 .text.irfilter_set
                0x0000000000000000       0x34 Output\obj\driver\driver_irtx.o
 .text.irtx_kick_wait
                0x0000000000000000       0x26 Output\obj\driver\driver_irtx.o
 .text.irtx_capture_dma_init
                0x0000000000000000       0x22 Output\obj\driver\driver_irtx.o
 .text.irtx_capture_dma_kick
                0x0000000000000000       0x10 Output\obj\driver\driver_irtx.o
 .text.irtx_learn_dma_init
                0x0000000000000000        0x8 Output\obj\driver\driver_irtx.o
 .text.irtx_learn_kick
                0x0000000000000000       0x10 Output\obj\driver\driver_irtx.o
 .text.irtx_base_init
                0x0000000000000000       0x6e Output\obj\driver\driver_irtx.o
 .text.irtx_repeat_send
                0x0000000000000000       0x1c Output\obj\driver\driver_irtx.o
 .text.irtx_send
                0x0000000000000000        0x8 Output\obj\driver\driver_irtx.o
 .text.irtx_capture_init
                0x0000000000000000       0x32 Output\obj\driver\driver_irtx.o
 .text.irtx_capture_buf_init
                0x0000000000000000       0x24 Output\obj\driver\driver_irtx.o
 .text.irtx_learn_init
                0x0000000000000000       0x52 Output\obj\driver\driver_irtx.o
 .text.irtx_learn_buf_init
                0x0000000000000000        0xe Output\obj\driver\driver_irtx.o
 .text.irtx_pic_config
                0x0000000000000000       0x4a Output\obj\driver\driver_irtx.o
 .rodata.Nec    0x0000000000000000       0x24 Output\obj\driver\driver_irtx.o
 .rodata.Rc5    0x0000000000000000       0x24 Output\obj\driver\driver_irtx.o
 .rodata.Rc6    0x0000000000000000       0x24 Output\obj\driver\driver_irtx.o
 .rodata.Tc9012
                0x0000000000000000       0x24 Output\obj\driver\driver_irtx.o
 .rodata.irtx_timing_set.cst8
                0x0000000000000000        0x8 Output\obj\driver\driver_irtx.o
 .rodata.timing_freq
                0x0000000000000000       0x10 Output\obj\driver\driver_irtx.o
 .comment       0x0000000000000000       0x12 Output\obj\driver\driver_irtx.o
 .text          0x0000000000000000        0x0 Output\obj\driver\driver_keyscan.o
 .data          0x0000000000000000        0x0 Output\obj\driver\driver_keyscan.o
 .bss           0x0000000000000000        0x0 Output\obj\driver\driver_keyscan.o
 .text.keyscan_init
                0x0000000000000000       0xc8 Output\obj\driver\driver_keyscan.o
 .text.keyscan_deinit
                0x0000000000000000        0xc Output\obj\driver\driver_keyscan.o
 .com_periph.keyscan.en_ctrl
                0x0000000000000000       0x16 Output\obj\driver\driver_keyscan.o
 .text.keyscan_pic_config
                0x0000000000000000       0x3a Output\obj\driver\driver_keyscan.o
 .com_periph.keyscan.flag
                0x0000000000000000       0x44 Output\obj\driver\driver_keyscan.o
 .com_periph.keyscan.query
                0x0000000000000000       0xca Output\obj\driver\driver_keyscan.o
 .com_periph.keyscan.lowpwr_mode
                0x0000000000000000        0xc Output\obj\driver\driver_keyscan.o
 .comment       0x0000000000000000       0x12 Output\obj\driver\driver_keyscan.o
 .text          0x0000000000000000        0x0 Output\obj\driver\driver_ledc.o
 .data          0x0000000000000000        0x0 Output\obj\driver\driver_ledc.o
 .bss           0x0000000000000000        0x0 Output\obj\driver\driver_ledc.o
 .text.ledc_init
                0x0000000000000000       0x3e Output\obj\driver\driver_ledc.o
 .text.ledc_timing_init
                0x0000000000000000       0x5c Output\obj\driver\driver_ledc.o
 .text.ledc_deinit
                0x0000000000000000       0x20 Output\obj\driver\driver_ledc.o
 .com_text.ledc.cmd
                0x0000000000000000       0x16 Output\obj\driver\driver_ledc.o
 .com_periph.ledc.transport
                0x0000000000000000       0x20 Output\obj\driver\driver_ledc.o
 .text.ledc_pic_config
                0x0000000000000000       0x44 Output\obj\driver\driver_ledc.o
 .com_periph.ledc.flag
                0x0000000000000000       0x42 Output\obj\driver\driver_ledc.o
 .text.ledc_set_frame_length
                0x0000000000000000        0xe Output\obj\driver\driver_ledc.o
 .text.ledc_set_loop_number
                0x0000000000000000        0xc Output\obj\driver\driver_ledc.o
 .text.ledc_get_frame_length
                0x0000000000000000       0x10 Output\obj\driver\driver_ledc.o
 .text.ledc_get_loop_number
                0x0000000000000000        0xc Output\obj\driver\driver_ledc.o
 .comment       0x0000000000000000       0x12 Output\obj\driver\driver_ledc.o
 .text          0x0000000000000000        0x0 Output\obj\driver\driver_lowpwr.o
 .data          0x0000000000000000        0x0 Output\obj\driver\driver_lowpwr.o
 .bss           0x0000000000000000        0x0 Output\obj\driver\driver_lowpwr.o
 .com_sleep.lv2_get_wksrc
                0x0000000000000000        0xa Output\obj\driver\driver_lowpwr.o
 .com_sleep.lv2_clr_wksrc
                0x0000000000000000        0xa Output\obj\driver\driver_lowpwr.o
 .text.lowpwr_wakeup_config
                0x0000000000000000       0x1a Output\obj\driver\driver_lowpwr.o
 .text.lowpwr_pwroff_mode1_do
                0x0000000000000000      0x400 Output\obj\driver\driver_lowpwr.o
 .com_sleep.lv2
                0x0000000000000000        0x4 Output\obj\driver\driver_lowpwr.o
 .text          0x0000000000000000        0x0 Output\obj\driver\driver_lpwm.o
 .data          0x0000000000000000        0x0 Output\obj\driver\driver_lpwm.o
 .bss           0x0000000000000000        0x0 Output\obj\driver\driver_lpwm.o
 .text.lpwm_init
                0x0000000000000000       0xae Output\obj\driver\driver_lpwm.o
 .text.lpwm_deinit
                0x0000000000000000       0x3a Output\obj\driver\driver_lpwm.o
 .text.lpwm_stage_config
                0x0000000000000000      0x11e Output\obj\driver\driver_lpwm.o
 .text.lpwm_cmd
                0x0000000000000000       0x16 Output\obj\driver\driver_lpwm.o
 .text.lpwm_get_flag
                0x0000000000000000        0xe Output\obj\driver\driver_lpwm.o
 .text.lpwm_clear_flag
                0x0000000000000000       0x10 Output\obj\driver\driver_lpwm.o
 .comment       0x0000000000000000       0x12 Output\obj\driver\driver_lpwm.o
 .text          0x0000000000000000        0x0 Output\obj\driver\driver_qdec.o
 .data          0x0000000000000000        0x0 Output\obj\driver\driver_qdec.o
 .bss           0x0000000000000000        0x0 Output\obj\driver\driver_qdec.o
 .text.qdec_init
                0x0000000000000000       0xd0 Output\obj\driver\driver_qdec.o
 .text.qdec_deinit
                0x0000000000000000       0x3a Output\obj\driver\driver_qdec.o
 .com_periph.qdec.cmd
                0x0000000000000000       0x10 Output\obj\driver\driver_qdec.o
 .com_periph.qdec.get_data
                0x0000000000000000        0x4 Output\obj\driver\driver_qdec.o
 .text.qdec_clear_data
                0x0000000000000000        0xa Output\obj\driver\driver_qdec.o
 .text.qdec_pic_config
                0x0000000000000000       0x52 Output\obj\driver\driver_qdec.o
 .com_periph.qdec.get
                0x0000000000000000       0x3e Output\obj\driver\driver_qdec.o
 .com_periph.qdec.clear
                0x0000000000000000       0x3c Output\obj\driver\driver_qdec.o
 .comment       0x0000000000000000       0x12 Output\obj\driver\driver_qdec.o
 .text          0x0000000000000000        0x0 Output\obj\driver\driver_rtc.o
 .data          0x0000000000000000        0x0 Output\obj\driver\driver_rtc.o
 .bss           0x0000000000000000        0x0 Output\obj\driver\driver_rtc.o
 .com_periph.rtc.cnt_set
                0x0000000000000000        0x8 Output\obj\driver\driver_rtc.o
 .com_periph.rtc.cnt_get
                0x0000000000000000        0x8 Output\obj\driver\driver_rtc.o
 .com_periph.rtc.alarm_set
                0x0000000000000000        0x8 Output\obj\driver\driver_rtc.o
 .com_periph.rtc.alarm_get
                0x0000000000000000        0x8 Output\obj\driver\driver_rtc.o
 .text.rtc_prescale_set
                0x0000000000000000       0x16 Output\obj\driver\driver_rtc.o
 .text.rtc_prescale_get
                0x0000000000000000        0xc Output\obj\driver\driver_rtc.o
 .text.rtc_pic_config
                0x0000000000000000       0x90 Output\obj\driver\driver_rtc.o
 .com_periph.rct.get
                0x0000000000000000       0x36 Output\obj\driver\driver_rtc.o
 .com_periph.rct.clear
                0x0000000000000000       0x1a Output\obj\driver\driver_rtc.o
 .comment       0x0000000000000000       0x12 Output\obj\driver\driver_rtc.o
 .text          0x0000000000000000        0x0 Output\obj\driver\driver_saradc.o
 .data          0x0000000000000000        0x0 Output\obj\driver\driver_saradc.o
 .bss           0x0000000000000000        0x0 Output\obj\driver\driver_saradc.o
 .text.saradc_set_baud
                0x0000000000000000       0x2e Output\obj\driver\driver_saradc.o
 .text.saradc_pic_config
                0x0000000000000000       0x34 Output\obj\driver\driver_saradc.o
 .com_periph.saradc.get
                0x0000000000000000       0x10 Output\obj\driver\driver_saradc.o
 .com_periph.saradc.clear
                0x0000000000000000       0x10 Output\obj\driver\driver_saradc.o
 .text          0x0000000000000000        0x0 Output\obj\driver\driver_sdadc.o
 .data          0x0000000000000000        0x0 Output\obj\driver\driver_sdadc.o
 .bss           0x0000000000000000        0x0 Output\obj\driver\driver_sdadc.o
 .text.sdadc_init
                0x0000000000000000       0xa2 Output\obj\driver\driver_sdadc.o
 .text.sdadc_deinit
                0x0000000000000000       0x40 Output\obj\driver\driver_sdadc.o
 .text.sdadc_cmd
                0x0000000000000000       0x16 Output\obj\driver\driver_sdadc.o
 .text.sdadc_dma_cmd
                0x0000000000000000       0x1c Output\obj\driver\driver_sdadc.o
 .text.sdadc_pic_config
                0x0000000000000000       0x52 Output\obj\driver\driver_sdadc.o
 .com_periph.sdadc.flag
                0x0000000000000000       0x4c Output\obj\driver\driver_sdadc.o
 .text.sdadc_digital_gain_set
                0x0000000000000000        0xc Output\obj\driver\driver_sdadc.o
 .text.sdadc_removeDC_bits_set
                0x0000000000000000       0x18 Output\obj\driver\driver_sdadc.o
 .text.sdadc_getDC_bits_set
                0x0000000000000000       0x16 Output\obj\driver\driver_sdadc.o
 .text.sdadc_digital_gain_get
                0x0000000000000000        0xc Output\obj\driver\driver_sdadc.o
 .text.sdadc_getDC_bits_get
                0x0000000000000000        0xe Output\obj\driver\driver_sdadc.o
 .text.sdadc_removeDC_bits_get
                0x0000000000000000        0xc Output\obj\driver\driver_sdadc.o
 .comment       0x0000000000000000       0x12 Output\obj\driver\driver_sdadc.o
 .text          0x0000000000000000        0x0 Output\obj\driver\driver_sddac.o
 .data          0x0000000000000000        0x0 Output\obj\driver\driver_sddac.o
 .bss           0x0000000000000000        0x0 Output\obj\driver\driver_sddac.o
 .com_periph.sddac.kick
                0x0000000000000000       0x24 Output\obj\driver\driver_sddac.o
 .com_periph.sddac.dma_stop
                0x0000000000000000        0xe Output\obj\driver\driver_sddac.o
 .com_periph.sddac.spr_get
                0x0000000000000000       0x1a Output\obj\driver\driver_sddac.o
 .com_periph.sddac.spr_set
                0x0000000000000000       0x6e Output\obj\driver\driver_sddac.o
 .text.sddac_init
                0x0000000000000000       0x64 Output\obj\driver\driver_sddac.o
 .text.sddac_deinit
                0x0000000000000000       0x20 Output\obj\driver\driver_sddac.o
 .text.sddac_pic_config
                0x0000000000000000       0x44 Output\obj\driver\driver_sddac.o
 .text.sddac_cmd
                0x0000000000000000       0x1c Output\obj\driver\driver_sddac.o
 .com_periph.sddac.get
                0x0000000000000000       0x28 Output\obj\driver\driver_sddac.o
 .com_periph.sddac.clear
                0x0000000000000000       0x1c Output\obj\driver\driver_sddac.o
 .comment       0x0000000000000000       0x12 Output\obj\driver\driver_sddac.o
 .text          0x0000000000000000        0x0 Output\obj\driver\driver_spi.o
 .data          0x0000000000000000        0x0 Output\obj\driver\driver_spi.o
 .bss           0x0000000000000000        0x0 Output\obj\driver\driver_spi.o
 .text.spi_init
                0x0000000000000000       0x50 Output\obj\driver\driver_spi.o
 .text.spi_deinit
                0x0000000000000000       0x1c Output\obj\driver\driver_spi.o
 .text.spi_cmd  0x0000000000000000       0x10 Output\obj\driver\driver_spi.o
 .com_periph.spi
                0x0000000000000000       0x4e Output\obj\driver\driver_spi.o
 .text.spi_lfsr_cmd
                0x0000000000000000       0x12 Output\obj\driver\driver_spi.o
 .text.spi_multi_bit_bus_cmd
                0x0000000000000000       0x12 Output\obj\driver\driver_spi.o
 .text.spi_hold_rx_cmd
                0x0000000000000000       0x12 Output\obj\driver\driver_spi.o
 .text.spi_hold_tx_cmd
                0x0000000000000000       0x12 Output\obj\driver\driver_spi.o
 .text.spi_soft_hold_cmd
                0x0000000000000000       0x12 Output\obj\driver\driver_spi.o
 .text.spi_pic_config
                0x0000000000000000       0x42 Output\obj\driver\driver_spi.o
 .comment       0x0000000000000000       0x12 Output\obj\driver\driver_spi.o
 .text          0x0000000000000000        0x0 Output\obj\driver\driver_tmr.o
 .data          0x0000000000000000        0x0 Output\obj\driver\driver_tmr.o
 .bss           0x0000000000000000        0x0 Output\obj\driver\driver_tmr.o
 .text.tmr_base_init
                0x0000000000000000       0x6c Output\obj\driver\driver_tmr.o
 .text.tmr_deinit
                0x0000000000000000       0x54 Output\obj\driver\driver_tmr.o
 .text.tmr_set_counter
                0x0000000000000000        0x4 Output\obj\driver\driver_tmr.o
 .com_periph.tmr.set_period
                0x0000000000000000        0x4 Output\obj\driver\driver_tmr.o
 .text.tmr_set_prescale
                0x0000000000000000        0xe Output\obj\driver\driver_tmr.o
 .text.tmr_get_counter
                0x0000000000000000        0x4 Output\obj\driver\driver_tmr.o
 .text.tmr_get_period
                0x0000000000000000        0x4 Output\obj\driver\driver_tmr.o
 .text.tmr_get_prescale
                0x0000000000000000       0x16 Output\obj\driver\driver_tmr.o
 .com_periph.tmr.cmd
                0x0000000000000000       0x34 Output\obj\driver\driver_tmr.o
 .text.tmr_pwm_duty_config
                0x0000000000000000       0x3e Output\obj\driver\driver_tmr.o
 .text.tmr_pwm_cmd
                0x0000000000000000       0x22 Output\obj\driver\driver_tmr.o
 .text.tmr_get_capture
                0x0000000000000000       0x24 Output\obj\driver\driver_tmr.o
 .text.tmr_capture_config
                0x0000000000000000       0x28 Output\obj\driver\driver_tmr.o
 .text.tmr_capture_cmd
                0x0000000000000000       0x1a Output\obj\driver\driver_tmr.o
 .text.tmr_pic_config
                0x0000000000000000       0x9e Output\obj\driver\driver_tmr.o
 .com_periph.tmr.get
                0x0000000000000000       0x52 Output\obj\driver\driver_tmr.o
 .com_periph.tmr.clear
                0x0000000000000000       0x42 Output\obj\driver\driver_tmr.o
 .comment       0x0000000000000000       0x12 Output\obj\driver\driver_tmr.o
 .text          0x0000000000000000        0x0 Output\obj\driver\driver_touch_key.o
 .data          0x0000000000000000        0x0 Output\obj\driver\driver_touch_key.o
 .bss           0x0000000000000000        0x0 Output\obj\driver\driver_touch_key.o
 .com_periph.tkey.isr
                0x0000000000000000      0x182 Output\obj\driver\driver_touch_key.o
 .text.touch_key_dump
                0x0000000000000000       0x24 Output\obj\driver\driver_touch_key.o
 .com_periph.touch.get_key
                0x0000000000000000       0x16 Output\obj\driver\driver_touch_key.o
 .text.touch_key_isr_init
                0x0000000000000000       0x38 Output\obj\driver\driver_touch_key.o
 .text.touch_key_sw_reset
                0x0000000000000000       0x22 Output\obj\driver\driver_touch_key.o
 .text.touch_key_clk_init
                0x0000000000000000       0x92 Output\obj\driver\driver_touch_key.o
 .text.touch_key_init
                0x0000000000000000      0x314 Output\obj\driver\driver_touch_key.o
 .comment       0x0000000000000000       0x12 Output\obj\driver\driver_touch_key.o
 COMMON         0x0000000000000000       0x20 Output\obj\driver\driver_touch_key.o
 .text          0x0000000000000000        0x0 Output\obj\driver\driver_uart.o
 .data          0x0000000000000000        0x0 Output\obj\driver\driver_uart.o
 .bss           0x0000000000000000        0x0 Output\obj\driver\driver_uart.o
 .text.uart_deinit
                0x0000000000000000       0x2e Output\obj\driver\driver_uart.o
 .com_periph.uart.send
                0x0000000000000000        0x8 Output\obj\driver\driver_uart.o
 .com_periph.uart.recv
                0x0000000000000000       0x14 Output\obj\driver\driver_uart.o
 .text.uart_pic_config
                0x0000000000000000       0x5c Output\obj\driver\driver_uart.o
 .com_periph.uart.get_flag
                0x0000000000000000       0x18 Output\obj\driver\driver_uart.o
 .com_periph.uart.clear_flag
                0x0000000000000000       0x34 Output\obj\driver\driver_uart.o
 .text          0x0000000000000000        0x0 Output\obj\driver\driver_wdt.o
 .data          0x0000000000000000        0x0 Output\obj\driver\driver_wdt.o
 .bss           0x0000000000000000        0x0 Output\obj\driver\driver_wdt.o
 .text.wdt_cmd  0x0000000000000000       0x1a Output\obj\driver\driver_wdt.o
 .text.wdt_reset_cmd
                0x0000000000000000       0x1e Output\obj\driver\driver_wdt.o
 .text.wdt_it_cmd
                0x0000000000000000       0x16 Output\obj\driver\driver_wdt.o
 .text.wdt_clk_select
                0x0000000000000000       0x1c Output\obj\driver\driver_wdt.o
 .text.wdt_time_select
                0x0000000000000000       0x1a Output\obj\driver\driver_wdt.o
 .text.wdt_get_flag
                0x0000000000000000        0x8 Output\obj\driver\driver_wdt.o
 .text.wdt_clear
                0x0000000000000000        0xe Output\obj\driver\driver_wdt.o
 .comment       0x0000000000000000       0x12 Output\obj\driver\driver_wdt.o
 .text          0x0000000000000000        0x0 Output\obj\modules\utils\utils_ring_buffer.o
 .data          0x0000000000000000        0x0 Output\obj\modules\utils\utils_ring_buffer.o
 .bss           0x0000000000000000        0x0 Output\obj\modules\utils\utils_ring_buffer.o
 .text.utils_ring_buf_init
                0x0000000000000000       0x28 Output\obj\modules\utils\utils_ring_buffer.o
 .text.utils_ring_buf_clear
                0x0000000000000000       0x10 Output\obj\modules\utils\utils_ring_buffer.o
 .com_text.ring_buf.write
                0x0000000000000000       0x82 Output\obj\modules\utils\utils_ring_buffer.o
 .com_text.ring_buf.read
                0x0000000000000000       0x74 Output\obj\modules\utils\utils_ring_buffer.o
 .com_text.ring_buf.get
                0x0000000000000000       0x4c Output\obj\modules\utils\utils_ring_buffer.o
 .com_text.ring_buf.dl_get
                0x0000000000000000        0x4 Output\obj\modules\utils\utils_ring_buffer.o
 .com_text.ring_buf.tl_get
                0x0000000000000000        0x4 Output\obj\modules\utils\utils_ring_buffer.o
 .comment       0x0000000000000000       0x12 Output\obj\modules\utils\utils_ring_buffer.o
 .text          0x0000000000000000        0x0 Output\obj\project\ble_peripheral\app\func.o
 .data          0x0000000000000000        0x0 Output\obj\project\ble_peripheral\app\func.o
 .bss           0x0000000000000000        0x0 Output\obj\project\ble_peripheral\app\func.o
 .text          0x0000000000000000        0x0 Output\obj\project\ble_peripheral\app\func_bt.o
 .data          0x0000000000000000        0x0 Output\obj\project\ble_peripheral\app\func_bt.o
 .bss           0x0000000000000000        0x0 Output\obj\project\ble_peripheral\app\func_bt.o
 .text          0x0000000000000000        0x0 Output\obj\project\ble_peripheral\app\func_idle.o
 .data          0x0000000000000000        0x0 Output\obj\project\ble_peripheral\app\func_idle.o
 .bss           0x0000000000000000        0x0 Output\obj\project\ble_peripheral\app\func_idle.o
 .text          0x0000000000000000        0x0 Output\obj\project\ble_peripheral\app\func_iodm.o
 .data          0x0000000000000000        0x0 Output\obj\project\ble_peripheral\app\func_iodm.o
 .bss           0x0000000000000000        0x0 Output\obj\project\ble_peripheral\app\func_iodm.o
 .comment       0x0000000000000000       0x12 Output\obj\project\ble_peripheral\app\func_iodm.o
 .text          0x0000000000000000        0x0 Output\obj\project\ble_peripheral\app\func_le_bqb_rf.o
 .data          0x0000000000000000        0x0 Output\obj\project\ble_peripheral\app\func_le_bqb_rf.o
 .bss           0x0000000000000000        0x0 Output\obj\project\ble_peripheral\app\func_le_bqb_rf.o
 .comment       0x0000000000000000       0x12 Output\obj\project\ble_peripheral\app\func_le_bqb_rf.o
 .text          0x0000000000000000        0x0 Output\obj\project\ble_peripheral\app\func_le_fcc.o
 .data          0x0000000000000000        0x0 Output\obj\project\ble_peripheral\app\func_le_fcc.o
 .bss           0x0000000000000000        0x0 Output\obj\project\ble_peripheral\app\func_le_fcc.o
 .comment       0x0000000000000000       0x12 Output\obj\project\ble_peripheral\app\func_le_fcc.o
 .text          0x0000000000000000        0x0 Output\obj\project\ble_peripheral\app\func_lowpwr.o
 .data          0x0000000000000000        0x0 Output\obj\project\ble_peripheral\app\func_lowpwr.o
 .bss           0x0000000000000000        0x0 Output\obj\project\ble_peripheral\app\func_lowpwr.o
 .text.lowpwr_deep_sleep_wakeup_config
                0x0000000000000000        0xa Output\obj\project\ble_peripheral\app\func_lowpwr.o
 .text.lowpwr.deep_sleep
                0x0000000000000000       0x68 Output\obj\project\ble_peripheral\app\func_lowpwr.o
 .rodata.__func__.5141
                0x0000000000000000       0x11 Output\obj\project\ble_peripheral\app\func_lowpwr.o
 .text          0x0000000000000000        0x0 Output\obj\project\ble_peripheral\app\func_tbox.o
 .data          0x0000000000000000        0x0 Output\obj\project\ble_peripheral\app\func_tbox.o
 .bss           0x0000000000000000        0x0 Output\obj\project\ble_peripheral\app\func_tbox.o
 .comment       0x0000000000000000       0x12 Output\obj\project\ble_peripheral\app\func_tbox.o
 .text          0x0000000000000000        0x0 Output\obj\project\ble_peripheral\app\msg_bt.o
 .data          0x0000000000000000        0x0 Output\obj\project\ble_peripheral\app\msg_bt.o
 .bss           0x0000000000000000        0x0 Output\obj\project\ble_peripheral\app\msg_bt.o
 .text          0x0000000000000000        0x0 Output\obj\project\ble_peripheral\app\msg_idle.o
 .data          0x0000000000000000        0x0 Output\obj\project\ble_peripheral\app\msg_idle.o
 .bss           0x0000000000000000        0x0 Output\obj\project\ble_peripheral\app\msg_idle.o
 .text          0x0000000000000000        0x0 Output\obj\project\ble_peripheral\app\msg_iodm.o
 .data          0x0000000000000000        0x0 Output\obj\project\ble_peripheral\app\msg_iodm.o
 .bss           0x0000000000000000        0x0 Output\obj\project\ble_peripheral\app\msg_iodm.o
 .text.func.iodm.msg
                0x0000000000000000        0x8 Output\obj\project\ble_peripheral\app\msg_iodm.o
 .comment       0x0000000000000000       0x12 Output\obj\project\ble_peripheral\app\msg_iodm.o
 .text          0x0000000000000000        0x0 Output\obj\project\ble_peripheral\app\msg_le_bqb_rf.o
 .data          0x0000000000000000        0x0 Output\obj\project\ble_peripheral\app\msg_le_bqb_rf.o
 .bss           0x0000000000000000        0x0 Output\obj\project\ble_peripheral\app\msg_le_bqb_rf.o
 .text.func.le_bqb_rf.msg
                0x0000000000000000        0x8 Output\obj\project\ble_peripheral\app\msg_le_bqb_rf.o
 .comment       0x0000000000000000       0x12 Output\obj\project\ble_peripheral\app\msg_le_bqb_rf.o
 .text          0x0000000000000000        0x0 Output\obj\project\ble_peripheral\app\msg_le_fcc.o
 .data          0x0000000000000000        0x0 Output\obj\project\ble_peripheral\app\msg_le_fcc.o
 .bss           0x0000000000000000        0x0 Output\obj\project\ble_peripheral\app\msg_le_fcc.o
 .text.func.le_fcc.msg
                0x0000000000000000        0x8 Output\obj\project\ble_peripheral\app\msg_le_fcc.o
 .comment       0x0000000000000000       0x12 Output\obj\project\ble_peripheral\app\msg_le_fcc.o
 .text          0x0000000000000000        0x0 Output\obj\project\ble_peripheral\app\msg_tbox.o
 .data          0x0000000000000000        0x0 Output\obj\project\ble_peripheral\app\msg_tbox.o
 .bss           0x0000000000000000        0x0 Output\obj\project\ble_peripheral\app\msg_tbox.o
 .comment       0x0000000000000000       0x12 Output\obj\project\ble_peripheral\app\msg_tbox.o
 .text          0x0000000000000000        0x0 Output\obj\project\ble_peripheral\audio\dec\mp3_dec.o
 .data          0x0000000000000000        0x0 Output\obj\project\ble_peripheral\audio\dec\mp3_dec.o
 .bss           0x0000000000000000        0x0 Output\obj\project\ble_peripheral\audio\dec\mp3_dec.o
 .comment       0x0000000000000000       0x12 Output\obj\project\ble_peripheral\audio\dec\mp3_dec.o
 .text          0x0000000000000000        0x0 Output\obj\project\ble_peripheral\audio\dec\sin_dec.o
 .data          0x0000000000000000        0x0 Output\obj\project\ble_peripheral\audio\dec\sin_dec.o
 .bss           0x0000000000000000        0x0 Output\obj\project\ble_peripheral\audio\dec\sin_dec.o
 .comment       0x0000000000000000       0x12 Output\obj\project\ble_peripheral\audio\dec\sin_dec.o
 .text          0x0000000000000000        0x0 Output\obj\project\ble_peripheral\audio\dec\wav_dec.o
 .data          0x0000000000000000        0x0 Output\obj\project\ble_peripheral\audio\dec\wav_dec.o
 .bss           0x0000000000000000        0x0 Output\obj\project\ble_peripheral\audio\dec\wav_dec.o
 .comment       0x0000000000000000       0x12 Output\obj\project\ble_peripheral\audio\dec\wav_dec.o
 .text          0x0000000000000000        0x0 Output\obj\project\ble_peripheral\ble\ble_fota_service.o
 .data          0x0000000000000000        0x0 Output\obj\project\ble_peripheral\ble\ble_fota_service.o
 .bss           0x0000000000000000        0x0 Output\obj\project\ble_peripheral\ble\ble_fota_service.o
 .text.ab_fota_write
                0x0000000000000000        0x8 Output\obj\project\ble_peripheral\ble\ble_fota_service.o
 .text.ab_fota_get_err
                0x0000000000000000        0x8 Output\obj\project\ble_peripheral\ble\ble_fota_service.o
 .text.ab_fota_breakpoint_info_read
                0x0000000000000000        0x8 Output\obj\project\ble_peripheral\ble\ble_fota_service.o
 .text.ab_fota_init
                0x0000000000000000        0x8 Output\obj\project\ble_peripheral\ble\ble_fota_service.o
 .text.ab_fota_deinit
                0x0000000000000000        0x8 Output\obj\project\ble_peripheral\ble\ble_fota_service.o
 .text.ab_fota_get_curaddr
                0x0000000000000000        0x8 Output\obj\project\ble_peripheral\ble\ble_fota_service.o
 .text.ab_fota_is_update_success
                0x0000000000000000        0x8 Output\obj\project\ble_peripheral\ble\ble_fota_service.o
 .text.fota_ble_connect_callback
                0x0000000000000000        0x2 Output\obj\project\ble_peripheral\ble\ble_fota_service.o
 .text          0x0000000000000000        0x0 Output\obj\project\ble_peripheral\ble\ble_init.o
 .data          0x0000000000000000        0x0 Output\obj\project\ble_peripheral\ble\ble_init.o
 .bss           0x0000000000000000        0x0 Output\obj\project\ble_peripheral\ble\ble_init.o
 .text.ble_get_work_mode
                0x0000000000000000        0xa Output\obj\project\ble_peripheral\ble\ble_init.o
 .text.ble_sm_param_init
                0x0000000000000000        0xe Output\obj\project\ble_peripheral\ble\ble_init.o
 .text          0x0000000000000000        0x0 Output\obj\project\ble_peripheral\ble\ble_proc.o
 .data          0x0000000000000000        0x0 Output\obj\project\ble_peripheral\ble\ble_proc.o
 .bss           0x0000000000000000        0x0 Output\obj\project\ble_peripheral\ble\ble_proc.o
 .text          0x0000000000000000        0x0 Output\obj\project\ble_peripheral\ble\ble_service.o
 .data          0x0000000000000000        0x0 Output\obj\project\ble_peripheral\ble\ble_service.o
 .bss           0x0000000000000000        0x0 Output\obj\project\ble_peripheral\ble\ble_service.o
 .rodata.scan_data_const
                0x0000000000000000        0x0 Output\obj\project\ble_peripheral\ble\ble_service.o
 .text          0x0000000000000000        0x0 Output\obj\project\ble_peripheral\ble\ble_user_service.o
 .data          0x0000000000000000        0x0 Output\obj\project\ble_peripheral\ble\ble_user_service.o
 .bss           0x0000000000000000        0x0 Output\obj\project\ble_peripheral\ble\ble_user_service.o
 .text          0x0000000000000000        0x0 Output\obj\project\ble_peripheral\bsp\bsp_charge.o
 .data          0x0000000000000000        0x0 Output\obj\project\ble_peripheral\bsp\bsp_charge.o
 .bss           0x0000000000000000        0x0 Output\obj\project\ble_peripheral\bsp\bsp_charge.o
 .text          0x0000000000000000        0x0 Output\obj\project\ble_peripheral\bsp\bsp_huart.o
 .data          0x0000000000000000        0x0 Output\obj\project\ble_peripheral\bsp\bsp_huart.o
 .bss           0x0000000000000000        0x0 Output\obj\project\ble_peripheral\bsp\bsp_huart.o
 .comment       0x0000000000000000       0x12 Output\obj\project\ble_peripheral\bsp\bsp_huart.o
 .text          0x0000000000000000        0x0 Output\obj\project\ble_peripheral\bsp\bsp_huart_iodm.o
 .data          0x0000000000000000        0x0 Output\obj\project\ble_peripheral\bsp\bsp_huart_iodm.o
 .bss           0x0000000000000000        0x0 Output\obj\project\ble_peripheral\bsp\bsp_huart_iodm.o
 .comment       0x0000000000000000       0x12 Output\obj\project\ble_peripheral\bsp\bsp_huart_iodm.o
 .text          0x0000000000000000        0x0 Output\obj\project\ble_peripheral\bsp\bsp_io_key.o
 .data          0x0000000000000000        0x0 Output\obj\project\ble_peripheral\bsp\bsp_io_key.o
 .bss           0x0000000000000000        0x0 Output\obj\project\ble_peripheral\bsp\bsp_io_key.o
 .bss.key_io_table_column
                0x0000000000000000        0x0 Output\obj\project\ble_peripheral\bsp\bsp_io_key.o
 .text          0x0000000000000000        0x0 Output\obj\project\ble_peripheral\bsp\bsp_key.o
 .data          0x0000000000000000        0x0 Output\obj\project\ble_peripheral\bsp\bsp_key.o
 .bss           0x0000000000000000        0x0 Output\obj\project\ble_peripheral\bsp\bsp_key.o
 .com_text.key.set.power_on
                0x0000000000000000        0xa Output\obj\project\ble_peripheral\bsp\bsp_key.o
 .com_text.key.get.power_on
                0x0000000000000000        0xe Output\obj\project\ble_peripheral\bsp\bsp_key.o
 .text          0x0000000000000000        0x0 Output\obj\project\ble_peripheral\bsp\bsp_param.o
 .data          0x0000000000000000        0x0 Output\obj\project\ble_peripheral\bsp\bsp_param.o
 .bss           0x0000000000000000        0x0 Output\obj\project\ble_peripheral\bsp\bsp_param.o
 .text          0x0000000000000000        0x0 Output\obj\project\ble_peripheral\bsp\bsp_saradc.o
 .data          0x0000000000000000        0x0 Output\obj\project\ble_peripheral\bsp\bsp_saradc.o
 .bss           0x0000000000000000        0x0 Output\obj\project\ble_peripheral\bsp\bsp_saradc.o
 .text          0x0000000000000000        0x0 Output\obj\project\ble_peripheral\bsp\bsp_saradc_key.o
 .data          0x0000000000000000        0x0 Output\obj\project\ble_peripheral\bsp\bsp_saradc_key.o
 .bss           0x0000000000000000        0x0 Output\obj\project\ble_peripheral\bsp\bsp_saradc_key.o
 .comment       0x0000000000000000       0x12 Output\obj\project\ble_peripheral\bsp\bsp_saradc_key.o
 .text          0x0000000000000000        0x0 Output\obj\project\ble_peripheral\bsp\bsp_saradc_tsensor.o
 .data          0x0000000000000000        0x0 Output\obj\project\ble_peripheral\bsp\bsp_saradc_tsensor.o
 .bss           0x0000000000000000        0x0 Output\obj\project\ble_peripheral\bsp\bsp_saradc_tsensor.o
 .comment       0x0000000000000000       0x12 Output\obj\project\ble_peripheral\bsp\bsp_saradc_tsensor.o
 .text          0x0000000000000000        0x0 Output\obj\project\ble_peripheral\bsp\bsp_saradc_vbat.o
 .data          0x0000000000000000        0x0 Output\obj\project\ble_peripheral\bsp\bsp_saradc_vbat.o
 .bss           0x0000000000000000        0x0 Output\obj\project\ble_peripheral\bsp\bsp_saradc_vbat.o
 .rodata.vbat_param
                0x0000000000000000        0xa Output\obj\project\ble_peripheral\bsp\bsp_saradc_vbat.o
 .text          0x0000000000000000        0x0 Output\obj\project\ble_peripheral\bsp\bsp_sys.o
 .data          0x0000000000000000        0x0 Output\obj\project\ble_peripheral\bsp\bsp_sys.o
 .bss           0x0000000000000000        0x0 Output\obj\project\ble_peripheral\bsp\bsp_sys.o
 .text.power_on_check
                0x0000000000000000        0x8 Output\obj\project\ble_peripheral\bsp\bsp_sys.o
 .text          0x0000000000000000        0x0 Output\obj\project\ble_peripheral\bsp\bsp_tone.o
 .data          0x0000000000000000        0x0 Output\obj\project\ble_peripheral\bsp\bsp_tone.o
 .bss           0x0000000000000000        0x0 Output\obj\project\ble_peripheral\bsp\bsp_tone.o
 .comment       0x0000000000000000       0x12 Output\obj\project\ble_peripheral\bsp\bsp_tone.o
 .text          0x0000000000000000        0x0 Output\obj\project\ble_peripheral\bsp\bsp_touch_key.o
 .data          0x0000000000000000        0x0 Output\obj\project\ble_peripheral\bsp\bsp_touch_key.o
 .bss           0x0000000000000000        0x0 Output\obj\project\ble_peripheral\bsp\bsp_touch_key.o
 .comment       0x0000000000000000       0x12 Output\obj\project\ble_peripheral\bsp\bsp_touch_key.o
 .text          0x0000000000000000        0x0 Output\obj\project\ble_peripheral\bsp\bsp_uart_debug.o
 .data          0x0000000000000000        0x0 Output\obj\project\ble_peripheral\bsp\bsp_uart_debug.o
 .bss           0x0000000000000000        0x0 Output\obj\project\ble_peripheral\bsp\bsp_uart_debug.o
 .text          0x0000000000000000        0x0 Output\obj\project\ble_peripheral\main.o
 .data          0x0000000000000000        0x0 Output\obj\project\ble_peripheral\main.o
 .bss           0x0000000000000000        0x0 Output\obj\project\ble_peripheral\main.o
 .text          0x0000000000000000        0x0 Output\obj\project\ble_peripheral\production_test\iodm\prod_test_iodm.o
 .data          0x0000000000000000        0x0 Output\obj\project\ble_peripheral\production_test\iodm\prod_test_iodm.o
 .bss           0x0000000000000000        0x0 Output\obj\project\ble_peripheral\production_test\iodm\prod_test_iodm.o
 .comment       0x0000000000000000       0x12 Output\obj\project\ble_peripheral\production_test\iodm\prod_test_iodm.o
 .text          0x0000000000000000        0x0 Output\obj\project\ble_peripheral\production_test\prod_test.o
 .data          0x0000000000000000        0x0 Output\obj\project\ble_peripheral\production_test\prod_test.o
 .bss           0x0000000000000000        0x0 Output\obj\project\ble_peripheral\production_test\prod_test.o
 .text          0x0000000000000000        0x0 Output\obj\project\ble_peripheral\production_test\tbox\prod_test_tbox.o
 .data          0x0000000000000000        0x0 Output\obj\project\ble_peripheral\production_test\tbox\prod_test_tbox.o
 .bss           0x0000000000000000        0x0 Output\obj\project\ble_peripheral\production_test\tbox\prod_test_tbox.o
 .comment       0x0000000000000000       0x12 Output\obj\project\ble_peripheral\production_test\tbox\prod_test_tbox.o
 .text          0x0000000000000000        0x0 Output\obj\project\ble_peripheral\production_test\tbox\tbox_key.o
 .data          0x0000000000000000        0x0 Output\obj\project\ble_peripheral\production_test\tbox\tbox_key.o
 .bss           0x0000000000000000        0x0 Output\obj\project\ble_peripheral\production_test\tbox\tbox_key.o
 .comment       0x0000000000000000       0x12 Output\obj\project\ble_peripheral\production_test\tbox\tbox_key.o
 .text          0x0000000000000000        0x0 Output\obj\project\ble_peripheral\production_test\tbox\tbox_voice.o
 .data          0x0000000000000000        0x0 Output\obj\project\ble_peripheral\production_test\tbox\tbox_voice.o
 .bss           0x0000000000000000        0x0 Output\obj\project\ble_peripheral\production_test\tbox\tbox_voice.o
 .comment       0x0000000000000000       0x12 Output\obj\project\ble_peripheral\production_test\tbox\tbox_voice.o
 .text          0x0000000000000000        0x0 Output\obj\project\ble_peripheral\production_test\tbox\tbox_voice_sdadc.o
 .data          0x0000000000000000        0x0 Output\obj\project\ble_peripheral\production_test\tbox\tbox_voice_sdadc.o
 .bss           0x0000000000000000        0x0 Output\obj\project\ble_peripheral\production_test\tbox\tbox_voice_sdadc.o
 .comment       0x0000000000000000       0x12 Output\obj\project\ble_peripheral\production_test\tbox\tbox_voice_sdadc.o
 .text          0x0000000000000000        0x0 Output\obj\project\ble_peripheral\strong_symbol.o
 .data          0x0000000000000000        0x0 Output\obj\project\ble_peripheral\strong_symbol.o
 .bss           0x0000000000000000        0x0 Output\obj\project\ble_peripheral\strong_symbol.o
 .text.ble_sm_client_event_do
                0x0000000000000000        0x2 Output\obj\project\ble_peripheral\strong_symbol.o
 .text.ble_sm_send_security_req_time_get
                0x0000000000000000        0x6 Output\obj\project\ble_peripheral\strong_symbol.o
 .text.ble_sm_always_accept_ltk_req
                0x0000000000000000        0x4 Output\obj\project\ble_peripheral\strong_symbol.o
 .text.ble_sm_pairing_support
                0x0000000000000000        0x4 Output\obj\project\ble_peripheral\strong_symbol.o
 .text          0x0000000000000000        0x0 ..\..\libs\cpu\libplatform.a(sdadc.o)
 .data          0x0000000000000000        0x0 ..\..\libs\cpu\libplatform.a(sdadc.o)
 .bss           0x0000000000000000        0x0 ..\..\libs\cpu\libplatform.a(sdadc.o)
 .text.mic_trimin
                0x0000000000000000       0x32 ..\..\libs\cpu\libplatform.a(sdadc.o)
 .text.mic_adc_init
                0x0000000000000000      0x194 ..\..\libs\cpu\libplatform.a(sdadc.o)
 .text.mic_adc_deinit
                0x0000000000000000       0x14 ..\..\libs\cpu\libplatform.a(sdadc.o)
 .text.mic_bias_open
                0x0000000000000000       0x30 ..\..\libs\cpu\libplatform.a(sdadc.o)
 .text.mic_bias_close
                0x0000000000000000       0x10 ..\..\libs\cpu\libplatform.a(sdadc.o)
 .text.mic_bias_level_set
                0x0000000000000000       0x20 ..\..\libs\cpu\libplatform.a(sdadc.o)
 .text.mic_analog_gain_set
                0x0000000000000000       0x14 ..\..\libs\cpu\libplatform.a(sdadc.o)
 .text.sdadc_done_callback_set
                0x0000000000000000        0xc ..\..\libs\cpu\libplatform.a(sdadc.o)
 .com_text.sdadc.done
                0x0000000000000000        0xe ..\..\libs\cpu\libplatform.a(sdadc.o)
 .com_text.irq.sdadc
                0x0000000000000000       0x26 ..\..\libs\cpu\libplatform.a(sdadc.o)
 .sbss.p_sdadc_done
                0x0000000000000000        0x4 ..\..\libs\cpu\libplatform.a(sdadc.o)
 .comment       0x0000000000000000       0x13 ..\..\libs\cpu\libplatform.a(sdadc.o)
 .riscv.attributes
                0x0000000000000000       0x32 ..\..\libs\cpu\libplatform.a(sdadc.o)
 .text          0x0000000000000000        0x0 ..\..\libs\cpu\libplatform.a(cm.o)
 .data          0x0000000000000000        0x0 ..\..\libs\cpu\libplatform.a(cm.o)
 .bss           0x0000000000000000        0x0 ..\..\libs\cpu\libplatform.a(cm.o)
 .rodata.cm_move_allpages.str1.4
                0x0000000000000000       0x3a ..\..\libs\cpu\libplatform.a(cm.o)
 .text.cm_move_allpages
                0x0000000000000000      0x140 ..\..\libs\cpu\libplatform.a(cm.o)
 .text.cm_get_startaddr
                0x0000000000000000        0xa ..\..\libs\cpu\libplatform.a(cm.o)
 .text.cm_get_area
                0x0000000000000000       0x10 ..\..\libs\cpu\libplatform.a(cm.o)
 .text.cm_release_all
                0x0000000000000000       0x82 ..\..\libs\cpu\libplatform.a(cm.o)
 .text.cm_read8
                0x0000000000000000       0x28 ..\..\libs\cpu\libplatform.a(cm.o)
 .text.cm_read16
                0x0000000000000000       0x28 ..\..\libs\cpu\libplatform.a(cm.o)
 .text.cm_read32
                0x0000000000000000       0x24 ..\..\libs\cpu\libplatform.a(cm.o)
 .text.cm_write8
                0x0000000000000000       0x28 ..\..\libs\cpu\libplatform.a(cm.o)
 .text.cm_write16
                0x0000000000000000       0x28 ..\..\libs\cpu\libplatform.a(cm.o)
 .text.cm_write32
                0x0000000000000000       0x24 ..\..\libs\cpu\libplatform.a(cm.o)
 .text.cm_clear
                0x0000000000000000       0x60 ..\..\libs\cpu\libplatform.a(cm.o)
 .text          0x0000000000000000        0x0 ..\..\libs\cpu\libplatform.a(os_flash.o)
 .data          0x0000000000000000        0x0 ..\..\libs\cpu\libplatform.a(os_flash.o)
 .bss           0x0000000000000000        0x0 ..\..\libs\cpu\libplatform.a(os_flash.o)
 .com_text.spiflash.id
                0x0000000000000000       0x82 ..\..\libs\cpu\libplatform.a(os_flash.o)
 .com_text.spiflash.protect.weak
                0x0000000000000000       0x60 ..\..\libs\cpu\libplatform.a(os_flash.o)
 .com_text.spiflash.erase_32k
                0x0000000000000000       0x72 ..\..\libs\cpu\libplatform.a(os_flash.o)
 .com_text.spiflash.erase_64k
                0x0000000000000000       0x72 ..\..\libs\cpu\libplatform.a(os_flash.o)
 .text          0x0000000000000000        0x0 ..\..\libs\cpu\libplatform.a(xcfg.o)
 .data          0x0000000000000000        0x0 ..\..\libs\cpu\libplatform.a(xcfg.o)
 .bss           0x0000000000000000        0x0 ..\..\libs\cpu\libplatform.a(xcfg.o)
 .text          0x0000000000000000        0x0 ..\..\libs\cpu\libplatform.a(main.o)
 .data          0x0000000000000000        0x0 ..\..\libs\cpu\libplatform.a(main.o)
 .bss           0x0000000000000000        0x0 ..\..\libs\cpu\libplatform.a(main.o)
 .text.compiler
                0x0000000000000000       0x20 ..\..\libs\cpu\libplatform.a(main.o)
 .text          0x0000000000000000        0x0 ..\..\libs\cpu\libplatform.a(interrupt.o)
 .data          0x0000000000000000        0x0 ..\..\libs\cpu\libplatform.a(interrupt.o)
 .bss           0x0000000000000000        0x0 ..\..\libs\cpu\libplatform.a(interrupt.o)
 .rodata.watch_point_set.str1.4
                0x0000000000000000       0x19 ..\..\libs\cpu\libplatform.a(interrupt.o)
 .text.watch_point_set
                0x0000000000000000       0x48 ..\..\libs\cpu\libplatform.a(interrupt.o)
 .text.wdt_init
                0x0000000000000000       0x3a ..\..\libs\cpu\libplatform.a(interrupt.o)
 .text.usb_irq_init
                0x0000000000000000       0x2e ..\..\libs\cpu\libplatform.a(interrupt.o)
 .text          0x0000000000000000        0x0 ..\..\libs\cpu\libplatform.a(startup.o)
 .data          0x0000000000000000        0x0 ..\..\libs\cpu\libplatform.a(startup.o)
 .bss           0x0000000000000000        0x0 ..\..\libs\cpu\libplatform.a(startup.o)
 .text.mem_heap_size_get
                0x0000000000000000        0x8 ..\..\libs\cpu\libplatform.a(startup.o)
 .text.thread_cfg_get
                0x0000000000000000        0x4 ..\..\libs\cpu\libplatform.a(startup.o)
 .text.thread_bthw_create
                0x0000000000000000        0x2 ..\..\libs\cpu\libplatform.a(startup.o)
 .rodata.thread_driver_create.str1.4
                0x0000000000000000        0x8 ..\..\libs\cpu\libplatform.a(startup.o)
 .text.thread_driver_create
                0x0000000000000000       0x88 ..\..\libs\cpu\libplatform.a(startup.o)
 .rodata.thread_aupcm_create.str1.4
                0x0000000000000000        0x4 ..\..\libs\cpu\libplatform.a(startup.o)
 .text.thread_aupcm_create
                0x0000000000000000       0x78 ..\..\libs\cpu\libplatform.a(startup.o)
 .text.thread_create_callback
                0x0000000000000000       0x28 ..\..\libs\cpu\libplatform.a(startup.o)
 .bss.thread.aupcm
                0x0000000000000000        0x4 ..\..\libs\cpu\libplatform.a(startup.o)
 .bss.thread.driver
                0x0000000000000000        0x8 ..\..\libs\cpu\libplatform.a(startup.o)
 .mem_heap      0x0000000000000000     0x1c00 ..\..\libs\cpu\libplatform.a(startup.o)
 .text          0x0000000000000000        0x0 ..\..\libs\cpu\libplatform.a(sys_hook.o)
 .data          0x0000000000000000        0x0 ..\..\libs\cpu\libplatform.a(sys_hook.o)
 .bss           0x0000000000000000        0x0 ..\..\libs\cpu\libplatform.a(sys_hook.o)
 .text          0x0000000000000000        0x0 ..\..\libs\cpu\libplatform.a(thread_aupcm.o)
 .data          0x0000000000000000        0x0 ..\..\libs\cpu\libplatform.a(thread_aupcm.o)
 .bss           0x0000000000000000        0x0 ..\..\libs\cpu\libplatform.a(thread_aupcm.o)
 .com_text.thread.driver
                0x0000000000000000       0x30 ..\..\libs\cpu\libplatform.a(thread_aupcm.o)
 .com_text.thread.aupcm
                0x0000000000000000       0x64 ..\..\libs\cpu\libplatform.a(thread_aupcm.o)
 .comment       0x0000000000000000       0x13 ..\..\libs\cpu\libplatform.a(thread_aupcm.o)
 .riscv.attributes
                0x0000000000000000       0x32 ..\..\libs\cpu\libplatform.a(thread_aupcm.o)
 .text          0x0000000000000000        0x0 ..\..\libs\cpu\libplatform.a(thread_driver.o)
 .data          0x0000000000000000        0x0 ..\..\libs\cpu\libplatform.a(thread_driver.o)
 .bss           0x0000000000000000        0x0 ..\..\libs\cpu\libplatform.a(thread_driver.o)
 .com_text.thread.driver
                0x0000000000000000       0x26 ..\..\libs\cpu\libplatform.a(thread_driver.o)
 .com_text.thread.driver.usb
                0x0000000000000000       0x4e ..\..\libs\cpu\libplatform.a(thread_driver.o)
 .com_text.thread.driver.vs
                0x0000000000000000       0x4e ..\..\libs\cpu\libplatform.a(thread_driver.o)
 .text.thread.driver.usb
                0x0000000000000000       0x38 ..\..\libs\cpu\libplatform.a(thread_driver.o)
 .text.thread.driver.vs
                0x0000000000000000       0x38 ..\..\libs\cpu\libplatform.a(thread_driver.o)
 .com_text.thread.driver.enter
                0x0000000000000000       0x60 ..\..\libs\cpu\libplatform.a(thread_driver.o)
 .sbss.thread_driver_usb_enter_func
                0x0000000000000000        0x4 ..\..\libs\cpu\libplatform.a(thread_driver.o)
 .sbss.thread_driver_vs_enter_func
                0x0000000000000000        0x4 ..\..\libs\cpu\libplatform.a(thread_driver.o)
 .comment       0x0000000000000000       0x13 ..\..\libs\cpu\libplatform.a(thread_driver.o)
 .riscv.attributes
                0x0000000000000000       0x32 ..\..\libs\cpu\libplatform.a(thread_driver.o)
 .text          0x0000000000000000        0x0 ..\..\libs\cpu\libplatform.a(pll.o)
 .data          0x0000000000000000        0x0 ..\..\libs\cpu\libplatform.a(pll.o)
 .bss           0x0000000000000000        0x0 ..\..\libs\cpu\libplatform.a(pll.o)
 .text.pll_clk_nhz_get
                0x0000000000000000       0x22 ..\..\libs\cpu\libplatform.a(pll.o)
 .text          0x0000000000000000        0x0 ..\..\libs\cpu\libplatform.a(pmu.o)
 .data          0x0000000000000000        0x0 ..\..\libs\cpu\libplatform.a(pmu.o)
 .bss           0x0000000000000000        0x0 ..\..\libs\cpu\libplatform.a(pmu.o)
 .com_text.trim.vddio_get
                0x0000000000000000        0xa ..\..\libs\cpu\libplatform.a(pmu.o)
 .com_text.trim.vbg_get
                0x0000000000000000        0xa ..\..\libs\cpu\libplatform.a(pmu.o)
 .com_text.trim.vddio_set
                0x0000000000000000       0x2c ..\..\libs\cpu\libplatform.a(pmu.o)
 .com_text.trim.core_set
                0x0000000000000000       0x16 ..\..\libs\cpu\libplatform.a(pmu.o)
 .com_text.trim.lvd_get
                0x0000000000000000        0xa ..\..\libs\cpu\libplatform.a(pmu.o)
 .com_text.pmu.vddbt_set
                0x0000000000000000        0xe ..\..\libs\cpu\libplatform.a(pmu.o)
 .com_text.pmu.vddbt_get
                0x0000000000000000        0x8 ..\..\libs\cpu\libplatform.a(pmu.o)
 .text          0x0000000000000000        0x0 ..\..\libs\cpu\libplatform.a(rc.o)
 .data          0x0000000000000000        0x0 ..\..\libs\cpu\libplatform.a(rc.o)
 .bss           0x0000000000000000        0x0 ..\..\libs\cpu\libplatform.a(rc.o)
 .text.compiler
                0x0000000000000000        0x2 ..\..\libs\cpu\libplatform.a(rc.o)
 .text          0x0000000000000000        0x0 ..\..\libs\cpu\libplatform.a(reset.o)
 .data          0x0000000000000000        0x0 ..\..\libs\cpu\libplatform.a(reset.o)
 .bss           0x0000000000000000        0x0 ..\..\libs\cpu\libplatform.a(reset.o)
 .text          0x0000000000000000        0x0 ..\..\libs\cpu\libplatform.a(spiflash.o)
 .data          0x0000000000000000        0x0 ..\..\libs\cpu\libplatform.a(spiflash.o)
 .bss           0x0000000000000000        0x0 ..\..\libs\cpu\libplatform.a(spiflash.o)
 .com_text.spiflash.w_en
                0x0000000000000000       0x32 ..\..\libs\cpu\libplatform.a(spiflash.o)
 .com_text.spiflash.rssr
                0x0000000000000000       0x42 ..\..\libs\cpu\libplatform.a(spiflash.o)
 .com_text.spiflash.busy
                0x0000000000000000       0x24 ..\..\libs\cpu\libplatform.a(spiflash.o)
 .com_text.spiflash
                0x0000000000000000       0x84 ..\..\libs\cpu\libplatform.a(spiflash.o)
 .com_text.spiflash.refactor
                0x0000000000000000      0x112 ..\..\libs\cpu\libplatform.a(spiflash.o)
 .com_text.spiflash.wrsr
                0x0000000000000000       0x46 ..\..\libs\cpu\libplatform.a(spiflash.o)
 .com_text.spiflash.protect.en
                0x0000000000000000        0x4 ..\..\libs\cpu\libplatform.a(spiflash.o)
 .com_text.spiflash.protect_do
                0x0000000000000000       0x68 ..\..\libs\cpu\libplatform.a(spiflash.o)
 .com_text.spiflash.is_protect
                0x0000000000000000       0x50 ..\..\libs\cpu\libplatform.a(spiflash.o)
 .com_text.spiflash.read_kick
                0x0000000000000000       0x20 ..\..\libs\cpu\libplatform.a(spiflash.o)
 .com_text.spiflash.read_wait
                0x0000000000000000       0x30 ..\..\libs\cpu\libplatform.a(spiflash.o)
 .com_text.spiflash.byte_addr
                0x0000000000000000      0x164 ..\..\libs\cpu\libplatform.a(spiflash.o)
 .com_text.spiflash.erase_32k
                0x0000000000000000       0x50 ..\..\libs\cpu\libplatform.a(spiflash.o)
 .com_text.spiflash.erase_32k.byte_addr
                0x0000000000000000       0x48 ..\..\libs\cpu\libplatform.a(spiflash.o)
 .com_text.spiflash.erase_64k
                0x0000000000000000       0x50 ..\..\libs\cpu\libplatform.a(spiflash.o)
 .com_text.spiflash.erase_64k.byte_addr
                0x0000000000000000       0x48 ..\..\libs\cpu\libplatform.a(spiflash.o)
 .btmem.spi     0x0000000000000000       0x1c ..\..\libs\cpu\libplatform.a(spiflash.o)
 .text          0x0000000000000000        0x0 ..\..\libs\cpu\libplatform.a(debug.o)
 .data          0x0000000000000000        0x0 ..\..\libs\cpu\libplatform.a(debug.o)
 .bss           0x0000000000000000        0x0 ..\..\libs\cpu\libplatform.a(debug.o)
 .text.debug_dump_info_nanos_schedule
                0x0000000000000000        0x2 ..\..\libs\cpu\libplatform.a(debug.o)
 .text.debug_dump_info_nanos_timer
                0x0000000000000000        0x2 ..\..\libs\cpu\libplatform.a(debug.o)
 .text          0x0000000000000000        0x0 ..\..\libs\cpu\libplatform.a(fot_pack.o)
 .data          0x0000000000000000        0x0 ..\..\libs\cpu\libplatform.a(fot_pack.o)
 .bss           0x0000000000000000        0x0 ..\..\libs\cpu\libplatform.a(fot_pack.o)
 .text          0x0000000000000000        0x0 ..\..\libs\cpu\libplatform.a(key.o)
 .data          0x0000000000000000        0x0 ..\..\libs\cpu\libplatform.a(key.o)
 .bss           0x0000000000000000        0x0 ..\..\libs\cpu\libplatform.a(key.o)
 .text          0x0000000000000000        0x0 ..\..\libs\cpu\libplatform.a(lock.o)
 .data          0x0000000000000000        0x0 ..\..\libs\cpu\libplatform.a(lock.o)
 .bss           0x0000000000000000        0x0 ..\..\libs\cpu\libplatform.a(lock.o)
 .rodata.lock_code_usbdev.str1.4
                0x0000000000000000       0x16 ..\..\libs\cpu\libplatform.a(lock.o)
 .text.lock_code_usbdev
                0x0000000000000000       0x54 ..\..\libs\cpu\libplatform.a(lock.o)
 .text.unlock_code_usbdev
                0x0000000000000000       0x38 ..\..\libs\cpu\libplatform.a(lock.o)
 .rodata.lock_code_alg.str1.4
                0x0000000000000000       0x1f ..\..\libs\cpu\libplatform.a(lock.o)
 .text.lock_code_alg
                0x0000000000000000       0x60 ..\..\libs\cpu\libplatform.a(lock.o)
 .text.unlock_code_alg
                0x0000000000000000       0x38 ..\..\libs\cpu\libplatform.a(lock.o)
 .text          0x0000000000000000        0x0 ..\..\libs\cpu\libplatform.a(patch.o)
 .data          0x0000000000000000        0x0 ..\..\libs\cpu\libplatform.a(patch.o)
 .bss           0x0000000000000000        0x0 ..\..\libs\cpu\libplatform.a(patch.o)
 .text          0x0000000000000000        0x0 ..\..\libs\cpu\libplatform.a(s_sys.o)
 .data          0x0000000000000000        0x0 ..\..\libs\cpu\libplatform.a(s_sys.o)
 .bss           0x0000000000000000        0x0 ..\..\libs\cpu\libplatform.a(s_sys.o)
 .text          0x0000000000000000        0x0 ..\..\libs\cpu\libplatform.a(sleep.o)
 .data          0x0000000000000000        0x0 ..\..\libs\cpu\libplatform.a(sleep.o)
 .bss           0x0000000000000000        0x0 ..\..\libs\cpu\libplatform.a(sleep.o)
 .text          0x0000000000000000        0x0 ..\..\libs\cpu\libplatform.a(sys.o)
 .data          0x0000000000000000        0x0 ..\..\libs\cpu\libplatform.a(sys.o)
 .bss           0x0000000000000000        0x0 ..\..\libs\cpu\libplatform.a(sys.o)
 .text.dbg_clk_out
                0x0000000000000000       0x46 ..\..\libs\cpu\libplatform.a(sys.o)
 .text.sys_get_rand_key
                0x0000000000000000       0x6c ..\..\libs\cpu\libplatform.a(sys.o)
 .text.bt_restore_xosc_cap
                0x0000000000000000        0x8 ..\..\libs\cpu\libplatform.a(sys.o)
 .text.__divdi3
                0x0000000000000000       0x5c ..\..\libs\cpu\libplatform.a(sys.o)
 .text.__umoddi3
                0x0000000000000000       0x30 ..\..\libs\cpu\libplatform.a(sys.o)
 .text.get_random
                0x0000000000000000       0x26 ..\..\libs\cpu\libplatform.a(sys.o)
 .text.random_init
                0x0000000000000000        0xa ..\..\libs\cpu\libplatform.a(sys.o)
 .com_text.sys  0x0000000000000000       0x1e ..\..\libs\cpu\libplatform.a(sys.o)
 .text.sw_reset_source_get
                0x0000000000000000       0x2a ..\..\libs\cpu\libplatform.a(sys.o)
 .text          0x0000000000000000        0x0 ..\..\libs\cpu\libplatform.a(sys_clk.o)
 .data          0x0000000000000000        0x0 ..\..\libs\cpu\libplatform.a(sys_clk.o)
 .bss           0x0000000000000000        0x0 ..\..\libs\cpu\libplatform.a(sys_clk.o)
 .text.periph_cacl_clkdiv
                0x0000000000000000        0x2 ..\..\libs\cpu\libplatform.a(sys_clk.o)
 .text.sys_clk_lower_limit_lock
                0x0000000000000000       0x84 ..\..\libs\cpu\libplatform.a(sys_clk.o)
 .text.sys_clk_lower_limit_unlock
                0x0000000000000000       0x6c ..\..\libs\cpu\libplatform.a(sys_clk.o)
 .text.sys_clk_lower_limit_all_unlock
                0x0000000000000000       0x50 ..\..\libs\cpu\libplatform.a(sys_clk.o)
 .sbss.cfg_spiflash_speed_up_en
                0x0000000000000000        0x1 ..\..\libs\cpu\libplatform.a(sys_clk.o)
 .srodata.rtc_clk_div_coef
                0x0000000000000000        0x4 ..\..\libs\cpu\libplatform.a(sys_clk.o)
 .text          0x0000000000000000        0x0 ..\..\libs\cpu\libplatform.a(voltage_trim.o)
 .data          0x0000000000000000        0x0 ..\..\libs\cpu\libplatform.a(voltage_trim.o)
 .bss           0x0000000000000000        0x0 ..\..\libs\cpu\libplatform.a(voltage_trim.o)
 .rodata.voltage_trim_value_dump.str1.4
                0x0000000000000000       0xa1 ..\..\libs\cpu\libplatform.a(voltage_trim.o)
 .text.voltage_trim_value_dump
                0x0000000000000000       0xf8 ..\..\libs\cpu\libplatform.a(voltage_trim.o)
 .text          0x0000000000000000        0x0 ..\..\libs\cpu\libplatform.a(weak_symbol.o)
 .data          0x0000000000000000        0x0 ..\..\libs\cpu\libplatform.a(weak_symbol.o)
 .bss           0x0000000000000000        0x0 ..\..\libs\cpu\libplatform.a(weak_symbol.o)
 .text.xosc_get_xcfg
                0x0000000000000000        0x2 ..\..\libs\cpu\libplatform.a(weak_symbol.o)
 .text.param_xosc_read
                0x0000000000000000        0x2 ..\..\libs\cpu\libplatform.a(weak_symbol.o)
 .text.param_xosc_write
                0x0000000000000000        0x2 ..\..\libs\cpu\libplatform.a(weak_symbol.o)
 .text.sys_clk_change_callback
                0x0000000000000000        0x2 ..\..\libs\cpu\libplatform.a(weak_symbol.o)
 .text.uart_debug_init_callback
                0x0000000000000000        0x2 ..\..\libs\cpu\libplatform.a(weak_symbol.o)
 .text.dongle_alg_tbl_get
                0x0000000000000000        0x4 ..\..\libs\cpu\libplatform.a(weak_symbol.o)
 .text.dongle_soft_key_get
                0x0000000000000000        0x4 ..\..\libs\cpu\libplatform.a(weak_symbol.o)
 .text.bb_run_loop
                0x0000000000000000        0x2 ..\..\libs\cpu\libplatform.a(weak_symbol.o)
 .text.nanos_var_init
                0x0000000000000000       0x1c ..\..\libs\cpu\libplatform.a(weak_symbol.o)
 .text.btstack_message
                0x0000000000000000        0x4 ..\..\libs\cpu\libplatform.a(weak_symbol.o)
 .com_text.stack.api
                0x0000000000000000        0x4 ..\..\libs\cpu\libplatform.a(weak_symbol.o)
 .com_text.ret.stack.thread
                0x0000000000000000        0x2 ..\..\libs\cpu\libplatform.a(weak_symbol.o)
 .com_text.bb.isr
                0x0000000000000000        0x2 ..\..\libs\cpu\libplatform.a(weak_symbol.o)
 .com_text.isr  0x0000000000000000        0x2 ..\..\libs\cpu\libplatform.a(weak_symbol.o)
 .text.btstack_var_init
                0x0000000000000000        0x2 ..\..\libs\cpu\libplatform.a(weak_symbol.o)
 .com_text.stack.run_loop
                0x0000000000000000        0x2 ..\..\libs\cpu\libplatform.a(weak_symbol.o)
 .text.bb_patch_init
                0x0000000000000000        0x4 ..\..\libs\cpu\libplatform.a(weak_symbol.o)
 .text.bb_nanos_mem_init
                0x0000000000000000        0x2 ..\..\libs\cpu\libplatform.a(weak_symbol.o)
 .bss.heap_buf  0x0000000000000000       0x14 ..\..\libs\cpu\libplatform.a(weak_symbol.o)
 .bss.heap_size_buf
                0x0000000000000000        0xa ..\..\libs\cpu\libplatform.a(weak_symbol.o)
 .sbss.cfg_bt_work_mode
                0x0000000000000000        0x1 ..\..\libs\cpu\libplatform.a(weak_symbol.o)
 .text          0x0000000000000000        0x0 ..\..\libs\cpu\libplatform.a(sddac.o)
 .data          0x0000000000000000        0x0 ..\..\libs\cpu\libplatform.a(sddac.o)
 .bss           0x0000000000000000        0x0 ..\..\libs\cpu\libplatform.a(sddac.o)
 .text.sddac_done_callback_set
                0x0000000000000000        0xc ..\..\libs\cpu\libplatform.a(sddac.o)
 .com_text.sddac.done
                0x0000000000000000        0xe ..\..\libs\cpu\libplatform.a(sddac.o)
 .com_text.irq.sddac
                0x0000000000000000       0x2a ..\..\libs\cpu\libplatform.a(sddac.o)
 .sbss.p_sddac_done
                0x0000000000000000        0x4 ..\..\libs\cpu\libplatform.a(sddac.o)
 .comment       0x0000000000000000       0x13 ..\..\libs\cpu\libplatform.a(sddac.o)
 .riscv.attributes
                0x0000000000000000       0x32 ..\..\libs\cpu\libplatform.a(sddac.o)
 .text          0x0000000000000000        0x0 ..\..\libs\cpu\libplatform.a(bt.o)
 .data          0x0000000000000000        0x0 ..\..\libs\cpu\libplatform.a(bt.o)
 .bss           0x0000000000000000        0x0 ..\..\libs\cpu\libplatform.a(bt.o)
 .com_text.bthw
                0x0000000000000000        0x4 ..\..\libs\cpu\libplatform.a(bt.o)
 .text          0x0000000000000000        0x0 ..\..\libs\cpu\libplatform.a(crc.o)
 .data          0x0000000000000000        0x0 ..\..\libs\cpu\libplatform.a(crc.o)
 .bss           0x0000000000000000        0x0 ..\..\libs\cpu\libplatform.a(crc.o)
 .text.calc_crc16
                0x0000000000000000       0x2a ..\..\libs\cpu\libplatform.a(crc.o)
 .com_text.crc8
                0x0000000000000000       0x28 ..\..\libs\cpu\libplatform.a(crc.o)
 .com_rodata.crc.tbl
                0x0000000000000000      0x100 ..\..\libs\cpu\libplatform.a(crc.o)
 .rodata.crc.tbl
                0x0000000000000000      0x200 ..\..\libs\cpu\libplatform.a(crc.o)
 .text          0x0000000000000000      0x5ba ..\..\libs\cpu\libgcc.a(divdf3.o)
 .data          0x0000000000000000        0x0 ..\..\libs\cpu\libgcc.a(divdf3.o)
 .bss           0x0000000000000000        0x0 ..\..\libs\cpu\libgcc.a(divdf3.o)
 .rodata        0x0000000000000000       0x40 ..\..\libs\cpu\libgcc.a(divdf3.o)
 .debug_info    0x0000000000000000      0x72e ..\..\libs\cpu\libgcc.a(divdf3.o)
 .debug_abbrev  0x0000000000000000      0x173 ..\..\libs\cpu\libgcc.a(divdf3.o)
 .debug_loc     0x0000000000000000     0x1a3e ..\..\libs\cpu\libgcc.a(divdf3.o)
 .debug_aranges
                0x0000000000000000       0x20 ..\..\libs\cpu\libgcc.a(divdf3.o)
 .debug_ranges  0x0000000000000000      0x230 ..\..\libs\cpu\libgcc.a(divdf3.o)
 .debug_line    0x0000000000000000     0x111f ..\..\libs\cpu\libgcc.a(divdf3.o)
 .debug_str     0x0000000000000000      0x3ae ..\..\libs\cpu\libgcc.a(divdf3.o)
 .comment       0x0000000000000000       0x13 ..\..\libs\cpu\libgcc.a(divdf3.o)
 .debug_frame   0x0000000000000000       0x54 ..\..\libs\cpu\libgcc.a(divdf3.o)
 .riscv.attributes
                0x0000000000000000       0x26 ..\..\libs\cpu\libgcc.a(divdf3.o)
 .text          0x0000000000000000      0x49e ..\..\libs\cpu\libgcc.a(muldf3.o)
 .data          0x0000000000000000        0x0 ..\..\libs\cpu\libgcc.a(muldf3.o)
 .bss           0x0000000000000000        0x0 ..\..\libs\cpu\libgcc.a(muldf3.o)
 .rodata        0x0000000000000000       0x40 ..\..\libs\cpu\libgcc.a(muldf3.o)
 .debug_info    0x0000000000000000      0x762 ..\..\libs\cpu\libgcc.a(muldf3.o)
 .debug_abbrev  0x0000000000000000      0x185 ..\..\libs\cpu\libgcc.a(muldf3.o)
 .debug_loc     0x0000000000000000      0xf11 ..\..\libs\cpu\libgcc.a(muldf3.o)
 .debug_aranges
                0x0000000000000000       0x20 ..\..\libs\cpu\libgcc.a(muldf3.o)
 .debug_ranges  0x0000000000000000      0x290 ..\..\libs\cpu\libgcc.a(muldf3.o)
 .debug_line    0x0000000000000000      0xf06 ..\..\libs\cpu\libgcc.a(muldf3.o)
 .debug_str     0x0000000000000000      0x406 ..\..\libs\cpu\libgcc.a(muldf3.o)
 .comment       0x0000000000000000       0x13 ..\..\libs\cpu\libgcc.a(muldf3.o)
 .debug_frame   0x0000000000000000       0x54 ..\..\libs\cpu\libgcc.a(muldf3.o)
 .riscv.attributes
                0x0000000000000000       0x26 ..\..\libs\cpu\libgcc.a(muldf3.o)
 .text          0x0000000000000000       0x62 ..\..\libs\cpu\libgcc.a(fixunsdfsi.o)
 .data          0x0000000000000000        0x0 ..\..\libs\cpu\libgcc.a(fixunsdfsi.o)
 .bss           0x0000000000000000        0x0 ..\..\libs\cpu\libgcc.a(fixunsdfsi.o)
 .debug_info    0x0000000000000000      0x1d2 ..\..\libs\cpu\libgcc.a(fixunsdfsi.o)
 .debug_abbrev  0x0000000000000000      0x15e ..\..\libs\cpu\libgcc.a(fixunsdfsi.o)
 .debug_loc     0x0000000000000000       0xf4 ..\..\libs\cpu\libgcc.a(fixunsdfsi.o)
 .debug_aranges
                0x0000000000000000       0x20 ..\..\libs\cpu\libgcc.a(fixunsdfsi.o)
 .debug_ranges  0x0000000000000000       0x20 ..\..\libs\cpu\libgcc.a(fixunsdfsi.o)
 .debug_line    0x0000000000000000      0x1b4 ..\..\libs\cpu\libgcc.a(fixunsdfsi.o)
 .debug_str     0x0000000000000000      0x1f9 ..\..\libs\cpu\libgcc.a(fixunsdfsi.o)
 .comment       0x0000000000000000       0x13 ..\..\libs\cpu\libgcc.a(fixunsdfsi.o)
 .debug_frame   0x0000000000000000       0x20 ..\..\libs\cpu\libgcc.a(fixunsdfsi.o)
 .riscv.attributes
                0x0000000000000000       0x26 ..\..\libs\cpu\libgcc.a(fixunsdfsi.o)
 .text          0x0000000000000000       0x74 ..\..\libs\cpu\libgcc.a(floatsidf.o)
 .data          0x0000000000000000        0x0 ..\..\libs\cpu\libgcc.a(floatsidf.o)
 .bss           0x0000000000000000        0x0 ..\..\libs\cpu\libgcc.a(floatsidf.o)
 .debug_info    0x0000000000000000      0x29b ..\..\libs\cpu\libgcc.a(floatsidf.o)
 .debug_abbrev  0x0000000000000000      0x164 ..\..\libs\cpu\libgcc.a(floatsidf.o)
 .debug_loc     0x0000000000000000      0x240 ..\..\libs\cpu\libgcc.a(floatsidf.o)
 .debug_aranges
                0x0000000000000000       0x20 ..\..\libs\cpu\libgcc.a(floatsidf.o)
 .debug_ranges  0x0000000000000000       0xd0 ..\..\libs\cpu\libgcc.a(floatsidf.o)
 .debug_line    0x0000000000000000      0x29e ..\..\libs\cpu\libgcc.a(floatsidf.o)
 .debug_str     0x0000000000000000      0x299 ..\..\libs\cpu\libgcc.a(floatsidf.o)
 .comment       0x0000000000000000       0x13 ..\..\libs\cpu\libgcc.a(floatsidf.o)
 .debug_frame   0x0000000000000000       0x38 ..\..\libs\cpu\libgcc.a(floatsidf.o)
 .riscv.attributes
                0x0000000000000000       0x26 ..\..\libs\cpu\libgcc.a(floatsidf.o)
 .text          0x0000000000000000       0x74 ..\..\libs\cpu\libgcc.a(floatunsidf.o)
 .data          0x0000000000000000        0x0 ..\..\libs\cpu\libgcc.a(floatunsidf.o)
 .bss           0x0000000000000000        0x0 ..\..\libs\cpu\libgcc.a(floatunsidf.o)
 .debug_info    0x0000000000000000      0x28b ..\..\libs\cpu\libgcc.a(floatunsidf.o)
 .debug_abbrev  0x0000000000000000      0x175 ..\..\libs\cpu\libgcc.a(floatunsidf.o)
 .debug_loc     0x0000000000000000      0x1d5 ..\..\libs\cpu\libgcc.a(floatunsidf.o)
 .debug_aranges
                0x0000000000000000       0x20 ..\..\libs\cpu\libgcc.a(floatunsidf.o)
 .debug_ranges  0x0000000000000000       0xc0 ..\..\libs\cpu\libgcc.a(floatunsidf.o)
 .debug_line    0x0000000000000000      0x37e ..\..\libs\cpu\libgcc.a(floatunsidf.o)
 .debug_str     0x0000000000000000      0x296 ..\..\libs\cpu\libgcc.a(floatunsidf.o)
 .comment       0x0000000000000000       0x13 ..\..\libs\cpu\libgcc.a(floatunsidf.o)
 .debug_frame   0x0000000000000000       0x44 ..\..\libs\cpu\libgcc.a(floatunsidf.o)
 .riscv.attributes
                0x0000000000000000       0x26 ..\..\libs\cpu\libgcc.a(floatunsidf.o)
 .text          0x0000000000000000       0x76 ..\..\libs\cpu\libgcc.a(_clzsi2.o)
 .data          0x0000000000000000        0x0 ..\..\libs\cpu\libgcc.a(_clzsi2.o)
 .bss           0x0000000000000000        0x0 ..\..\libs\cpu\libgcc.a(_clzsi2.o)
 .debug_info    0x0000000000000000      0x132 ..\..\libs\cpu\libgcc.a(_clzsi2.o)
 .debug_abbrev  0x0000000000000000       0xb9 ..\..\libs\cpu\libgcc.a(_clzsi2.o)
 .debug_loc     0x0000000000000000       0xd8 ..\..\libs\cpu\libgcc.a(_clzsi2.o)
 .debug_aranges
                0x0000000000000000       0x20 ..\..\libs\cpu\libgcc.a(_clzsi2.o)
 .debug_ranges  0x0000000000000000       0x30 ..\..\libs\cpu\libgcc.a(_clzsi2.o)
 .debug_line    0x0000000000000000      0x14d ..\..\libs\cpu\libgcc.a(_clzsi2.o)
 .debug_str     0x0000000000000000      0x1da ..\..\libs\cpu\libgcc.a(_clzsi2.o)
 .comment       0x0000000000000000       0x13 ..\..\libs\cpu\libgcc.a(_clzsi2.o)
 .debug_frame   0x0000000000000000       0x20 ..\..\libs\cpu\libgcc.a(_clzsi2.o)
 .riscv.attributes
                0x0000000000000000       0x26 ..\..\libs\cpu\libgcc.a(_clzsi2.o)
 .text          0x0000000000000000        0x0 ..\..\libs\cpu\libgcc.a(_clz.o)
 .data          0x0000000000000000        0x0 ..\..\libs\cpu\libgcc.a(_clz.o)
 .bss           0x0000000000000000        0x0 ..\..\libs\cpu\libgcc.a(_clz.o)
 .rodata        0x0000000000000000      0x100 ..\..\libs\cpu\libgcc.a(_clz.o)
 .debug_info    0x0000000000000000       0xc9 ..\..\libs\cpu\libgcc.a(_clz.o)
 .debug_abbrev  0x0000000000000000       0x70 ..\..\libs\cpu\libgcc.a(_clz.o)
 .debug_aranges
                0x0000000000000000       0x18 ..\..\libs\cpu\libgcc.a(_clz.o)
 .debug_line    0x0000000000000000       0x5d ..\..\libs\cpu\libgcc.a(_clz.o)
 .debug_str     0x0000000000000000      0x1bd ..\..\libs\cpu\libgcc.a(_clz.o)
 .comment       0x0000000000000000       0x13 ..\..\libs\cpu\libgcc.a(_clz.o)
 .riscv.attributes
                0x0000000000000000       0x26 ..\..\libs\cpu\libgcc.a(_clz.o)
 .data          0x0000000000000000        0x0 ..\..\libs\ble\libbtstack.a(txpkt.o)
 .bss           0x0000000000000000        0x0 ..\..\libs\ble\libbtstack.a(txpkt.o)
 .com_text.txpkt.full_check
                0x0000000000000000       0x1c ..\..\libs\ble\libbtstack.a(txpkt.o)
 .com_text.txpkt.avail_check
                0x0000000000000000       0x16 ..\..\libs\ble\libbtstack.a(txpkt.o)
 .com_text.txpkt.server_kick
                0x0000000000000000        0xc ..\..\libs\ble\libbtstack.a(txpkt.o)
 .com_text.txpkt.client_kick
                0x0000000000000000        0xc ..\..\libs\ble\libbtstack.a(txpkt.o)
 .text          0x0000000000000000      0x9a8 ..\..\libs\ble\libbtstack.a(sm.o)
 .data          0x0000000000000000        0x0 ..\..\libs\ble\libbtstack.a(sm.o)
 .rodata.str1.4
                0x0000000000000000       0x50 ..\..\libs\ble\libbtstack.a(sm.o)
 .text.sm.request
                0x0000000000000000       0xb4 ..\..\libs\ble\libbtstack.a(sm.o)
 .text.sm.cmac  0x0000000000000000       0x82 ..\..\libs\ble\libbtstack.a(sm.o)
 .text.sm.er    0x0000000000000000       0x14 ..\..\libs\ble\libbtstack.a(sm.o)
 .text.sm.ir    0x0000000000000000       0x14 ..\..\libs\ble\libbtstack.a(sm.o)
 .text.stack.ble.sm
                0x0000000000000000      0x182 ..\..\libs\ble\libbtstack.a(sm.o)
 .text.sm.key_size
                0x0000000000000000       0x2c ..\..\libs\ble\libbtstack.a(sm.o)
 .text.sm.auth  0x0000000000000000       0x2c ..\..\libs\ble\libbtstack.a(sm.o)
 .text.sm.pairing
                0x0000000000000000       0x30 ..\..\libs\ble\libbtstack.a(sm.o)
 .text.sm.bonding_decline
                0x0000000000000000       0x60 ..\..\libs\ble\libbtstack.a(sm.o)
 .text.sm.confirm
                0x0000000000000000       0x38 ..\..\libs\ble\libbtstack.a(sm.o)
 .text.sm.passkey.set
                0x0000000000000000       0x3e ..\..\libs\ble\libbtstack.a(sm.o)
 .text.sm.passkey.get
                0x0000000000000000       0x2e ..\..\libs\ble\libbtstack.a(sm.o)
 .text.sm.passkey.input
                0x0000000000000000       0x58 ..\..\libs\ble\libbtstack.a(sm.o)
 .text.sm.nc_exch
                0x0000000000000000        0x8 ..\..\libs\ble\libbtstack.a(sm.o)
 .text.sm.identity_resolving_state
                0x0000000000000000       0x20 ..\..\libs\ble\libbtstack.a(sm.o)
 .text.gap.addr
                0x0000000000000000        0xa ..\..\libs\ble\libbtstack.a(sm.o)
 .text.sm.run   0x0000000000000000      0xc78 ..\..\libs\ble\libbtstack.a(sm.o)
 .text.sm.pdu   0x0000000000000000      0x2cc ..\..\libs\ble\libbtstack.a(sm.o)
 .text.sm.event
                0x0000000000000000      0xa70 ..\..\libs\ble\libbtstack.a(sm.o)
 .com_text.sm.event
                0x0000000000000000       0x6c ..\..\libs\ble\libbtstack.a(sm.o)
 .text.sm.reconnect
                0x0000000000000000       0x58 ..\..\libs\ble\libbtstack.a(sm.o)
 .text.sm.irk_get
                0x0000000000000000        0xa ..\..\libs\ble\libbtstack.a(sm.o)
 .text.sm.delete_bonding
                0x0000000000000000       0x6e ..\..\libs\ble\libbtstack.a(sm.o)
 .rodata        0x0000000000000000       0x64 ..\..\libs\ble\libbtstack.a(sm.o)
 .ble_cache.sm  0x0000000000000000        0x8 ..\..\libs\ble\libbtstack.a(sm.o)
 .ble_cache.sm.auth
                0x0000000000000000        0x1 ..\..\libs\ble\libbtstack.a(sm.o)
 .ble_cache.sm.cmac
                0x0000000000000000       0x45 ..\..\libs\ble\libbtstack.a(sm.o)
 .ble_cache.sm.dhk
                0x0000000000000000       0x10 ..\..\libs\ble\libbtstack.a(sm.o)
 .ble_cache.sm.er
                0x0000000000000000       0x10 ..\..\libs\ble\libbtstack.a(sm.o)
 .ble_cache.sm.io
                0x0000000000000000        0x1 ..\..\libs\ble\libbtstack.a(sm.o)
 .ble_cache.sm.ir
                0x0000000000000000       0x10 ..\..\libs\ble\libbtstack.a(sm.o)
 .ble_cache.sm.req
                0x0000000000000000        0x1 ..\..\libs\ble\libbtstack.a(sm.o)
 .ble_cache.sm.resolution
                0x0000000000000000       0x18 ..\..\libs\ble\libbtstack.a(sm.o)
 .ble_cache.sm.setup
                0x0000000000000000      0x100 ..\..\libs\ble\libbtstack.a(sm.o)
 .sdata         0x0000000000000000        0x2 ..\..\libs\ble\libbtstack.a(sm.o)
 .text          0x0000000000000000       0x44 ..\..\libs\ble\libbtstack.a(le_device_db_memory.o)
 .data          0x0000000000000000        0x0 ..\..\libs\ble\libbtstack.a(le_device_db_memory.o)
 .bss           0x0000000000000000        0x0 ..\..\libs\ble\libbtstack.a(le_device_db_memory.o)
 .text.le.db.get
                0x0000000000000000       0x34 ..\..\libs\ble\libbtstack.a(le_device_db_memory.o)
 .text.le.db.set
                0x0000000000000000      0x192 ..\..\libs\ble\libbtstack.a(le_device_db_memory.o)
 .text.le.db.remove
                0x0000000000000000       0xac ..\..\libs\ble\libbtstack.a(le_device_db_memory.o)
 .text.le.db.remove_all
                0x0000000000000000       0x58 ..\..\libs\ble\libbtstack.a(le_device_db_memory.o)
 .rodata.str1.4
                0x0000000000000000        0x4 ..\..\libs\ble\libbtstack.a(le_device_db_memory.o)
 .text.le.db.add
                0x0000000000000000       0xe0 ..\..\libs\ble\libbtstack.a(le_device_db_memory.o)
 .text.le.db    0x0000000000000000      0x19a ..\..\libs\ble\libbtstack.a(le_device_db_memory.o)
 .text.le.db.dump
                0x0000000000000000       0x62 ..\..\libs\ble\libbtstack.a(le_device_db_memory.o)
 .text.le.db.get_index
                0x0000000000000000       0x1c ..\..\libs\ble\libbtstack.a(le_device_db_memory.o)
 .data          0x0000000000000000        0x0 ..\..\libs\ble\libbtstack.a(gatt_server.o)
 .bss           0x0000000000000000        0x0 ..\..\libs\ble\libbtstack.a(gatt_server.o)
 .text.stack.send.ntf_kick
                0x0000000000000000        0x8 ..\..\libs\ble\libbtstack.a(gatt_server.o)
 .text          0x0000000000000000     0x1ee8 ..\..\libs\ble\libbtstack.a(gatt_client.o)
 .data          0x0000000000000000        0x0 ..\..\libs\ble\libbtstack.a(gatt_client.o)
 .bss           0x0000000000000000        0x0 ..\..\libs\ble\libbtstack.a(gatt_client.o)
 .text.client.set.sm_level
                0x0000000000000000        0xa ..\..\libs\ble\libbtstack.a(gatt_client.o)
 .text.client.write_req
                0x0000000000000000       0x80 ..\..\libs\ble\libbtstack.a(gatt_client.o)
 .text.client.stop_listening
                0x0000000000000000       0x12 ..\..\libs\ble\libbtstack.a(gatt_client.o)
 .text.sm.client
                0x0000000000000000      0x1a4 ..\..\libs\ble\libbtstack.a(gatt_client.o)
 .text.client.deserialize_service
                0x0000000000000000       0x5c ..\..\libs\ble\libbtstack.a(gatt_client.o)
 .text.client.deserialize_characteristic
                0x0000000000000000       0x6c ..\..\libs\ble\libbtstack.a(gatt_client.o)
 .text.client.deserialize_characteristic_descriptor
                0x0000000000000000       0x4e ..\..\libs\ble\libbtstack.a(gatt_client.o)
 .text.client.get_character_uuid16
                0x0000000000000000       0x22 ..\..\libs\ble\libbtstack.a(gatt_client.o)
 .text.client.get_character_uuid128
                0x0000000000000000       0x42 ..\..\libs\ble\libbtstack.a(gatt_client.o)
 .text.client.write_cmd
                0x0000000000000000       0x24 ..\..\libs\ble\libbtstack.a(gatt_client.o)
 .text.client.read_req
                0x0000000000000000       0x22 ..\..\libs\ble\libbtstack.a(gatt_client.o)
 .text.client.read_blob
                0x0000000000000000       0x22 ..\..\libs\ble\libbtstack.a(gatt_client.o)
 .text.client.read_report_ref
                0x0000000000000000       0x22 ..\..\libs\ble\libbtstack.a(gatt_client.o)
 .text.client.send
                0x0000000000000000       0xbe ..\..\libs\ble\libbtstack.a(gatt_client.o)
 .text.client.find_services
                0x0000000000000000       0x5e ..\..\libs\ble\libbtstack.a(gatt_client.o)
 .text.client.discover_secondary_services
                0x0000000000000000       0x4c ..\..\libs\ble\libbtstack.a(gatt_client.o)
 .text.client.find_services_uuid16
                0x0000000000000000       0x6a ..\..\libs\ble\libbtstack.a(gatt_client.o)
 .text.client.find_services_uuid128
                0x0000000000000000       0x6e ..\..\libs\ble\libbtstack.a(gatt_client.o)
 .text.client.find_character
                0x0000000000000000       0x6a ..\..\libs\ble\libbtstack.a(gatt_client.o)
 .text.client.find_included_services
                0x0000000000000000       0x4e ..\..\libs\ble\libbtstack.a(gatt_client.o)
 .text.client.find_character_uuid16
                0x0000000000000000       0x90 ..\..\libs\ble\libbtstack.a(gatt_client.o)
 .text.client.find_character_uuid128
                0x0000000000000000       0x92 ..\..\libs\ble\libbtstack.a(gatt_client.o)
 .text.client.discover_characteristic_descriptors
                0x0000000000000000       0x5e ..\..\libs\ble\libbtstack.a(gatt_client.o)
 .text.client.read_value
                0x0000000000000000        0xc ..\..\libs\ble\libbtstack.a(gatt_client.o)
 .text.client.read_value_uuid16
                0x0000000000000000       0x66 ..\..\libs\ble\libbtstack.a(gatt_client.o)
 .text.client.read_value_uuid128
                0x0000000000000000       0x68 ..\..\libs\ble\libbtstack.a(gatt_client.o)
 .text.client.read_long_value_offset
                0x0000000000000000       0x4a ..\..\libs\ble\libbtstack.a(gatt_client.o)
 .text.client.read_long_value
                0x0000000000000000       0x16 ..\..\libs\ble\libbtstack.a(gatt_client.o)
 .text.client.read_multiple
                0x0000000000000000       0x48 ..\..\libs\ble\libbtstack.a(gatt_client.o)
 .text.client.write_long_value
                0x0000000000000000       0x62 ..\..\libs\ble\libbtstack.a(gatt_client.o)
 .text.client.reliable_write_long
                0x0000000000000000       0x52 ..\..\libs\ble\libbtstack.a(gatt_client.o)
 .text.client.read_characteristic
                0x0000000000000000       0x50 ..\..\libs\ble\libbtstack.a(gatt_client.o)
 .text.client.read_long_characteristic_descriptor
                0x0000000000000000       0x62 ..\..\libs\ble\libbtstack.a(gatt_client.o)
 .text.client.write_character_desc
                0x0000000000000000       0x60 ..\..\libs\ble\libbtstack.a(gatt_client.o)
 .text.client.write_long_character_desc
                0x0000000000000000       0x70 ..\..\libs\ble\libbtstack.a(gatt_client.o)
 .text.client.prepare_write
                0x0000000000000000       0x56 ..\..\libs\ble\libbtstack.a(gatt_client.o)
 .text.client.execute_write
                0x0000000000000000       0x3c ..\..\libs\ble\libbtstack.a(gatt_client.o)
 .text.client.cancel_write
                0x0000000000000000       0x3c ..\..\libs\ble\libbtstack.a(gatt_client.o)
 .rodata        0x0000000000000000       0x14 ..\..\libs\ble\libbtstack.a(gatt_client.o)
 .ble_buf.read  0x0000000000000000        0x6 ..\..\libs\ble\libbtstack.a(gatt_client.o)
 .sbss          0x0000000000000000        0x4 ..\..\libs\ble\libbtstack.a(gatt_client.o)
 .data          0x0000000000000000        0x0 ..\..\libs\ble\libbtstack.a(att_server.o)
 .bss           0x0000000000000000        0x0 ..\..\libs\ble\libbtstack.a(att_server.o)
 .text.sm.server
                0x0000000000000000      0x210 ..\..\libs\ble\libbtstack.a(att_server.o)
 .data          0x0000000000000000        0x0 ..\..\libs\ble\libbtstack.a(att_dispatch.o)
 .bss           0x0000000000000000        0x0 ..\..\libs\ble\libbtstack.a(att_dispatch.o)
 .text.att.register_client
                0x0000000000000000       0x1a ..\..\libs\ble\libbtstack.a(att_dispatch.o)
 .text.att.client_mtu
                0x0000000000000000       0x36 ..\..\libs\ble\libbtstack.a(att_dispatch.o)
 .data          0x0000000000000000        0x0 ..\..\libs\ble\libbtstack.a(att_db.o)
 .bss           0x0000000000000000        0x0 ..\..\libs\ble\libbtstack.a(att_db.o)
 .text.att.dump
                0x0000000000000000       0x5c ..\..\libs\ble\libbtstack.a(att_db.o)
 .text.gatt.get_client_config
                0x0000000000000000      0x122 ..\..\libs\ble\libbtstack.a(att_db.o)
 .data          0x0000000000000000        0x0 ..\..\libs\ble\libbtstack.a(btstack_api.o)
 .bss           0x0000000000000000        0xe ..\..\libs\ble\libbtstack.a(btstack_api.o)
 .text          0x0000000000000000       0x28 ..\..\libs\ble\libbtstack.a(bt_api.o)
 .data          0x0000000000000000        0x0 ..\..\libs\ble\libbtstack.a(bt_api.o)
 .bss           0x0000000000000000        0x0 ..\..\libs\ble\libbtstack.a(bt_api.o)
 .com_text.bt.timer
                0x0000000000000000       0x10 ..\..\libs\ble\libbtstack.a(bt_api.o)
 .text          0x0000000000000000        0x4 ..\..\libs\ble\libbtstack.a(ble_api.o)
 .data          0x0000000000000000        0x0 ..\..\libs\ble\libbtstack.a(ble_api.o)
 .bss           0x0000000000000000        0x0 ..\..\libs\ble\libbtstack.a(ble_api.o)
 .text.ble.api.max_mtu
                0x0000000000000000       0x2e ..\..\libs\ble\libbtstack.a(ble_api.o)
 .text.ble.api.adv_dis
                0x0000000000000000        0xa ..\..\libs\ble\libbtstack.a(ble_api.o)
 .text.ble.api.adv_en
                0x0000000000000000        0xa ..\..\libs\ble\libbtstack.a(ble_api.o)
 .text.ble.api.adv_is_en
                0x0000000000000000        0x8 ..\..\libs\ble\libbtstack.a(ble_api.o)
 .text.ble.api.ext_adv_dis
                0x0000000000000000        0x2 ..\..\libs\ble\libbtstack.a(ble_api.o)
 .text.ble.api.ext_adv_en
                0x0000000000000000        0x2 ..\..\libs\ble\libbtstack.a(ble_api.o)
 .text.ble.api.discon
                0x0000000000000000        0xe ..\..\libs\ble\libbtstack.a(ble_api.o)
 .text.ble.api.adv_data.set
                0x0000000000000000       0x44 ..\..\libs\ble\libbtstack.a(ble_api.o)
 .text.ble.api.scan
                0x0000000000000000       0x44 ..\..\libs\ble\libbtstack.a(ble_api.o)
 .text.ble.api.conn.update2
                0x0000000000000000        0xa ..\..\libs\ble\libbtstack.a(ble_api.o)
 .text.ble.api.conn.ll_update
                0x0000000000000000        0xa ..\..\libs\ble\libbtstack.a(ble_api.o)
 .text.ble.adv_param.get
                0x0000000000000000        0xa ..\..\libs\ble\libbtstack.a(ble_api.o)
 .text.ble.api.ext_adv_param.set
                0x0000000000000000        0x4 ..\..\libs\ble\libbtstack.a(ble_api.o)
 .text.ble.api.scan.dis
                0x0000000000000000        0x2 ..\..\libs\ble\libbtstack.a(ble_api.o)
 .text.ble.api.scan.en
                0x0000000000000000        0x2 ..\..\libs\ble\libbtstack.a(ble_api.o)
 .text.ble.api.scan.set
                0x0000000000000000        0x4 ..\..\libs\ble\libbtstack.a(ble_api.o)
 .text.ble.api.ext_scan.set
                0x0000000000000000        0x4 ..\..\libs\ble\libbtstack.a(ble_api.o)
 .text.ble.api.ext_conn_do
                0x0000000000000000        0x4 ..\..\libs\ble\libbtstack.a(ble_api.o)
 .text.ble.api.conn_do
                0x0000000000000000        0x4 ..\..\libs\ble\libbtstack.a(ble_api.o)
 .text.ble.api.conn_cancel_do
                0x0000000000000000        0x2 ..\..\libs\ble\libbtstack.a(ble_api.o)
 .text.ble.api.rpa
                0x0000000000000000        0x2 ..\..\libs\ble\libbtstack.a(ble_api.o)
 .text.ble.api.rpa_en
                0x0000000000000000        0x2 ..\..\libs\ble\libbtstack.a(ble_api.o)
 .text.ble.api.rpa_add
                0x0000000000000000        0x2 ..\..\libs\ble\libbtstack.a(ble_api.o)
 .text.ble.api.rpa_dev
                0x0000000000000000        0x2 ..\..\libs\ble\libbtstack.a(ble_api.o)
 .text.ble.api.wlist_add
                0x0000000000000000        0x2 ..\..\libs\ble\libbtstack.a(ble_api.o)
 .text.ble.api.wlist_dev
                0x0000000000000000        0x2 ..\..\libs\ble\libbtstack.a(ble_api.o)
 .text.ble.api.wlist
                0x0000000000000000        0x4 ..\..\libs\ble\libbtstack.a(ble_api.o)
 .text.ble.api.sm.passkey
                0x0000000000000000       0x2c ..\..\libs\ble\libbtstack.a(ble_api.o)
 .text.ble.api.sm_req
                0x0000000000000000        0xe ..\..\libs\ble\libbtstack.a(ble_api.o)
 .text.ble.bond.delete_addr
                0x0000000000000000        0x8 ..\..\libs\ble\libbtstack.a(ble_api.o)
 .text.ble.bond.delete_index
                0x0000000000000000        0x8 ..\..\libs\ble\libbtstack.a(ble_api.o)
 .text.ble.bond.delete_all
                0x0000000000000000        0x8 ..\..\libs\ble\libbtstack.a(ble_api.o)
 .text.ble.bond.get_cnt
                0x0000000000000000       0x1c ..\..\libs\ble\libbtstack.a(ble_api.o)
 .text.ble.bond.get_info
                0x0000000000000000       0x10 ..\..\libs\ble\libbtstack.a(ble_api.o)
 .text.ble.api.get_rssi
                0x0000000000000000        0x8 ..\..\libs\ble\libbtstack.a(ble_api.o)
 .text.ble.set_static_addr
                0x0000000000000000       0x2e ..\..\libs\ble\libbtstack.a(ble_api.o)
 .text.ble.addr_update
                0x0000000000000000        0xa ..\..\libs\ble\libbtstack.a(ble_api.o)
 .text.ble.addr_get
                0x0000000000000000        0xc ..\..\libs\ble\libbtstack.a(ble_api.o)
 .text.ble_fcc.cfg
                0x0000000000000000       0x32 ..\..\libs\ble\libbtstack.a(ble_api.o)
 .data          0x0000000000000000        0x0 ..\..\libs\ble\libbtstack.a(rf.o)
 .bss           0x0000000000000000        0x0 ..\..\libs\ble\libbtstack.a(rf.o)
 .com_text.bb.rf.isr
                0x0000000000000000       0x14 ..\..\libs\ble\libbtstack.a(rf.o)
 .data          0x0000000000000000        0x0 ..\..\libs\ble\libbtstack.a(ble_con.o)
 .bss           0x0000000000000000        0x0 ..\..\libs\ble\libbtstack.a(ble_con.o)
 .com_rodata.bb.tbl
                0x0000000000000000       0x10 ..\..\libs\ble\libbtstack.a(ble_con.o)
 .text          0x0000000000000000       0x3e ..\..\libs\ble\libbtstack.a(bb_utils.o)
 .data          0x0000000000000000        0x0 ..\..\libs\ble\libbtstack.a(bb_utils.o)
 .bss           0x0000000000000000        0x0 ..\..\libs\ble\libbtstack.a(bb_utils.o)
 .srodata       0x0000000000000000        0x5 ..\..\libs\ble\libbtstack.a(bb_utils.o)
 .data          0x0000000000000000        0x0 ..\..\libs\ble\libbtstack.a(bb_int.o)
 .bss           0x0000000000000000        0x0 ..\..\libs\ble\libbtstack.a(bb_int.o)
 .text.bb.timer.init
                0x0000000000000000       0x34 ..\..\libs\ble\libbtstack.a(bb_int.o)
 .text.bb.timer.start
                0x0000000000000000       0x7a ..\..\libs\ble\libbtstack.a(bb_int.o)
 .text.bb.timer.stop
                0x0000000000000000       0x5e ..\..\libs\ble\libbtstack.a(bb_int.o)
 .text.bb.timer.acquire
                0x0000000000000000       0x7c ..\..\libs\ble\libbtstack.a(bb_int.o)
 .text.bb.timer.release
                0x0000000000000000       0x3c ..\..\libs\ble\libbtstack.a(bb_int.o)
 .com_text.bb.timer.query
                0x0000000000000000       0xac ..\..\libs\ble\libbtstack.a(bb_int.o)
 .com_text.bb.timer.modify
                0x0000000000000000       0x9e ..\..\libs\ble\libbtstack.a(bb_int.o)
 .com_text.bb.hs_get
                0x0000000000000000       0x22 ..\..\libs\ble\libbtstack.a(bb_int.o)
 .data          0x0000000000000000        0x0 ..\..\libs\ble\libbtstack.a(bb.o)
 .bss           0x0000000000000000        0x0 ..\..\libs\ble\libbtstack.a(bb.o)
 .com_text.bb.isr
                0x0000000000000000       0x16 ..\..\libs\ble\libbtstack.a(bb.o)
 .text          0x0000000000000000        0x0 ..\..\libs\ble\libbtstack.a(platform.o)
 .data          0x0000000000000000        0x0 ..\..\libs\ble\libbtstack.a(platform.o)
 .bss           0x0000000000000000        0x0 ..\..\libs\ble\libbtstack.a(platform.o)
 .com_text.cpu.sfr
                0x0000000000000000       0x3c ..\..\libs\ble\libbtstack.a(platform.o)
 .data          0x0000000000000000        0x0 ..\..\libs\ble\libbtstack.a(extern_ble.o)
 .bss           0x0000000000000000        0x0 ..\..\libs\ble\libbtstack.a(extern_ble.o)
 .sbss          0x0000000000000000        0x3 ..\..\libs\ble\libbtstack.a(extern_ble.o)
 .srodata       0x0000000000000000        0x1 ..\..\libs\ble\libbtstack.a(extern_ble.o)
 .text          0x0000000000000000        0x0 ..\..\libs\ble\libbtstack.a(extern.o)
 .data          0x0000000000000000        0x0 ..\..\libs\ble\libbtstack.a(extern.o)
 .bss           0x0000000000000000        0x0 ..\..\libs\ble\libbtstack.a(extern.o)
 .data          0x0000000000000000        0x0 ..\..\libs\ble\libbtstack.a(l2cap.o)
 .bss           0x0000000000000000        0x0 ..\..\libs\ble\libbtstack.a(l2cap.o)
 .text.stack.l2cap.connectionless
                0x0000000000000000       0x54 ..\..\libs\ble\libbtstack.a(l2cap.o)
 .text.l2cap.mtu_max
                0x0000000000000000        0x6 ..\..\libs\ble\libbtstack.a(l2cap.o)
 .text.l2cap.mtu_set
                0x0000000000000000       0x12 ..\..\libs\ble\libbtstack.a(l2cap.o)
 .text          0x0000000000000000       0x18 ..\..\libs\ble\libbtstack.a(hci_dump.o)
 .data          0x0000000000000000        0xc ..\..\libs\ble\libbtstack.a(hci_dump.o)
 .bss           0x0000000000000000        0x0 ..\..\libs\ble\libbtstack.a(hci_dump.o)
 .rodata.str1.4
                0x0000000000000000       0x12 ..\..\libs\ble\libbtstack.a(hci_dump.o)
 .text.stack.util
                0x0000000000000000       0x82 ..\..\libs\ble\libbtstack.a(hci_dump.o)
 .text          0x0000000000000000        0x0 ..\..\libs\ble\libbtstack.a(hci_cmd.o)
 .data          0x0000000000000000        0x0 ..\..\libs\ble\libbtstack.a(hci_cmd.o)
 .bss           0x0000000000000000        0x0 ..\..\libs\ble\libbtstack.a(hci_cmd.o)
 .com_rodata.btstakc.hci
                0x0000000000000000        0x8 ..\..\libs\ble\libbtstack.a(hci_cmd.o)
 .rodata.stack.hci_send.ch
                0x0000000000000000        0x8 ..\..\libs\ble\libbtstack.a(hci_cmd.o)
 .rodata.stack.hci_send.chm
                0x0000000000000000        0x8 ..\..\libs\ble\libbtstack.a(hci_cmd.o)
 .rodata.stack.hci_send.featrue
                0x0000000000000000        0x8 ..\..\libs\ble\libbtstack.a(hci_cmd.o)
 .rodata.stack.hci_send.len
                0x0000000000000000       0x10 ..\..\libs\ble\libbtstack.a(hci_cmd.o)
 .rodata.stack.hci_send.read_sugg_len
                0x0000000000000000        0x8 ..\..\libs\ble\libbtstack.a(hci_cmd.o)
 .rodata.stack.hci_send.rx_test
                0x0000000000000000        0x8 ..\..\libs\ble\libbtstack.a(hci_cmd.o)
 .rodata.stack.hci_send.set_len
                0x0000000000000000        0x8 ..\..\libs\ble\libbtstack.a(hci_cmd.o)
 .rodata.stack.hci_send.sup_sta
                0x0000000000000000        0x8 ..\..\libs\ble\libbtstack.a(hci_cmd.o)
 .rodata.stack.hci_send.test_end
                0x0000000000000000        0x8 ..\..\libs\ble\libbtstack.a(hci_cmd.o)
 .rodata.stack.hci_send.tx_test
                0x0000000000000000        0x8 ..\..\libs\ble\libbtstack.a(hci_cmd.o)
 .srodata       0x0000000000000000        0x8 ..\..\libs\ble\libbtstack.a(hci_cmd.o)
 .data          0x0000000000000000        0x0 ..\..\libs\ble\libbtstack.a(hci.o)
 .bss           0x0000000000000000        0x0 ..\..\libs\ble\libbtstack.a(hci.o)
 .text.hci.adv.is_enable
                0x0000000000000000       0x18 ..\..\libs\ble\libbtstack.a(hci.o)
 .data          0x0000000000000000        0x0 ..\..\libs\ble\libbtstack.a(btstack_util.o)
 .bss           0x0000000000000000        0x0 ..\..\libs\ble\libbtstack.a(btstack_util.o)
 .data          0x0000000000000000        0x0 ..\..\libs\ble\libbtstack.a(btstack_run_loop.o)
 .bss           0x0000000000000000        0x0 ..\..\libs\ble\libbtstack.a(btstack_run_loop.o)
 .com_text.stack.api
                0x0000000000000000        0xc ..\..\libs\ble\libbtstack.a(btstack_run_loop.o)
 .text          0x0000000000000000       0x40 ..\..\libs\ble\libbtstack.a(btstack_memory.o)
 .data          0x0000000000000000        0x0 ..\..\libs\ble\libbtstack.a(btstack_memory.o)
 .bss           0x0000000000000000       0x74 ..\..\libs\ble\libbtstack.a(btstack_memory.o)
 .text.stack.memory
                0x0000000000000000       0x12 ..\..\libs\ble\libbtstack.a(btstack_memory.o)
 .sbss          0x0000000000000000        0x4 ..\..\libs\ble\libbtstack.a(btstack_memory.o)
 .text          0x0000000000000000        0x4 ..\..\libs\ble\libbtstack.a(btstack_linked_list.o)
 .data          0x0000000000000000        0x0 ..\..\libs\ble\libbtstack.a(btstack_linked_list.o)
 .bss           0x0000000000000000        0x0 ..\..\libs\ble\libbtstack.a(btstack_linked_list.o)
 .text          0x0000000000000000      0x274 ..\..\libs\ble\libbtstack.a(ad_parser.o)
 .data          0x0000000000000000        0x0 ..\..\libs\ble\libbtstack.a(ad_parser.o)
 .bss           0x0000000000000000        0x0 ..\..\libs\ble\libbtstack.a(ad_parser.o)
 .data          0x0000000000000000        0x0 ..\..\libs\ble\libbtstack.a(hci_transport_hcic.o)
 .bss           0x0000000000000000        0x0 ..\..\libs\ble\libbtstack.a(hci_transport_hcic.o)
 .text          0x0000000000000000       0x48 ..\..\libs\ble\libbtstack.a(hci_transport_h3_controller.o)
 .data          0x0000000000000000        0x0 ..\..\libs\ble\libbtstack.a(hci_transport_h3_controller.o)
 .bss           0x0000000000000000       0x20 ..\..\libs\ble\libbtstack.a(hci_transport_h3_controller.o)
 .text.stack.h3c
                0x0000000000000000      0x1ac ..\..\libs\ble\libbtstack.a(hci_transport_h3_controller.o)
 .com_text.stack.h3c
                0x0000000000000000       0x48 ..\..\libs\ble\libbtstack.a(hci_transport_h3_controller.o)
 .rodata.str1.4
                0x0000000000000000       0x16 ..\..\libs\ble\libbtstack.a(hci_transport_h3_controller.o)
 .com_text.stack.util
                0x0000000000000000      0x12e ..\..\libs\ble\libbtstack.a(hci_transport_h3_controller.o)
 .text.btstack.hci.h3c.init
                0x0000000000000000       0x12 ..\..\libs\ble\libbtstack.a(hci_transport_h3_controller.o)
 .rodata        0x0000000000000000       0x20 ..\..\libs\ble\libbtstack.a(hci_transport_h3_controller.o)
 .com_rodata.stack.h3
                0x0000000000000000        0x2 ..\..\libs\ble\libbtstack.a(hci_transport_h3_controller.o)
 .hci.h3.huart  0x0000000000000000      0x408 ..\..\libs\ble\libbtstack.a(hci_transport_h3_controller.o)
 .sbss          0x0000000000000000       0x1c ..\..\libs\ble\libbtstack.a(hci_transport_h3_controller.o)
 .data          0x0000000000000000        0x0 ..\..\libs\ble\libbtstack.a(hci_transport_dummy.o)
 .bss           0x0000000000000000        0x0 ..\..\libs\ble\libbtstack.a(hci_transport_dummy.o)
 .data          0x0000000000000000        0x0 ..\..\libs\ble\libbtstack.a(btstack_main.o)
 .bss           0x0000000000000000        0x0 ..\..\libs\ble\libbtstack.a(btstack_main.o)
 .data          0x0000000000000000        0x0 ..\..\libs\ble\libbtstack.a(btstack_hal.o)
 .bss           0x0000000000000000        0x0 ..\..\libs\ble\libbtstack.a(btstack_hal.o)
 .com_text.stack.uart_isr
                0x0000000000000000       0x6c ..\..\libs\ble\libbtstack.a(btstack_hal.o)
 .text.stack.hal
                0x0000000000000000       0xa4 ..\..\libs\ble\libbtstack.a(btstack_hal.o)
 .com_text.stack.util
                0x0000000000000000       0x12 ..\..\libs\ble\libbtstack.a(btstack_hal.o)
 .sbss          0x0000000000000000        0x8 ..\..\libs\ble\libbtstack.a(btstack_hal.o)
 .data          0x0000000000000000        0x0 ..\..\libs\ble\libbtstack.a(nanos.o)
 .bss           0x0000000000000000        0x0 ..\..\libs\ble\libbtstack.a(nanos.o)
 .com_text.md.nanos.ms
                0x0000000000000000       0x3c ..\..\libs\ble\libbtstack.a(nanos.o)
 .data          0x0000000000000000        0x0 ..\..\libs\ble\libbtstack.a(bb_sche.o)
 .data          0x0000000000000000        0x0 ..\..\libs\ble\libbtstack.a(patch.o)
 .bss           0x0000000000000000        0x0 ..\..\libs\ble\libbtstack.a(patch.o)
 .text          0x0000000000000000        0x0 ..\..\libs\ble\libbtstack.a(bb_dbg.o)
 .data          0x0000000000000000        0x0 ..\..\libs\ble\libbtstack.a(bb_dbg.o)
 .bss           0x0000000000000000        0x0 ..\..\libs\ble\libbtstack.a(bb_dbg.o)
 .com_text.spi_init
                0x0000000000000000       0x6c ..\..\libs\ble\libbtstack.a(bb_dbg.o)
 .com_text.bb.putc
                0x0000000000000000       0x64 ..\..\libs\ble\libbtstack.a(bb_dbg.o)
 .data          0x0000000000000000        0x0 ..\..\libs\ble\libbtstack.a(bb_clk.o)
 .bss           0x0000000000000000        0x0 ..\..\libs\ble\libbtstack.a(bb_clk.o)
 .text          0x0000000000000000        0x0 ..\..\libs\ble\libbtstack.a(aes.o)
 .data          0x0000000000000000        0x0 ..\..\libs\ble\libbtstack.a(aes.o)
 .data          0x0000000000000000        0x0 ..\..\libs\ble\libbtstack.a(extern.o)
 .bss           0x0000000000000000        0x0 ..\..\libs\ble\libbtstack.a(extern.o)
 .text.bsp.param
                0x0000000000000000        0x2 ..\..\libs\ble\libbtstack.a(extern.o)
 .com_sleep.sleep
                0x0000000000000000        0x2 ..\..\libs\ble\libbtstack.a(extern.o)
 .com_text.ble.phy
                0x0000000000000000        0x4 ..\..\libs\ble\libbtstack.a(extern.o)
 .data          0x0000000000000000        0x0 ..\..\libs\ble\libbtstack.a(vs.o)
 .bss           0x0000000000000000        0x0 ..\..\libs\ble\libbtstack.a(vs.o)
 .data          0x0000000000000000        0x0 ..\..\libs\ble\libbtstack.a(rf_xbox.o)
 .bss           0x0000000000000000        0x0 ..\..\libs\ble\libbtstack.a(rf_xbox.o)
 .text.rf.tx_pwr.set
                0x0000000000000000       0xea ..\..\libs\ble\libbtstack.a(rf_xbox.o)
 .text.bb.phy.rx
                0x0000000000000000       0x3e ..\..\libs\ble\libbtstack.a(rf_xbox.o)
 .text.rf.vddvco.set
                0x0000000000000000       0x18 ..\..\libs\ble\libbtstack.a(rf_xbox.o)
 .text.rf.vddvco.get
                0x0000000000000000        0xa ..\..\libs\ble\libbtstack.a(rf_xbox.o)
 .text.rf.pll.set
                0x0000000000000000       0x12 ..\..\libs\ble\libbtstack.a(rf_xbox.o)
 .text.rf.tx_pwr.set_2
                0x0000000000000000        0x8 ..\..\libs\ble\libbtstack.a(rf_xbox.o)
 .data          0x0000000000000000        0x0 ..\..\libs\ble\libbtstack.a(complex.o)
 .bss           0x0000000000000000        0x0 ..\..\libs\ble\libbtstack.a(complex.o)
 .data          0x0000000000000000        0x0 ..\..\libs\ble\libbtstack.a(ble_hook.o)
 .bss           0x0000000000000000        0x0 ..\..\libs\ble\libbtstack.a(ble_hook.o)
 .data          0x0000000000000000        0x0 ..\..\libs\ble\libbtstack.a(hct_tl.o)
 .data          0x0000000000000000        0x0 ..\..\libs\ble\libbtstack.a(hct_msg.o)
 .bss           0x0000000000000000        0x0 ..\..\libs\ble\libbtstack.a(hct_msg.o)
 .data          0x0000000000000000        0x0 ..\..\libs\ble\libbtstack.a(hct.o)
 .bss           0x0000000000000000        0x0 ..\..\libs\ble\libbtstack.a(hct.o)
 .data          0x0000000000000000        0x0 ..\..\libs\ble\libbtstack.a(mgr_hci.o)
 .bss           0x0000000000000000        0x0 ..\..\libs\ble\libbtstack.a(mgr_hci.o)
 .data          0x0000000000000000        0x0 ..\..\libs\ble\libbtstack.a(mgr.o)
 .bss           0x0000000000000000        0x0 ..\..\libs\ble\libbtstack.a(mgr.o)
 .data          0x0000000000000000        0x0 ..\..\libs\ble\libbtstack.a(ll_adv.o)
 .bss           0x0000000000000000        0x0 ..\..\libs\ble\libbtstack.a(ll_adv.o)
 .data          0x0000000000000000        0x0 ..\..\libs\ble\libbtstack.a(ll_tbox_freq_cal.o)
 .data          0x0000000000000000        0x0 ..\..\libs\ble\libbtstack.a(ll_con_upd.o)
 .bss           0x0000000000000000        0x0 ..\..\libs\ble\libbtstack.a(ll_con_upd.o)
 .data          0x0000000000000000        0x0 ..\..\libs\ble\libbtstack.a(ll_cntl.o)
 .bss           0x0000000000000000        0x0 ..\..\libs\ble\libbtstack.a(ll_cntl.o)
 .text          0x0000000000000000        0x0 ..\..\libs\ble\libbtstack.a(ll_clk_acc.o)
 .data          0x0000000000000000        0x0 ..\..\libs\ble\libbtstack.a(ll_clk_acc.o)
 .bss           0x0000000000000000        0x0 ..\..\libs\ble\libbtstack.a(ll_clk_acc.o)
 .data          0x0000000000000000        0x0 ..\..\libs\ble\libbtstack.a(ll_chmap_upd.o)
 .bss           0x0000000000000000        0x0 ..\..\libs\ble\libbtstack.a(ll_chmap_upd.o)
 .text          0x0000000000000000        0x0 ..\..\libs\ble\libbtstack.a(ll.o)
 .data          0x0000000000000000        0x0 ..\..\libs\ble\libbtstack.a(ll.o)
 .bss           0x0000000000000000        0x0 ..\..\libs\ble\libbtstack.a(ll.o)
 .data          0x0000000000000000        0x0 ..\..\libs\ble\libbtstack.a(ble_hal.o)
 .bss           0x0000000000000000        0x0 ..\..\libs\ble\libbtstack.a(ble_hal.o)
 .data          0x0000000000000000        0x0 ..\..\libs\ble\libbtstack.a(ble_adv.o)
 .bss           0x0000000000000000        0x0 ..\..\libs\ble\libbtstack.a(ble_adv.o)
 .data          0x0000000000000000        0x0 ..\..\libs\ble\libbtstack.a(ble_buf.o)
 .data          0x0000000000000000        0x0 ..\..\libs\ble\libbtstack.a(ble.o)
 .bss           0x0000000000000000        0x0 ..\..\libs\ble\libbtstack.a(ble.o)
 .text          0x0000000000000000        0x0 ..\..\libs\ble\libbtstack.a(bb_sleep.o)
 .data          0x0000000000000000        0x0 ..\..\libs\ble\libbtstack.a(bb_sleep.o)
 .bss           0x0000000000000000        0x0 ..\..\libs\ble\libbtstack.a(bb_sleep.o)
 .text          0x0000000000000000        0x0 ..\..\libs\ble\libbtstack.a(periph.o)
 .data          0x0000000000000000        0x0 ..\..\libs\ble\libbtstack.a(periph.o)
 .bss           0x0000000000000000        0x0 ..\..\libs\ble\libbtstack.a(periph.o)
 .text.huart    0x0000000000000000        0x4 ..\..\libs\ble\libbtstack.a(periph.o)
 .com_text.huart
                0x0000000000000000       0x10 ..\..\libs\ble\libbtstack.a(periph.o)
 .comment       0x0000000000000000       0x13 ..\..\libs\ble\libbtstack.a(periph.o)
 .riscv.attributes
                0x0000000000000000       0x32 ..\..\libs\ble\libbtstack.a(periph.o)
 .text          0x0000000000000000        0x0 ..\..\libs\ble\libbtstack.a(l2cap_signaling.o)
 .data          0x0000000000000000        0x0 ..\..\libs\ble\libbtstack.a(l2cap_signaling.o)
 .bss           0x0000000000000000        0x0 ..\..\libs\ble\libbtstack.a(l2cap_signaling.o)
 .text          0x0000000000000000        0x0 ..\..\libs\ble\libbtstack.a(btstack_memory_pool.o)
 .data          0x0000000000000000        0x0 ..\..\libs\ble\libbtstack.a(btstack_memory_pool.o)
 .bss           0x0000000000000000        0x0 ..\..\libs\ble\libbtstack.a(btstack_memory_pool.o)
 .text.stack.memory
                0x0000000000000000       0x54 ..\..\libs\ble\libbtstack.a(btstack_memory_pool.o)
 .comment       0x0000000000000000       0x13 ..\..\libs\ble\libbtstack.a(btstack_memory_pool.o)
 .riscv.attributes
                0x0000000000000000       0x32 ..\..\libs\ble\libbtstack.a(btstack_memory_pool.o)
 .text          0x0000000000000000        0x0 ..\..\libs\ble\libbtstack.a(patch_asm.o)
 .data          0x0000000000000000        0x0 ..\..\libs\ble\libbtstack.a(patch_asm.o)
 .bss           0x0000000000000000        0x0 ..\..\libs\ble\libbtstack.a(patch_asm.o)
 .text          0x0000000000000000        0x0 ..\..\libs\ble\libbtstack.a(platform.o)
 .data          0x0000000000000000        0x0 ..\..\libs\ble\libbtstack.a(platform.o)
 .bss           0x0000000000000000        0x0 ..\..\libs\ble\libbtstack.a(platform.o)
 .com_text.bb.dbg.bt21
                0x0000000000000000        0x4 ..\..\libs\ble\libbtstack.a(platform.o)
 .com_text.bb.utils.dummy
                0x0000000000000000        0x6 ..\..\libs\ble\libbtstack.a(platform.o)
 .data          0x0000000000000000        0x0 ..\..\libs\ble\libbtstack.a(vs_proc.o)
 .bss           0x0000000000000000        0x0 ..\..\libs\ble\libbtstack.a(vs_proc.o)
 .text          0x0000000000000000        0x0 ..\..\libs\ble\libbtstack.a(vs_fcc.o)
 .data          0x0000000000000000        0x0 ..\..\libs\ble\libbtstack.a(vs_fcc.o)
 .bss           0x0000000000000000        0x0 ..\..\libs\ble\libbtstack.a(vs_fcc.o)
 .data          0x0000000000000000        0x0 ..\..\libs\ble\libbtstack.a(adv_hook.o)
 .bss           0x0000000000000000        0x0 ..\..\libs\ble\libbtstack.a(adv_hook.o)
 .data          0x0000000000000000        0x0 ..\..\libs\ble\libbtstack.a(mgr_test.o)
 .bss           0x0000000000000000        0x0 ..\..\libs\ble\libbtstack.a(mgr_test.o)
 .data          0x0000000000000000        0x0 ..\..\libs\ble\libbtstack.a(mgr_proc.o)
 .bss           0x0000000000000000        0x0 ..\..\libs\ble\libbtstack.a(mgr_proc.o)
 .data          0x0000000000000000        0x0 ..\..\libs\ble\libbtstack.a(ll_version.o)
 .bss           0x0000000000000000        0x0 ..\..\libs\ble\libbtstack.a(ll_version.o)
 .data          0x0000000000000000        0x0 ..\..\libs\ble\libbtstack.a(ll_tbox_prod_test.o)
 .bss           0x0000000000000000        0x0 ..\..\libs\ble\libbtstack.a(ll_tbox_prod_test.o)
 .data          0x0000000000000000        0x0 ..\..\libs\ble\libbtstack.a(ll_tbox_feature.o)
 .bss           0x0000000000000000        0x0 ..\..\libs\ble\libbtstack.a(ll_tbox_feature.o)
 .data          0x0000000000000000        0x0 ..\..\libs\ble\libbtstack.a(ll_proc.o)
 .bss           0x0000000000000000        0x0 ..\..\libs\ble\libbtstack.a(ll_proc.o)
 .data          0x0000000000000000        0x0 ..\..\libs\ble\libbtstack.a(ll_ping.o)
 .bss           0x0000000000000000        0x0 ..\..\libs\ble\libbtstack.a(ll_ping.o)
 .data          0x0000000000000000        0x0 ..\..\libs\ble\libbtstack.a(ll_phy_upd.o)
 .bss           0x0000000000000000        0x0 ..\..\libs\ble\libbtstack.a(ll_phy_upd.o)
 .data          0x0000000000000000        0x0 ..\..\libs\ble\libbtstack.a(ll_length.o)
 .bss           0x0000000000000000        0x0 ..\..\libs\ble\libbtstack.a(ll_length.o)
 .data          0x0000000000000000        0x0 ..\..\libs\ble\libbtstack.a(ll_feature.o)
 .bss           0x0000000000000000        0x0 ..\..\libs\ble\libbtstack.a(ll_feature.o)
 .data          0x0000000000000000        0x0 ..\..\libs\ble\libbtstack.a(ll_encrypt.o)
 .bss           0x0000000000000000        0x0 ..\..\libs\ble\libbtstack.a(ll_encrypt.o)
 .data          0x0000000000000000        0x0 ..\..\libs\ble\libbtstack.a(ll_disconnect.o)
 .bss           0x0000000000000000        0x0 ..\..\libs\ble\libbtstack.a(ll_disconnect.o)
 .data          0x0000000000000000        0x0 ..\..\libs\ble\libbtstack.a(ble_test.o)
 .bss           0x0000000000000000        0x0 ..\..\libs\ble\libbtstack.a(ble_test.o)
 .data          0x0000000000000000        0x0 ..\..\libs\ble\libbtstack.a(ble_sync.o)
 .bss           0x0000000000000000        0x0 ..\..\libs\ble\libbtstack.a(ble_sync.o)
 .data          0x0000000000000000        0x0 ..\..\libs\ble\libbtstack.a(ble_scan.o)
 .bss           0x0000000000000000        0x0 ..\..\libs\ble\libbtstack.a(ble_scan.o)
 .data          0x0000000000000000        0x0 ..\..\libs\ble\libbtstack.a(ble_init.o)
 .bss           0x0000000000000000        0x0 ..\..\libs\ble\libbtstack.a(ble_init.o)

Memory Configuration

Name             Origin             Length             Attributes
init             0x0000000010000000 0x0000000000000200
flash            0x0000000010000200 0x000000000003e000 xr
stack            0x0000000000010800 0x0000000000000400
sram             0x0000000000010c00 0x0000000000007400
bram             0x0000000000018000 0x0000000000008000
*default*        0x0000000000000000 0xffffffffffffffff

Linker script and memory map

LOAD Output\obj\driver\driver_adv_timer.o
LOAD Output\obj\driver\driver_charge.o
LOAD Output\obj\driver\driver_clk.o
LOAD Output\obj\driver\driver_gpio.o
LOAD Output\obj\driver\driver_hsuart.o
LOAD Output\obj\driver\driver_iic.o
LOAD Output\obj\driver\driver_irrx.o
LOAD Output\obj\driver\driver_irtx.o
LOAD Output\obj\driver\driver_keyscan.o
LOAD Output\obj\driver\driver_ledc.o
LOAD Output\obj\driver\driver_lowpwr.o
LOAD Output\obj\driver\driver_lpwm.o
LOAD Output\obj\driver\driver_qdec.o
LOAD Output\obj\driver\driver_rtc.o
LOAD Output\obj\driver\driver_saradc.o
LOAD Output\obj\driver\driver_sdadc.o
LOAD Output\obj\driver\driver_sddac.o
LOAD Output\obj\driver\driver_spi.o
LOAD Output\obj\driver\driver_tmr.o
LOAD Output\obj\driver\driver_touch_key.o
LOAD Output\obj\driver\driver_uart.o
LOAD Output\obj\driver\driver_wdt.o
LOAD Output\obj\modules\utils\utils_ring_buffer.o
LOAD Output\obj\project\ble_peripheral\app\func.o
LOAD Output\obj\project\ble_peripheral\app\func_bt.o
LOAD Output\obj\project\ble_peripheral\app\func_idle.o
LOAD Output\obj\project\ble_peripheral\app\func_iodm.o
LOAD Output\obj\project\ble_peripheral\app\func_le_bqb_rf.o
LOAD Output\obj\project\ble_peripheral\app\func_le_fcc.o
LOAD Output\obj\project\ble_peripheral\app\func_lowpwr.o
LOAD Output\obj\project\ble_peripheral\app\func_tbox.o
LOAD Output\obj\project\ble_peripheral\app\msg_bt.o
LOAD Output\obj\project\ble_peripheral\app\msg_idle.o
LOAD Output\obj\project\ble_peripheral\app\msg_iodm.o
LOAD Output\obj\project\ble_peripheral\app\msg_le_bqb_rf.o
LOAD Output\obj\project\ble_peripheral\app\msg_le_fcc.o
LOAD Output\obj\project\ble_peripheral\app\msg_tbox.o
LOAD Output\obj\project\ble_peripheral\audio\dec\mp3_dec.o
LOAD Output\obj\project\ble_peripheral\audio\dec\sin_dec.o
LOAD Output\obj\project\ble_peripheral\audio\dec\wav_dec.o
LOAD Output\obj\project\ble_peripheral\ble\ble_fota_service.o
LOAD Output\obj\project\ble_peripheral\ble\ble_init.o
LOAD Output\obj\project\ble_peripheral\ble\ble_proc.o
LOAD Output\obj\project\ble_peripheral\ble\ble_service.o
LOAD Output\obj\project\ble_peripheral\ble\ble_user_service.o
LOAD Output\obj\project\ble_peripheral\bsp\bsp_charge.o
LOAD Output\obj\project\ble_peripheral\bsp\bsp_huart.o
LOAD Output\obj\project\ble_peripheral\bsp\bsp_huart_iodm.o
LOAD Output\obj\project\ble_peripheral\bsp\bsp_io_key.o
LOAD Output\obj\project\ble_peripheral\bsp\bsp_key.o
LOAD Output\obj\project\ble_peripheral\bsp\bsp_param.o
LOAD Output\obj\project\ble_peripheral\bsp\bsp_saradc.o
LOAD Output\obj\project\ble_peripheral\bsp\bsp_saradc_key.o
LOAD Output\obj\project\ble_peripheral\bsp\bsp_saradc_tsensor.o
LOAD Output\obj\project\ble_peripheral\bsp\bsp_saradc_vbat.o
LOAD Output\obj\project\ble_peripheral\bsp\bsp_sys.o
LOAD Output\obj\project\ble_peripheral\bsp\bsp_tone.o
LOAD Output\obj\project\ble_peripheral\bsp\bsp_touch_key.o
LOAD Output\obj\project\ble_peripheral\bsp\bsp_uart_debug.o
LOAD Output\obj\project\ble_peripheral\main.o
LOAD Output\obj\project\ble_peripheral\production_test\iodm\prod_test_iodm.o
LOAD Output\obj\project\ble_peripheral\production_test\prod_test.o
LOAD Output\obj\project\ble_peripheral\production_test\tbox\prod_test_tbox.o
LOAD Output\obj\project\ble_peripheral\production_test\tbox\tbox_key.o
LOAD Output\obj\project\ble_peripheral\production_test\tbox\tbox_voice.o
LOAD Output\obj\project\ble_peripheral\production_test\tbox\tbox_voice_sdadc.o
LOAD Output\obj\project\ble_peripheral\strong_symbol.o
                0x000000000003e000                __max_flash_size = 0x3e000
                0x0000000010000000                __base = 0x10000000
                0x0000000000010600                __cache_stack_vma = 0x10600
                0x0000000000000200                __cache_stack_size = 0x200
                0x0000000000010800                __stack_vma = 0x10800
                0x0000000000000400                __stack_ram_size = 0x400
                0x0000000000010c00                __sram_vma = 0x10c00
                0x0000000000007400                __sram_ram_size = 0x7400
                0x0000000000010c00                __comm_vma = __sram_vma
                0x0000000000018000                __bram_vma = 0x18000
                0x0000000000008000                __bram_ram_size = 0x8000

.init           0x0000000010000000       0x4e
 *(.reset)
 .reset         0x0000000010000000       0x4e ..\..\libs\cpu\libplatform.a(reset.o)
                0x0000000010000000                _start

.comm           0x0000000000010c00     0x3200 load address 0x0000000010000200
 *(.vector)
 .vector        0x0000000000010c00      0x19a ..\..\libs\cpu\libplatform.a(reset.o)
                0x0000000000010ca0                _exception_isr
                0x0000000000010ca2                nop_isr
 *(.com_text*)
 .com_text.pwroff.mode2
                0x0000000000010d9a      0x13e Output\obj\driver\driver_lowpwr.o
 .com_text.lp_port_init
                0x0000000000010ed8       0x34 Output\obj\driver\driver_lowpwr.o
                0x0000000000010ed8                lp_port_init
 .com_text.pwroff_mode2
                0x0000000000010f0c       0x84 Output\obj\driver\driver_lowpwr.o
                0x0000000000010f0c                lowpwr_pwroff_mode2_do
 .com_text.gpio.isr
                0x0000000000010f90       0x2e Output\obj\project\ble_peripheral\app\func_lowpwr.o
                0x0000000000010f90                gpio_isr_callback
 .com_text.sleep_tick
                0x0000000000010fbe       0x14 Output\obj\project\ble_peripheral\app\func_lowpwr.o
                0x0000000000010fbe                lowpwr_tout_ticks
 .com_text.fot.update
                0x0000000000010fd2        0xc Output\obj\project\ble_peripheral\ble\ble_fota_service.o
                0x0000000000010fd2                ble_fota_is_start
 .com_text.key.scan
                0x0000000000010fde       0x10 Output\obj\project\ble_peripheral\bsp\bsp_io_key.o
                0x0000000000010fde                bsp_get_io_key_id
 .com_text.key.process
                0x0000000000010fee       0x9e Output\obj\project\ble_peripheral\bsp\bsp_key.o
                0x0000000000010fee                key_process
 .com_text.key.scan
                0x000000000001108c       0x3e Output\obj\project\ble_peripheral\bsp\bsp_key.o
                0x000000000001108c                bsp_key_scan
 .com_text.timer
                0x00000000000110ca       0x52 Output\obj\project\ble_peripheral\bsp\bsp_sys.o
                0x00000000000110ca                usr_tmr5ms_thread_do
 .com_text.spiflash.en
                0x000000000001111c        0x4 Output\obj\project\ble_peripheral\strong_symbol.o
                0x000000000001111c                spiflash_data_protect_en
 .com_text.spiflash
                0x0000000000011120       0x62 Output\obj\project\ble_peripheral\strong_symbol.o
                0x0000000000011120                os_spiflash_addr_check
 .com_text.spiflash.protect.strong
                0x0000000000011182        0x6 Output\obj\project\ble_peripheral\strong_symbol.o
                0x0000000000011182                os_spiflash_data_protect
                0x0000000000011184                os_spiflash_data_is_protect
 .com_text.timer
                0x0000000000011188        0x2 Output\obj\project\ble_peripheral\strong_symbol.o
                0x0000000000011188                usr_tmr5ms_thread_callback
 .com_text.ble.phy
                0x000000000001118a        0x4 Output\obj\project\ble_peripheral\strong_symbol.o
                0x000000000001118a                ble_phy_2M_enable
 .com_text.spiflash.dev_id
                0x000000000001118e       0x34 ..\..\libs\cpu\libplatform.a(os_flash.o)
                0x000000000001118e                os_spiflash_cap_id_get
 .com_text.spiflash.read
                0x00000000000111c2       0x30 ..\..\libs\cpu\libplatform.a(os_flash.o)
                0x00000000000111c2                os_spiflash_read
 .com_text.spiflash
                0x00000000000111f2       0xe0 ..\..\libs\cpu\libplatform.a(os_flash.o)
                0x00000000000111f6                os_spiflash_addr_check_2
                0x000000000001120e                os_spiflash_program
                0x0000000000011258                os_spiflash_program_2
                0x0000000000011292                os_spiflash_erase
 .com_text.spiflash.erase_2
                0x00000000000112d2       0x50 ..\..\libs\cpu\libplatform.a(os_flash.o)
                0x00000000000112d2                os_spiflash_erase_2
 .com_text.exception.hook
                0x0000000000011322       0x3e ..\..\libs\cpu\libplatform.a(main.o)
                0x0000000000011322                sys_error_hook
 .com_text.exception
                0x0000000000011360       0x7e ..\..\libs\cpu\libplatform.a(main.o)
                0x0000000000011360                exception_isr
 .com_text.delay
                0x00000000000113de       0x54 ..\..\libs\cpu\libplatform.a(main.o)
                0x00000000000113de                delay_5ms
                0x00000000000113f8                delay_ms
                0x0000000000011410                delay_us
                0x0000000000011428                delay
 .com_text.irq  0x0000000000011432       0xe2 ..\..\libs\cpu\libplatform.a(interrupt.o)
                0x0000000000011432                tick0_isr
                0x0000000000011490                register_isr
                0x00000000000114ca                tick_get
                0x00000000000114d2                tick_check_expire
                0x00000000000114e4                watch_point_isr
 .com_text.timer
                0x0000000000011514        0xe ..\..\libs\cpu\libplatform.a(startup.o)
 .com_text.trim.core_get
                0x0000000000011522        0x8 ..\..\libs\cpu\libplatform.a(pmu.o)
                0x0000000000011522                pmu_get_vddcore
 .com_text.trim.lvd_set
                0x000000000001152a       0x2c ..\..\libs\cpu\libplatform.a(pmu.o)
                0x000000000001152a                pmu_set_lvd
 .com_text.pmu.flash
                0x0000000000011556        0xc ..\..\libs\cpu\libplatform.a(pmu.o)
                0x0000000000011556                pmu_vddio_to_flash
 .com_text.irq  0x0000000000011562       0x52 ..\..\libs\cpu\libplatform.a(reset.o)
                0x0000000000011562                cpu_irq_comm
 .com_text.util.isr
                0x00000000000115b4        0x6 ..\..\libs\cpu\libplatform.a(reset.o)
                0x00000000000115b4                kick_soft_isr
 .com_text.spiflash.delay
                0x00000000000115ba        0xc ..\..\libs\cpu\libplatform.a(spiflash.o)
                0x00000000000115ba                spi_delay
 .com_text.spiflash.get
                0x00000000000115c6       0x28 ..\..\libs\cpu\libplatform.a(spiflash.o)
                0x00000000000115c6                spi_getbyte
 .com_text.spiflash.send
                0x00000000000115ee       0x1a ..\..\libs\cpu\libplatform.a(spiflash.o)
                0x00000000000115ee                spi_sendbyte
 .com_text.spiflash.read
                0x0000000000011608        0x4 ..\..\libs\cpu\libplatform.a(spiflash.o)
                0x0000000000011608                spiflash_read
 .com_text.spiflash.program
                0x000000000001160c       0x24 ..\..\libs\cpu\libplatform.a(spiflash.o)
                0x000000000001160c                spiflash_program
 .com_text.spiflash.erase
                0x0000000000011630       0x28 ..\..\libs\cpu\libplatform.a(spiflash.o)
                0x0000000000011630                spiflash_erase
 .com_text.spiflash.addr.size
                0x0000000000011658        0x4 ..\..\libs\cpu\libplatform.a(spiflash.o)
                0x0000000000011658                spiflash_addr_4byte
 .com_text.debug
                0x000000000001165c       0x68 ..\..\libs\cpu\libplatform.a(debug.o)
 .com_text.key_return
                0x00000000000116c4       0x30 ..\..\libs\cpu\libplatform.a(key.o)
                0x00000000000116c4                check_key_return
 .com_text.bsp.key
                0x00000000000116f4        0xa ..\..\libs\cpu\libplatform.a(key.o)
                0x00000000000116f4                key_multi_press_process
 .com_text.sys  0x00000000000116fe       0x68 ..\..\libs\cpu\libplatform.a(s_sys.o)
                0x00000000000116fe                s_ff1
                0x0000000000011704                s_fl1
                0x000000000001170a                s_log2
                0x0000000000011712                s_clb
                0x0000000000011718                s_bcnt
                0x000000000001171e                s_ror
                0x0000000000011724                s_swapw
                0x000000000001172a                s_bitrvti
                0x0000000000011730                s_clip16
                0x0000000000011736                s_abs
                0x000000000001173c                mul_r
                0x0000000000011748                dummy_func
                0x000000000001174a                __ashrdi3
                0x0000000000011758                __ashldi3
 .com_text.get.vrtc24_mv
                0x0000000000011766        0x8 ..\..\libs\cpu\libplatform.a(voltage_trim.o)
                0x0000000000011766                pmu_get_vrtc24_mv
 .com_text.get.vbatdet
                0x000000000001176e       0x26 ..\..\libs\cpu\libplatform.a(voltage_trim.o)
                0x000000000001176e                pmu_get_vbatdet
 .com_text.timer
                0x0000000000011794        0x4 ..\..\libs\cpu\libplatform.a(weak_symbol.o)
                0x0000000000011796                usr_tmr1ms_isr_callback
 .com_text.stack.api
                0x0000000000011798       0x26 ..\..\libs\cpu\libplatform.a(bt.o)
                0x0000000000011798                bt_send_msg_do
 .com_text.stack.thread
                0x00000000000117be       0x32 ..\..\libs\cpu\libplatform.a(bt.o)
                0x00000000000117be                thread_btstack_pend
                0x00000000000117e0                thread_btstack_post
 .com_text.stack.run_loop
                0x00000000000117f0       0x62 ..\..\libs\cpu\libplatform.a(bt.o)
                0x00000000000117f0                thread_btstack_entry
 .com_text.txpkt.next
                0x0000000000011852       0x4e ..\..\libs\ble\libbtstack.a(txpkt.o)
                0x0000000000011852                txpkt_next
 .com_text.txpkt.send
                0x00000000000118a0      0x12a ..\..\libs\ble\libbtstack.a(txpkt.o)
                0x00000000000118a0                txpkt_send
 .com_text.stack.send.txpkt
                0x00000000000119ca       0x38 ..\..\libs\ble\libbtstack.a(txpkt.o)
                0x00000000000119ca                txpkt_event_send
 .com_text.server.send_req
                0x0000000000011a02       0x12 ..\..\libs\ble\libbtstack.a(gatt_server.o)
                0x0000000000011a02                btstack_ble_server_send_req
 .com_text.server.req_can_send
                0x0000000000011a14       0x18 ..\..\libs\ble\libbtstack.a(att_server.o)
                0x0000000000011a14                att_server_request_can_send_now_event
 .com_text.att.event_handler
                0x0000000000011a2c       0x26 ..\..\libs\ble\libbtstack.a(att_server.o)
 .com_text.server.mtu_get
                0x0000000000011a52       0x1e ..\..\libs\ble\libbtstack.a(att_server.o)
                0x0000000000011a52                att_server_get_mtu
 .com_text.att.dispatch_server
                0x0000000000011a70        0xc ..\..\libs\ble\libbtstack.a(att_dispatch.o)
                0x0000000000011a70                att_dispatch_server_request_can_send_now_event
 .com_text.stack.api
                0x0000000000011a7c       0x80 ..\..\libs\ble\libbtstack.a(btstack_api.o)
                0x0000000000011a7c                btstack_basic_api
                0x0000000000011a94                btstack_ctl_param_api
                0x0000000000011ab6                bt_get_status
                0x0000000000011ac2                btstack_message
 .com_text.ret.bb.sleep
                0x0000000000011afc       0x22 ..\..\libs\ble\libbtstack.a(btstack_api.o)
                0x0000000000011afc                bt_is_sleep
 .com_text.ble.send_kick
                0x0000000000011b1e       0x14 ..\..\libs\ble\libbtstack.a(ble_api.o)
                0x0000000000011b1e                ble_send_kick
 .com_text.bb.isr
                0x0000000000011b32       0x58 ..\..\libs\ble\libbtstack.a(rf.o)
                0x0000000000011b32                rf_rssi_calc_dbm
                0x0000000000011b3c                rf_txpwr_get_lv
                0x0000000000011b78                rf_txpwr_get_dbm
                0x0000000000011b88                rf_agc_enable
 .com_text.bb.rf
                0x0000000000011b8a       0x36 ..\..\libs\ble\libbtstack.a(rf.o)
                0x0000000000011b8a                rf_hal_init
 .com_text.ble.isr.con
                0x0000000000011bc0       0x1e ..\..\libs\ble\libbtstack.a(ble_con.o)
 .com_text.ble.isr.con.end
                0x0000000000011bde       0x8c ..\..\libs\ble\libbtstack.a(ble_con.o)
                0x0000000000011bde                ble_con_rx_end
 .com_text.bb.isr.timer
                0x0000000000011c6a       0xa6 ..\..\libs\ble\libbtstack.a(bb_int.o)
                0x0000000000011cc4                bb_timer_alarm_execute
 .com_text.bb.isr
                0x0000000000011d10      0x17a ..\..\libs\ble\libbtstack.a(bb_int.o)
                0x0000000000011d42                bb_lpcycles_2_hus
                0x0000000000011d72                bb_isr
                0x0000000000011e7c                bb_hal_isr
 .com_text.bb.sleep
                0x0000000000011e8a       0x48 ..\..\libs\ble\libbtstack.a(bb_int.o)
                0x0000000000011e8a                bb_is_sleep
 .com_text.bb.run_loop
                0x0000000000011ed2       0x32 ..\..\libs\ble\libbtstack.a(bb.o)
                0x0000000000011ed2                bb_run_loop
 .com_text.dummy
                0x0000000000011f04        0x6 ..\..\libs\ble\libbtstack.a(platform.o)
                0x0000000000011f04                dummy_void
                0x0000000000011f06                dummy_false
 .com_text.stk.l2cap.txreq
                0x0000000000011f0a       0x2e ..\..\libs\ble\libbtstack.a(l2cap.o)
                0x0000000000011f0a                l2cap_request_can_send_fix_channel_now_event
 .com_text.stack.l2cap
                0x0000000000011f38       0x10 ..\..\libs\ble\libbtstack.a(l2cap.o)
                0x0000000000011f38                l2cap_get_outgoing_buffer
                0x0000000000011f44                l2cap_reserve_packet_buffer
                0x0000000000011f46                l2cap_release_packet_buffer
 .com_text.stack.hci.conn
                0x0000000000011f48        0xa ..\..\libs\ble\libbtstack.a(hci.o)
                0x0000000000011f48                hci_get_connections
 .com_text.stack.linked_list
                0x0000000000011f52        0xa ..\..\libs\ble\libbtstack.a(hci.o)
                0x0000000000011f52                hci_connections_get_iterator
 .com_text.stack.hci
                0x0000000000011f5c      0x11e ..\..\libs\ble\libbtstack.a(hci.o)
                0x0000000000011f5c                hci_connection_for_handle
                0x0000000000011f7e                hci_att_connection_for_handle
                0x0000000000011f8e                hci_number_free_acl_slots_for_handle
                0x0000000000011fa6                hci_can_send_command_packet_now
                0x0000000000011fd8                hci_can_send_acl_le_packet_now
                0x000000000001200e                hci_can_send_prepared_acl_packet_now
                0x000000000001202e                hci_can_send_acl_packet_now
                0x0000000000012040                hci_is_packet_buffer_reserved
                0x000000000001204c                hci_reserve_packet_buffer
                0x0000000000012064                hci_release_packet_buffer
                0x0000000000012070                hci_get_outgoing_packet_buffer
 .com_text.stack.hci_recv
                0x000000000001207a        0xe ..\..\libs\ble\libbtstack.a(hci.o)
                0x000000000001207a                hci_host_recv_packet
 .com_text.stack.run_loop
                0x0000000000012088       0x76 ..\..\libs\ble\libbtstack.a(btstack_run_loop.o)
                0x0000000000012088                btstack_cmp_abs_tick
                0x000000000001208e                btstack_run_loop_execute_once
 .com_text.ret.stack.thread
                0x00000000000120fe        0xc ..\..\libs\ble\libbtstack.a(btstack_run_loop.o)
                0x00000000000120fe                btstack_run_loop_embedded_trigger
 .com_text.stack.ticks
                0x000000000001210a       0x1e ..\..\libs\ble\libbtstack.a(btstack_run_loop.o)
 .com_text.bb.nanos.trigger
                0x0000000000012128        0x2 ..\..\libs\ble\libbtstack.a(btstack_run_loop.o)
                0x0000000000012128                thread_nanos_task_trigger
 .com_text.stack.linked_list
                0x000000000001212a       0x50 ..\..\libs\ble\libbtstack.a(btstack_linked_list.o)
                0x000000000001212a                btstack_linked_list_empty
                0x0000000000012132                btstack_linked_list_iterator_init
                0x000000000001213e                btstack_linked_list_iterator_has_next
                0x000000000001215c                btstack_linked_list_iterator_next
 .com_text.stack.hcic
                0x000000000001217a       0x82 ..\..\libs\ble\libbtstack.a(hci_transport_hcic.o)
                0x000000000001217a                hcic_can_send_packet_now
                0x0000000000012188                hcic_recv_packet
 .com_text.hci  0x00000000000121fc        0x4 ..\..\libs\ble\libbtstack.a(hci_transport_h3_controller.o)
                0x00000000000121fc                hci_is_sleep
 .com_text.stack.handler
                0x0000000000012200       0x1e ..\..\libs\ble\libbtstack.a(btstack_main.o)
 .com_text.stack.ticks
                0x000000000001221e        0xa ..\..\libs\ble\libbtstack.a(btstack_hal.o)
                0x0000000000012220                sys_tick_handler
 .com_text.isr  0x0000000000012228       0x20 ..\..\libs\ble\libbtstack.a(btstack_hal.o)
                0x0000000000012228                bt_timer_isr
 .com_text.md.nanos
                0x0000000000012248       0x14 ..\..\libs\ble\libbtstack.a(nanos.o)
                0x0000000000012248                nanos_event_set
 .com_text.ret.bb
                0x000000000001225c        0x2 ..\..\libs\ble\libbtstack.a(nanos.o)
                0x000000000001225c                nanos_sleep_restore
 .com_text.bb.frag
                0x000000000001225e       0x18 ..\..\libs\ble\libbtstack.a(bb_sche.o)
 .com_text.bb.prog
                0x0000000000012276      0x156 ..\..\libs\ble\libbtstack.a(bb_sche.o)
 .com_text.bb.patch
                0x00000000000123cc       0x3c ..\..\libs\ble\libbtstack.a(patch.o)
                0x00000000000123cc                bb_v1_patch1_do
 .com_text.ble.isr.con.end
                0x0000000000012408       0x18 ..\..\libs\ble\libbtstack.a(patch.o)
                0x0000000000012408                bb_v1_patch2_do
 .com_text.dbg_init
                0x0000000000012420        0x2 ..\..\libs\ble\libbtstack.a(bb_dbg.o)
                0x0000000000012420                bb_dbg_init
 .com_text.bb.isr
                0x0000000000012422       0x1a ..\..\libs\ble\libbtstack.a(aes.o)
 .com_text.ble.isr
                0x000000000001243c       0x6c ..\..\libs\ble\libbtstack.a(ble_hook.o)
                0x000000000001243c                ble_isr_hook
 .com_text.bb.sleep
                0x00000000000124a8       0x14 ..\..\libs\ble\libbtstack.a(hct_tl.o)
                0x00000000000124a8                hct_queue_is_empty
 .com_text.ble.isr.con
                0x00000000000124bc      0x13e ..\..\libs\ble\libbtstack.a(ll_tbox_freq_cal.o)
                0x00000000000124bc                ll_tbox_freq_cal_time_record
                0x0000000000012540                ll_tbox_freq_cal_patch
 .com_text.ble.isr
                0x00000000000125fa       0x82 ..\..\libs\ble\libbtstack.a(ble_hal.o)
                0x00000000000125fa                ble_rxdesc_buf_ready
 .com_text.ble.isr.con.chas
                0x000000000001267c       0x3a ..\..\libs\ble\libbtstack.a(ble_hal.o)
                0x000000000001267c                ble_channel_assess
 .com_text.bb.buf
                0x00000000000126b6       0x40 ..\..\libs\ble\libbtstack.a(ble_buf.o)
                0x00000000000126b6                ble_buf_rx_free
 .com_text.bb.isr
                0x00000000000126f6       0x34 ..\..\libs\ble\libbtstack.a(ble.o)
                0x00000000000126f6                ble_isr
 .com_text.bb.patch
                0x000000000001272a       0x34 ..\..\libs\ble\libbtstack.a(patch_asm.o)
                0x000000000001272a                bb_v1_patch0
                0x000000000001272c                ll_tbox_freq_cal_patch_ret
                0x0000000000012734                bb_v1_patch1
                0x0000000000012740                bb_v1_patch2
                0x000000000001275a                bb_v1_patch3
 .com_text.bb.dbg.ble
                0x000000000001275e        0x4 ..\..\libs\ble\libbtstack.a(platform.o)
                0x000000000001275e                bb_ll_tx_cb
                0x0000000000012760                bb_ll_rx_cb
 *(.com_rodata*)
 *fill*         0x0000000000012762        0x2 
 .com_rodata.key
                0x0000000000012764        0x2 Output\obj\project\ble_peripheral\bsp\bsp_key.o
                0x0000000000012764                allow_multiple_key_table
 *fill*         0x0000000000012766        0x2 
 .com_rodata.exception
                0x0000000000012768       0x49 ..\..\libs\cpu\libplatform.a(main.o)
 *fill*         0x00000000000127b1        0x3 
 .com_rodata.irq
                0x00000000000127b4       0x1b ..\..\libs\cpu\libplatform.a(interrupt.o)
                0x00000000000127b4                watch_point_str
 *fill*         0x00000000000127cf        0x1 
 .com_rodata.miss
                0x00000000000127d0       0x29 ..\..\libs\cpu\libplatform.a(debug.o)
 *fill*         0x00000000000127f9        0x3 
 .com_rodata.multi.key
                0x00000000000127fc        0x8 ..\..\libs\cpu\libplatform.a(key.o)
                0x00000000000127fc                key_multi_tbl
 .com_rodata.stack.api
                0x0000000000012804        0xc ..\..\libs\ble\libbtstack.a(btstack_api.o)
                0x0000000000012804                btstack_api_tbl
 .com_rodata.bb.tbl
                0x0000000000012810        0x8 ..\..\libs\ble\libbtstack.a(rf.o)
 .com_rodata.bb.tbl
                0x0000000000012818       0x44 ..\..\libs\ble\libbtstack.a(bb_utils.o)
                0x0000000000012818                bb_rate_to_byte_dur_us
                0x0000000000012820                bb_rate_to_phy_mask
                0x0000000000012824                bb_phy_value_to_mask
                0x0000000000012828                bb_phy_mask_to_value
                0x0000000000012830                bb_phy_to_rate
                0x0000000000012834                bb_rate_to_phy
                0x000000000001283c                bb_sca2ppm
                0x000000000001284c                one_bits
 .com_rodata.bb.err
                0x000000000001285c        0xd ..\..\libs\ble\libbtstack.a(bb_int.o)
                0x000000000001285c                str_bb_err
 *fill*         0x0000000000012869        0x3 
 .com_rodata.bb.tbl
                0x000000000001286c       0x16 ..\..\libs\ble\libbtstack.a(bb.o)
                0x000000000001286c                bb_priority
 *fill*         0x0000000000012882        0x2 
 .com_rodata.hci.trans
                0x0000000000012884       0x20 ..\..\libs\ble\libbtstack.a(hci_transport_hcic.o)
 .com_rodata.bb.tbl
                0x00000000000128a4       0x18 ..\..\libs\ble\libbtstack.a(ble_buf.o)
 .com_rodata.bb.err
                0x00000000000128bc        0xf ..\..\libs\ble\libbtstack.a(ble.o)
                0x00000000000128bc                str_ble_err
 *fill*         0x00000000000128cb        0x1 
 .com_rodata.bb.tbl
                0x00000000000128cc        0xc ..\..\libs\ble\libbtstack.a(vs_proc.o)
                0x00000000000128cc                vs_msg_env
 .com_rodata.bb.tbl
                0x00000000000128d8        0xc ..\..\libs\ble\libbtstack.a(mgr_proc.o)
                0x00000000000128d8                mgr_msg_env
 .com_rodata.bb.tbl
                0x00000000000128e4        0xc ..\..\libs\ble\libbtstack.a(ll_proc.o)
                0x00000000000128e4                ll_msg_env
 *debug.o(.rodata*)
 *(.com_sleep*)
 .com_sleep.lv2_do
                0x00000000000128f0       0x84 Output\obj\driver\driver_lowpwr.o
                0x00000000000128f0                lp_sleep_lv2_do
 .com_sleep.lv2_proc
                0x0000000000012974      0x2e4 Output\obj\driver\driver_lowpwr.o
                0x0000000000012974                lp_sleep_lv2_proc
                0x0000000000012ab8                lowpwr_sleep_lv2_proc
 .com_sleep.lv2_wakeup
                0x0000000000012c58      0x1b0 Output\obj\driver\driver_lowpwr.o
                0x0000000000012c58                lp_wakeup_lv2_proc
 .com_sleep.sleep
                0x0000000000012e08        0x4 Output\obj\driver\driver_lowpwr.o
                0x0000000000012e08                lowpwr_sleep_proc
 .com_sleep.lv2
                0x0000000000012e0c       0x80 Output\obj\project\ble_peripheral\app\func_lowpwr.o
                0x0000000000012e0c                lowpwr_sleep_sfr_user_save
                0x0000000000012e48                lowpwr_sleep_sfr_user_resume
 .com_sleep.sleep
                0x0000000000012e8c        0xe Output\obj\project\ble_peripheral\app\func_lowpwr.o
                0x0000000000012e8c                sys_sleep_cb
                0x0000000000012e96                sleep_timer
 .com_sleep.lowpwr.sleep
                0x0000000000012e9a       0x34 Output\obj\project\ble_peripheral\app\func_lowpwr.o
                0x0000000000012e9a                sfunc_sleep_do
 .com_sleep.ble.sleep
                0x0000000000012ece       0x16 Output\obj\project\ble_peripheral\ble\ble_proc.o
                0x0000000000012ece                ble_proc_pending
 .com_sleep.ble.sleep
                0x0000000000012ee4        0x8 Output\obj\project\ble_peripheral\ble\ble_user_service.o
                0x0000000000012ee4                ble_user_service_pending
 .com_sleep.sleep.rc
                0x0000000000012eec       0x4e ..\..\libs\cpu\libplatform.a(rc.o)
                0x0000000000012eec                rc_sleep_get_trim_freqcnt
 .com_sleep.lp.sleep
                0x0000000000012f3a      0x15e ..\..\libs\cpu\libplatform.a(sleep.o)
                0x0000000000012f3a                lowpwr_sleep_sfr_save
                0x0000000000012f60                lowpwr_sleep_sfr_resume
 .com_sleep.sleep
                0x0000000000013098        0x2 ..\..\libs\ble\libbtstack.a(btstack_api.o)
                0x0000000000013098                bt_sleep_proc
 .com_sleep.bb  0x000000000001309a       0x9a ..\..\libs\ble\libbtstack.a(rf.o)
                0x000000000001309a                rf_sleep
                0x00000000000130d6                rf_wakeup
 .com_sleep.bb  0x0000000000013134      0x242 ..\..\libs\ble\libbtstack.a(bb_int.o)
                0x0000000000013134                bb_sleep
 .com_sleep.sleep
                0x0000000000013376        0x4 ..\..\libs\ble\libbtstack.a(extern.o)
                0x0000000000013376                sys_sleep_check
 .com_sleep.bb  0x000000000001337a        0x8 ..\..\libs\ble\libbtstack.a(bb_sche.o)
                0x000000000001337a                bb_sche_resume
 .com_sleep.bb  0x0000000000013382        0x8 ..\..\libs\ble\libbtstack.a(extern.o)
                0x0000000000013382                ble_sleep_duration_max_get
 .com_sleep.rfphy
                0x000000000001338a        0x4 ..\..\libs\ble\libbtstack.a(extern.o)
                0x000000000001338a                ble_rf_freq_bands_private
 .com_sleep.rf  0x000000000001338e      0x17c ..\..\libs\ble\libbtstack.a(rf_xbox.o)
                0x0000000000013462                rfphy_deep_sleep
                0x000000000001347e                rfphy_idle
                0x000000000001349a                modem_init
 .com_sleep.rfphy
                0x000000000001350a      0x564 ..\..\libs\ble\libbtstack.a(rf_xbox.o)
                0x00000000000135ae                rfphy_txrx_init
                0x00000000000136fe                rfphy_init
 .com_sleep.bb  0x0000000000013a6e       0x82 ..\..\libs\ble\libbtstack.a(bb_sleep.o)
                0x0000000000013a6e                bb_sleep_suspend
                0x0000000000013a7e                bb_sleep_resume
 *(.com_periph.*)
 .com_periph.charge
                0x0000000000013af0       0x22 Output\obj\driver\driver_charge.o
                0x0000000000013af0                charge_get_status
                0x0000000000013af8                charge_detect_dc
 .com_periph.wk0.read_bit
                0x0000000000013b12        0xa Output\obj\driver\driver_gpio.o
                0x0000000000013b12                wko_io_read_bit
 .com_periph.lowpwr.sleep
                0x0000000000013b1c       0x24 Output\obj\driver\driver_lowpwr.o
                0x0000000000013b1c                lowpwr_is_wakeup_pending
 .com_periph.saradc.kick
                0x0000000000013b40       0x26 Output\obj\driver\driver_saradc.o
                0x0000000000013b40                saradc_kick_start
 .com_periph.saradc.get_channel
                0x0000000000013b66       0x1c Output\obj\driver\driver_saradc.o
                0x0000000000013b66                saradc_get_channel_flag
 .com_periph.saradc.get_data
                0x0000000000013b82       0x64 Output\obj\driver\driver_saradc.o
                0x0000000000013b82                saradc_get_data
 *(.data*)
 *(.sdata*)
 *fill*         0x0000000000013be6        0x2 
 .sdata.__func__.4613
                0x0000000000013be8        0x8 Output\obj\project\ble_peripheral\app\func_bt.o
 .sdata.fot_auth_data
                0x0000000000013bf0        0x7 Output\obj\project\ble_peripheral\ble\ble_fota_service.o
 *fill*         0x0000000000013bf7        0x1 
 .sdata.adv_data_const
                0x0000000000013bf8        0x7 Output\obj\project\ble_peripheral\ble\ble_service.o
                0x0000000000013bf8                adv_data_const
 .sdata.charge_status_last.4759
                0x0000000000013bff        0x1 Output\obj\project\ble_peripheral\bsp\bsp_charge.o
 .sdata.div.4830
                0x0000000000013c00        0x1 Output\obj\project\ble_peripheral\bsp\bsp_saradc_vbat.o
 .sdata.cfg_spiflash_speed_up_en
                0x0000000000013c01        0x1 Output\obj\project\ble_peripheral\strong_symbol.o
                0x0000000000013c01                cfg_spiflash_speed_up_en
 .sdata         0x0000000000013c02        0x1 ..\..\libs\ble\libbtstack.a(extern_ble.o)
                0x0000000000013c02                cfg_bt_sniff_clk_sel
 *fill*         0x0000000000013c03        0x1 
 .sdata         0x0000000000013c04        0xc ..\..\libs\ble\libbtstack.a(btstack_hal.o)
 .sdata         0x0000000000013c10        0x1 ..\..\libs\ble\libbtstack.a(rf_xbox.o)
 *(.mp3_text*)
                0x0000000000013e00                . = ALIGN (0x200)
 *fill*         0x0000000000013c11      0x1ef 

.flash          0x0000000010003400    0x15200
                0x0000000010003400                __code_start_app_proc = .
 *(.text.app.proc.*)
 .text.app.proc.charge
                0x0000000010003400      0x1c4 Output\obj\driver\driver_charge.o
                0x0000000010003400                charge_process
 .text.app.proc.func
                0x00000000100035c4       0x14 Output\obj\project\ble_peripheral\app\func.o
                0x00000000100035c4                func_process
 .text.app.proc.bt
                0x00000000100035d8       0x10 Output\obj\project\ble_peripheral\app\func_bt.o
                0x00000000100035d8                func_bt_sub_process
                0x00000000100035da                func_bt_process
 .text.app.proc.sleep
                0x00000000100035e8       0x7a Output\obj\project\ble_peripheral\app\func_lowpwr.o
                0x00000000100035e8                sleep_process
 .text.app.proc.msg
                0x0000000010003662        0x8 Output\obj\project\ble_peripheral\app\msg_bt.o
                0x0000000010003662                func_bt_message
 .text.app.proc.fot
                0x000000001000366a       0x3a Output\obj\project\ble_peripheral\ble\ble_fota_service.o
                0x000000001000366a                ble_fota_process
 .text.app.proc.ble
                0x00000000100036a4        0xc Output\obj\project\ble_peripheral\ble\ble_proc.o
                0x00000000100036a4                ble_app_proc
 .text.app.proc.ble
                0x00000000100036b0       0x6a Output\obj\project\ble_peripheral\ble\ble_user_service.o
                0x00000000100036b0                ble_user_service_proc
 .text.app.proc.charge
                0x000000001000371a       0xe4 Output\obj\project\ble_peripheral\bsp\bsp_charge.o
                0x000000001000371a                bsp_charge_process
 .text.app.proc.saradc
                0x00000000100037fe       0x2a Output\obj\project\ble_peripheral\bsp\bsp_saradc.o
                0x00000000100037fe                bsp_saradc_process
 .text.app.proc.vbat
                0x0000000010003828       0xd8 Output\obj\project\ble_peripheral\bsp\bsp_saradc_vbat.o
                0x0000000010003828                bsp_vbat_lowpwr_detect
                0x0000000010003880                bsp_vbat_proc
 .text.app.proc.test
                0x0000000010003900        0x2 Output\obj\project\ble_peripheral\production_test\prod_test.o
                0x0000000010003900                prod_test_process
                0x0000000010003a00                . = ALIGN (0x200)
 *fill*         0x0000000010003902       0xfe 
                0x0000000010003a00                __code_end_app_proc = .
                0x0000000010003a00                __code_start_stack_send = .
 *(.text.stack.send.*)
 .text.stack.send.ntf_do
                0x0000000010003a00       0x58 ..\..\libs\ble\libbtstack.a(gatt_server.o)
 .text.stack.send.ntf
                0x0000000010003a58       0x42 ..\..\libs\ble\libbtstack.a(gatt_server.o)
                0x0000000010003a58                ble_send_notify_packet
                0x0000000010003a96                ble_notify_for_handle
 .text.stack.send.server
                0x0000000010003a9a       0x9a ..\..\libs\ble\libbtstack.a(gatt_server.o)
                0x0000000010003a9a                att_event_server_send
 .text.stack.send.ntf
                0x0000000010003b34       0x46 ..\..\libs\ble\libbtstack.a(att_server.o)
                0x0000000010003b34                att_server_notify
 .text.stack.send.ntf
                0x0000000010003b7a       0x3e ..\..\libs\ble\libbtstack.a(att_db.o)
                0x0000000010003b7a                att_prepare_handle_value_notification
 .text.stack.send.l2cap
                0x0000000010003bb8       0x50 ..\..\libs\ble\libbtstack.a(l2cap.o)
                0x0000000010003bb8                l2cap_send_prepared_connectionless
 .text.stack.send.hci
                0x0000000010003c08      0x290 ..\..\libs\ble\libbtstack.a(hci.o)
                0x0000000010003cd0                hci_send_acl_packet_buffer
 .text.stack.send.hci
                0x0000000010003e98       0x92 ..\..\libs\ble\libbtstack.a(hci_transport_hcic.o)
                0x0000000010003e98                hcic_send_acl_segment
                0x0000000010003ec8                hcic_send_packet
 .text.stack.send.hci_tx_done
                0x0000000010003f2a       0x2a ..\..\libs\ble\libbtstack.a(hct_tl.o)
                0x0000000010003f2a                hci_tx_done
 .text.stack.send.hci
                0x0000000010003f54       0x96 ..\..\libs\ble\libbtstack.a(hct_tl.o)
                0x0000000010003f54                hci_acl_tx_data_alloc
                0x0000000010003f8e                hci_acl_tx_data_received
 .text.stack.send.acl
                0x0000000010003fea       0xba ..\..\libs\ble\libbtstack.a(ll_proc.o)
                0x0000000010003fea                hci_acl_data_func
                0x0000000010004200                . = ALIGN (0x200)
 *fill*         0x00000000100040a4      0x15c 
                0x0000000010004200                __code_end_stack_send = .
 *(.text*)
 .text.charge_init
                0x0000000010004200       0xd0 Output\obj\driver\driver_charge.o
                0x0000000010004200                charge_init
 .text.charge_status_update
                0x00000000100042d0      0x140 Output\obj\driver\driver_charge.o
                0x00000000100042d0                charge_status_update
 .text.charge_get_mode
                0x0000000010004410        0x8 Output\obj\driver\driver_charge.o
                0x0000000010004410                charge_get_mode
 .text.clk_gate0_cmd
                0x0000000010004418       0x16 Output\obj\driver\driver_clk.o
                0x0000000010004418                clk_gate0_cmd
 .text.clk_saradc_clk_get
                0x000000001000442e       0x42 Output\obj\driver\driver_clk.o
                0x000000001000442e                clk_saradc_clk_get
 .text.clk_udet_clk_get
                0x0000000010004470       0x3c Output\obj\driver\driver_clk.o
                0x0000000010004470                clk_udet_clk_get
 .text.clk_uart_inc_get
                0x00000000100044ac       0x32 Output\obj\driver\driver_clk.o
                0x00000000100044ac                clk_uart_inc_get
 .text.gpio_init
                0x00000000100044de      0x10e Output\obj\driver\driver_gpio.o
                0x00000000100044de                gpio_init
 .text.gpio_func_mapping_config
                0x00000000100045ec       0xc6 Output\obj\driver\driver_gpio.o
                0x00000000100045ec                gpio_func_mapping_config
 .text.wko_io_config
                0x00000000100046b2       0x4e Output\obj\driver\driver_gpio.o
                0x00000000100046b2                wko_io_config
 .text.wk0_edge_capture_config
                0x0000000010004700       0x5a Output\obj\driver\driver_gpio.o
                0x0000000010004700                wk0_edge_capture_config
 .text.gpio_edge_capture_idx_get
                0x000000001000475a       0x4a Output\obj\driver\driver_gpio.o
                0x000000001000475a                gpio_edge_capture_idx_get
 .text.gpio_edge_capture_config
                0x00000000100047a4       0xa6 Output\obj\driver\driver_gpio.o
                0x00000000100047a4                gpio_edge_capture_config
 .text.gpio_edge_pic_config
                0x000000001000484a       0x26 Output\obj\driver\driver_gpio.o
                0x000000001000484a                gpio_edge_pic_config
 .text.lowpwr_get_wakeup_source
                0x0000000010004870       0xb0 Output\obj\driver\driver_lowpwr.o
                0x0000000010004870                lowpwr_get_wakeup_source
 .text.lowpwr_wakeup_disable
                0x0000000010004920       0x38 Output\obj\driver\driver_lowpwr.o
                0x0000000010004920                lowpwr_wakeup_disable
 .text.lowpwr_clr_wakeup_pending
                0x0000000010004958       0x1c Output\obj\driver\driver_lowpwr.o
                0x0000000010004958                lowpwr_clr_wakeup_pending
 .text.lowpwr_wk0_wakeup_config
                0x0000000010004974       0x6e Output\obj\driver\driver_lowpwr.o
                0x0000000010004974                lowpwr_wk0_wakeup_config
 .text.lowpwr_gpio_wakeup_config
                0x00000000100049e2       0x5a Output\obj\driver\driver_lowpwr.o
                0x00000000100049e2                lowpwr_gpio_wakeup_config
 .text.lowpwr_wakeup_config_do
                0x0000000010004a3c       0xf4 Output\obj\driver\driver_lowpwr.o
                0x0000000010004a3c                lowpwr_wakeup_config_do
 .text.lowpwr_wakeup_config_2
                0x0000000010004b30        0x6 Output\obj\driver\driver_lowpwr.o
                0x0000000010004b30                lowpwr_wakeup_config_2
 .text.lowpwr_wakeup_source_enable
                0x0000000010004b36       0xb8 Output\obj\driver\driver_lowpwr.o
                0x0000000010004b36                lowpwr_wakeup_source_enable
 .text.lowpwr_wakeup_source_disable
                0x0000000010004bee       0xce Output\obj\driver\driver_lowpwr.o
                0x0000000010004bee                lowpwr_wakeup_source_disable
 .text.saradc_init
                0x0000000010004cbc       0x66 Output\obj\driver\driver_saradc.o
                0x0000000010004cbc                saradc_init
 .text.saradc_channel_init
                0x0000000010004d22      0x19e Output\obj\driver\driver_saradc.o
                0x0000000010004d22                saradc_channel_init
 .text.saradc_deinit
                0x0000000010004ec0       0xbc Output\obj\driver\driver_saradc.o
                0x0000000010004ec0                saradc_deinit
 .text.saradc_cmd
                0x0000000010004f7c       0x16 Output\obj\driver\driver_saradc.o
                0x0000000010004f7c                saradc_cmd
 .text.uart_init
                0x0000000010004f92       0xa0 Output\obj\driver\driver_uart.o
                0x0000000010004f92                uart_init
 .text.uart_cmd
                0x0000000010005032       0x10 Output\obj\driver\driver_uart.o
                0x0000000010005032                uart_cmd
 .text.uart_baud_config
                0x0000000010005042       0x72 Output\obj\driver\driver_uart.o
                0x0000000010005042                uart_baud_config
 .text.func.msg
                0x00000000100050b4       0xe4 Output\obj\project\ble_peripheral\app\func.o
                0x00000000100050b4                func_message
 .text.func     0x0000000010005198       0x70 Output\obj\project\ble_peripheral\app\func.o
                0x0000000010005198                func_enter
                0x00000000100051b6                func_exit
                0x00000000100051c0                func_run
 .text.func.bt  0x0000000010005208       0x6c Output\obj\project\ble_peripheral\app\func_bt.o
                0x0000000010005208                func_bt_init
                0x000000001000520c                func_bt_enter
                0x0000000010005222                func_bt_exit
                0x000000001000523c                func_bt
 .text.func.idle
                0x0000000010005274       0x40 Output\obj\project\ble_peripheral\app\func_idle.o
                0x0000000010005274                func_idle_process
                0x0000000010005278                func_idle
 .text.lowpwr.sleep
                0x00000000100052b4      0x150 Output\obj\project\ble_peripheral\app\func_lowpwr.o
                0x00000000100053e6                sfunc_deep_sleep_do
 .text.bsp_gpio_wakeup_config
                0x0000000010005404       0x32 Output\obj\project\ble_peripheral\app\func_lowpwr.o
                0x0000000010005404                bsp_gpio_wakeup_config
 .text.lowpwr_sleep_wakeup_config_do
                0x0000000010005436       0x4a Output\obj\project\ble_peripheral\app\func_lowpwr.o
 .text.lowpwr_sleep_wakeup_config
                0x0000000010005480        0x4 Output\obj\project\ble_peripheral\app\func_lowpwr.o
                0x0000000010005480                lowpwr_sleep_wakeup_config
 .text.lowpwr_pwroff_wakeup_config
                0x0000000010005484       0x3a Output\obj\project\ble_peripheral\app\func_lowpwr.o
                0x0000000010005484                lowpwr_pwroff_wakeup_config
 .text.lowpwr.pwroff
                0x00000000100054be       0x36 Output\obj\project\ble_peripheral\app\func_lowpwr.o
                0x00000000100054be                func_pwroff
 .text.func.msg
                0x00000000100054f4        0xe Output\obj\project\ble_peripheral\app\msg_bt.o
                0x00000000100054f4                func_bt_message_do
 .text.func.idle.msg
                0x0000000010005502        0x4 Output\obj\project\ble_peripheral\app\msg_idle.o
                0x0000000010005502                func_idle_message
 .text.fota_read_callback
                0x0000000010005506       0x32 Output\obj\project\ble_peripheral\ble\ble_fota_service.o
 .text.fot.cache
                0x0000000010005538      0x5a0 Output\obj\project\ble_peripheral\ble\ble_fota_service.o
                0x000000001000558c                fot_recv_proc
                0x00000000100059f6                ble_fota_process_do
                0x0000000010005a70                ble_fota_flag_do
 .text.fot.update
                0x0000000010005ad8       0x94 Output\obj\project\ble_peripheral\ble\ble_fota_service.o
                0x0000000010005ad8                ble_fota_init
                0x0000000010005b08                ble_fota_pause
                0x0000000010005b26                ble_fota_continue
 .text.ble_fota_exit
                0x0000000010005b6c       0x20 Output\obj\project\ble_peripheral\ble\ble_fota_service.o
                0x0000000010005b6c                ble_fota_exit
 .text.fota_ble_disconnect_callback
                0x0000000010005b8c       0x14 Output\obj\project\ble_peripheral\ble\ble_fota_service.o
                0x0000000010005b8c                fota_ble_disconnect_callback
 .text.fota_event_callback
                0x0000000010005ba0       0x52 Output\obj\project\ble_peripheral\ble\ble_fota_service.o
 .text.fota_write_callback
                0x0000000010005bf2       0x5e Output\obj\project\ble_peripheral\ble\ble_fota_service.o
 .text.ble_fota_service_init
                0x0000000010005c50       0x52 Output\obj\project\ble_peripheral\ble\ble_fota_service.o
                0x0000000010005c50                ble_fota_service_init
 .text.ble_set_work_mode
                0x0000000010005ca2        0x8 Output\obj\project\ble_peripheral\ble\ble_init.o
                0x0000000010005ca2                ble_set_work_mode
 .text.ble_txpkt_init
                0x0000000010005caa       0x40 Output\obj\project\ble_peripheral\ble\ble_init.o
                0x0000000010005caa                ble_txpkt_init
 .text.ble_adv_param_init
                0x0000000010005cea       0x52 Output\obj\project\ble_peripheral\ble\ble_init.o
                0x0000000010005cea                ble_adv_param_init
 .text.ble_periph_init
                0x0000000010005d3c       0x1a Output\obj\project\ble_peripheral\ble\ble_init.o
                0x0000000010005d3c                ble_periph_init
 .text.bsp_ble_init
                0x0000000010005d56       0x22 Output\obj\project\ble_peripheral\ble\ble_init.o
                0x0000000010005d56                bsp_ble_init
 .text.ble_enter_sleep_proc
                0x0000000010005d78       0x5c Output\obj\project\ble_peripheral\ble\ble_proc.o
                0x0000000010005d78                ble_enter_sleep_proc
 .text.ble_exit_sleep_proc
                0x0000000010005dd4       0x3a Output\obj\project\ble_peripheral\ble\ble_proc.o
                0x0000000010005dd4                ble_exit_sleep_proc
 .text.ble_get_scan_data
                0x0000000010005e0e       0x58 Output\obj\project\ble_peripheral\ble\ble_service.o
                0x0000000010005e0e                ble_get_scan_data
 .text.ble_get_adv_data
                0x0000000010005e66       0x66 Output\obj\project\ble_peripheral\ble\ble_service.o
                0x0000000010005e66                ble_get_adv_data
 .text.ble_get_profile_data
                0x0000000010005ecc        0xa Output\obj\project\ble_peripheral\ble\ble_service.o
                0x0000000010005ecc                ble_get_profile_data
 .text.ble_service_init
                0x0000000010005ed6       0x1a Output\obj\project\ble_peripheral\ble\ble_service.o
                0x0000000010005ed6                ble_service_init
 .text.ble_event_callback
                0x0000000010005ef0       0xea Output\obj\project\ble_peripheral\ble\ble_user_service.o
 .text.service_read_callback
                0x0000000010005fda       0x62 Output\obj\project\ble_peripheral\ble\ble_user_service.o
 .text.service_write_callback
                0x000000001000603c       0x9c Output\obj\project\ble_peripheral\ble\ble_user_service.o
 .text.ble_user_service_init
                0x00000000100060d8       0x52 Output\obj\project\ble_peripheral\ble\ble_user_service.o
                0x00000000100060d8                ble_user_service_init
 .text.bsp_charge_init
                0x000000001000612a       0x2c Output\obj\project\ble_peripheral\bsp\bsp_charge.o
                0x000000001000612a                bsp_charge_init
 .text.bsp_io_key_init
                0x0000000010006156        0xa Output\obj\project\ble_peripheral\bsp\bsp_io_key.o
                0x0000000010006156                bsp_io_key_init
 .text.bsp_key_init
                0x0000000010006160       0x28 Output\obj\project\ble_peripheral\bsp\bsp_key.o
                0x0000000010006160                bsp_key_init
 .text.bsp.param
                0x0000000010006188       0x18 Output\obj\project\ble_peripheral\bsp\bsp_param.o
                0x0000000010006188                bsp_param_init
                0x0000000010006194                bsp_param_write
                0x0000000010006198                bsp_param_read
                0x000000001000619c                bsp_param_sync
 .text.bsp.param.fota
                0x00000000100061a0       0x64 Output\obj\project\ble_peripheral\bsp\bsp_param.o
                0x00000000100061a0                param_fot_addr_write
                0x00000000100061b4                param_fot_addr_read
                0x00000000100061bc                param_fot_remote_ver_write
                0x00000000100061d0                param_fot_remote_ver_read
                0x00000000100061d8                param_fot_head_info_write
                0x00000000100061ec                param_fot_head_info_read
                0x00000000100061f4                param_fot_hash_write
                0x00000000100061fc                param_fot_hash_read
 .text.bsp_saradc_init
                0x0000000010006204       0x38 Output\obj\project\ble_peripheral\bsp\bsp_saradc.o
                0x0000000010006204                bsp_saradc_init
 .text.bsp_vbat_filter
                0x000000001000623c       0x62 Output\obj\project\ble_peripheral\bsp\bsp_saradc_vbat.o
                0x000000001000623c                bsp_vbat_filter
 .text.bsp_vbat_detect_init
                0x000000001000629e       0x3c Output\obj\project\ble_peripheral\bsp\bsp_saradc_vbat.o
                0x000000001000629e                bsp_vbat_detect_init
 .text.bsp_get_vbat_level
                0x00000000100062da       0x40 Output\obj\project\ble_peripheral\bsp\bsp_saradc_vbat.o
                0x00000000100062da                bsp_get_vbat_level
 .text.power_on_vbat_check
                0x000000001000631a       0x28 Output\obj\project\ble_peripheral\bsp\bsp_sys.o
 .text.sys_ram_info_dump
                0x0000000010006342       0x92 Output\obj\project\ble_peripheral\bsp\bsp_sys.o
                0x0000000010006342                sys_ram_info_dump
 .text.bsp.sys.init
                0x00000000100063d4       0xbc Output\obj\project\ble_peripheral\bsp\bsp_sys.o
                0x00000000100063d4                bsp_sys_init
 .text.bsp_periph_init
                0x0000000010006490       0x16 Output\obj\project\ble_peripheral\bsp\bsp_sys.o
                0x0000000010006490                bsp_periph_init
 .text.bsp_uart_debug_init
                0x00000000100064a6       0x7c Output\obj\project\ble_peripheral\bsp\bsp_uart_debug.o
                0x00000000100064a6                bsp_uart_debug_init
 .text.startup.main
                0x0000000010006522       0x58 Output\obj\project\ble_peripheral\main.o
                0x0000000010006522                main
 .text.prod_test_init
                0x000000001000657a        0x2 Output\obj\project\ble_peripheral\production_test\prod_test.o
                0x000000001000657a                prod_test_init
 .text.mem_heap_size_get
                0x000000001000657c        0x8 Output\obj\project\ble_peripheral\strong_symbol.o
                0x000000001000657c                mem_heap_size_get
 .text.thread_cfg_get
                0x0000000010006584        0xa Output\obj\project\ble_peripheral\strong_symbol.o
                0x0000000010006584                thread_cfg_get
 .text.thread_create_callback
                0x000000001000658e        0x4 Output\obj\project\ble_peripheral\strong_symbol.o
                0x000000001000658e                thread_create_callback
 .text.ble_get_local_bd_addr
                0x0000000010006592       0x14 Output\obj\project\ble_peripheral\strong_symbol.o
                0x0000000010006592                ble_get_local_bd_addr
 .text.bt_rf_get_param
                0x00000000100065a6       0x44 Output\obj\project\ble_peripheral\strong_symbol.o
                0x00000000100065a6                bt_rf_get_param
 .text.bt_rf_get_tx_pwr
                0x00000000100065ea       0x1a Output\obj\project\ble_peripheral\strong_symbol.o
                0x00000000100065ea                bt_rf_get_tx_pwr
 .text.xosc_get_xcfg
                0x0000000010006604       0x20 Output\obj\project\ble_peripheral\strong_symbol.o
                0x0000000010006604                xosc_get_xcfg
 .text.param_xosc_read
                0x0000000010006624        0x8 Output\obj\project\ble_peripheral\strong_symbol.o
                0x0000000010006624                param_xosc_read
 .text.param_xosc_write
                0x000000001000662c       0x14 Output\obj\project\ble_peripheral\strong_symbol.o
                0x000000001000662c                param_xosc_write
 .text.hci_fcc_init
                0x0000000010006640        0x2 Output\obj\project\ble_peripheral\strong_symbol.o
                0x0000000010006640                hci_fcc_init
 .text.bt_uart_isr
                0x0000000010006642        0x4 Output\obj\project\ble_peripheral\strong_symbol.o
                0x0000000010006642                bt_uart_isr
 .text.sys_clk_change_callback
                0x0000000010006646       0x10 Output\obj\project\ble_peripheral\strong_symbol.o
                0x0000000010006646                sys_clk_change_callback
 .text.uart_debug_init_callback
                0x0000000010006656        0x4 Output\obj\project\ble_peripheral\strong_symbol.o
                0x0000000010006656                uart_debug_init_callback
 .text.ble_sm_server_event_do
                0x000000001000665a        0x2 Output\obj\project\ble_peripheral\strong_symbol.o
                0x000000001000665a                ble_sm_server_event_do
 .text.sm_send_security_request
                0x000000001000665c        0x2 Output\obj\project\ble_peripheral\strong_symbol.o
                0x000000001000665c                sm_send_security_request
 .text.sm_request_pairing
                0x000000001000665e        0x2 Output\obj\project\ble_peripheral\strong_symbol.o
                0x000000001000665e                sm_request_pairing
 .text.sm_passkey_input
                0x0000000010006660        0x2 Output\obj\project\ble_peripheral\strong_symbol.o
                0x0000000010006660                sm_passkey_input
 .text.sm_passkey_input_get
                0x0000000010006662        0x4 Output\obj\project\ble_peripheral\strong_symbol.o
                0x0000000010006662                sm_passkey_input_get
 .text.ble_get_link_info
                0x0000000010006666        0x6 Output\obj\project\ble_peripheral\strong_symbol.o
                0x0000000010006666                ble_get_link_info
 .text.ble_put_link_info
                0x000000001000666c       0x10 Output\obj\project\ble_peripheral\strong_symbol.o
                0x000000001000666c                ble_put_link_info
 .text.ble_mtu_exchange_enabled
                0x000000001000667c        0x4 Output\obj\project\ble_peripheral\strong_symbol.o
                0x000000001000667c                ble_mtu_exchange_enabled
 .text.ble_disconnected_restart_adv
                0x0000000010006680        0x4 Output\obj\project\ble_peripheral\strong_symbol.o
                0x0000000010006680                ble_disconnected_restart_adv
 .text.ble_rx_exit_sleep
                0x0000000010006684        0x4 Output\obj\project\ble_peripheral\strong_symbol.o
                0x0000000010006684                ble_rx_exit_sleep
 .text.ble_feature_exchange_enabled
                0x0000000010006688        0x4 Output\obj\project\ble_peripheral\strong_symbol.o
                0x0000000010006688                ble_feature_exchange_enabled
 .text.ble_length_request_enabled
                0x000000001000668c        0x4 Output\obj\project\ble_peripheral\strong_symbol.o
                0x000000001000668c                ble_length_request_enabled
 .text.ble_phy_update_enable
                0x0000000010006690        0x4 Output\obj\project\ble_peripheral\strong_symbol.o
                0x0000000010006690                ble_phy_update_enable
 .text.cm_loadpage
                0x0000000010006694       0xb4 ..\..\libs\cpu\libplatform.a(cm.o)
 .text.cm_next_freepage
                0x0000000010006748       0x42 ..\..\libs\cpu\libplatform.a(cm.o)
 .text.cm_loadparam
                0x000000001000678a        0x4 ..\..\libs\cpu\libplatform.a(cm.o)
                0x000000001000678a                cm_loadparam
 .text.cm_factory
                0x000000001000678e        0xa ..\..\libs\cpu\libplatform.a(cm.o)
                0x000000001000678e                cm_factory
 .text.cm_addr_check
                0x0000000010006798        0x4 ..\..\libs\cpu\libplatform.a(cm.o)
                0x0000000010006798                cm_addr_check
 .text.cm_writepage
                0x000000001000679c       0x2a ..\..\libs\cpu\libplatform.a(cm.o)
 .text.cm_movepage
                0x00000000100067c6       0x50 ..\..\libs\cpu\libplatform.a(cm.o)
 .text.cm_erase
                0x0000000010006816       0x1e ..\..\libs\cpu\libplatform.a(cm.o)
 .text.cm_release
                0x0000000010006834       0xf8 ..\..\libs\cpu\libplatform.a(cm.o)
 .text.cm_savepage
                0x000000001000692c       0xb6 ..\..\libs\cpu\libplatform.a(cm.o)
 .text.cm_check_loadpage
                0x00000000100069e2       0xb0 ..\..\libs\cpu\libplatform.a(cm.o)
 .text.cm_sync  0x0000000010006a92       0x3e ..\..\libs\cpu\libplatform.a(cm.o)
                0x0000000010006a92                cm_sync
 .text.cm_read  0x0000000010006ad0       0x44 ..\..\libs\cpu\libplatform.a(cm.o)
                0x0000000010006ad0                cm_read
 .text.cm_write
                0x0000000010006b14       0x5e ..\..\libs\cpu\libplatform.a(cm.o)
                0x0000000010006b14                cm_write
 .text.cm_init  0x0000000010006b72      0x1be ..\..\libs\cpu\libplatform.a(cm.o)
                0x0000000010006b72                cm_init
 .text.xcfg_init
                0x0000000010006d30       0x54 ..\..\libs\cpu\libplatform.a(xcfg.o)
                0x0000000010006d30                xcfg_init
 .text.platform_main
                0x0000000010006d84      0x1e6 ..\..\libs\cpu\libplatform.a(main.o)
                0x0000000010006d84                platform_main
 .text.main_startup
                0x0000000010006f6a        0xe ..\..\libs\cpu\libplatform.a(main.o)
                0x0000000010006f6a                main_startup
 .text.sys_irq_init
                0x0000000010006f78       0x8e ..\..\libs\cpu\libplatform.a(interrupt.o)
                0x0000000010006f78                sys_irq_init
 .text.soft_irq_init
                0x0000000010007006       0x3c ..\..\libs\cpu\libplatform.a(interrupt.o)
                0x0000000010007006                soft_irq_init
 .text.bthw_irq_init
                0x0000000010007042       0x12 ..\..\libs\cpu\libplatform.a(interrupt.o)
                0x0000000010007042                bthw_irq_init
 .text.sys_timer_init
                0x0000000010007054       0x84 ..\..\libs\cpu\libplatform.a(interrupt.o)
                0x0000000010007054                sys_timer_init
 .text.thread_btstack_create
                0x00000000100070d8       0x8a ..\..\libs\cpu\libplatform.a(startup.o)
                0x00000000100070d8                thread_btstack_create
 .text.thread_main_entry
                0x0000000010007162       0x8a ..\..\libs\cpu\libplatform.a(startup.o)
 .text.startup.init
                0x00000000100071ec      0x10a ..\..\libs\cpu\libplatform.a(startup.o)
                0x00000000100071ec                platform_init
                0x00000000100071f4                sys_startup
 .text.bt_set_timer_enable
                0x00000000100072f6       0x18 ..\..\libs\cpu\libplatform.a(startup.o)
                0x00000000100072f6                bt_set_timer_enable
 .text.sys_set_tmr_enable
                0x000000001000730e       0x22 ..\..\libs\cpu\libplatform.a(startup.o)
                0x000000001000730e                sys_set_tmr_enable
 .text.sys_hook_init
                0x0000000010007330        0x2 ..\..\libs\cpu\libplatform.a(sys_hook.o)
                0x0000000010007330                sys_hook_init
 .text.pll0_vco_band_trimming
                0x0000000010007332       0x5a ..\..\libs\cpu\libplatform.a(pll.o)
                0x0000000010007332                pll0_vco_band_trimming
 .text.pll0_init
                0x000000001000738c       0xd6 ..\..\libs\cpu\libplatform.a(pll.o)
                0x000000001000738c                pll0_init
 .text.pll0_disable
                0x0000000010007462       0x48 ..\..\libs\cpu\libplatform.a(pll.o)
                0x0000000010007462                pll0_disable
 .text.pmu_set_buck_mode
                0x00000000100074aa       0x9e ..\..\libs\cpu\libplatform.a(pmu.o)
                0x00000000100074aa                pmu_set_buck_mode
 .text.pmu_voltage_configure
                0x0000000010007548       0x6a ..\..\libs\cpu\libplatform.a(pmu.o)
                0x0000000010007548                pmu_voltage_configure
 .text.pmu_init
                0x00000000100075b2      0x30c ..\..\libs\cpu\libplatform.a(pmu.o)
                0x00000000100075b2                pmu_init
 .text.sleep.rc
                0x00000000100078be       0x3e ..\..\libs\cpu\libplatform.a(rc.o)
                0x00000000100078be                rc_sleep_get_freqcnt
 .text.debug_set
                0x00000000100078fc       0x1a ..\..\libs\cpu\libplatform.a(debug.o)
                0x00000000100078fc                debug_set
 .text.ota_pack
                0x0000000010007916      0x51e ..\..\libs\cpu\libplatform.a(fot_pack.o)
                0x0000000010007a14                ota_pack_init
                0x0000000010007a54                ota_pack_verify
 .text.ota_pack_deinit
                0x0000000010007e34       0x1e ..\..\libs\cpu\libplatform.a(fot_pack.o)
                0x0000000010007e34                ota_pack_deinit
 .text.ota_pack_get_curaddr
                0x0000000010007e52        0x8 ..\..\libs\cpu\libplatform.a(fot_pack.o)
                0x0000000010007e52                ota_pack_get_curaddr
 .text.ota_pack_get_err
                0x0000000010007e5a       0x10 ..\..\libs\cpu\libplatform.a(fot_pack.o)
                0x0000000010007e5a                ota_pack_get_err
 .text.ota_pack_is_update_success
                0x0000000010007e6a        0x8 ..\..\libs\cpu\libplatform.a(fot_pack.o)
                0x0000000010007e6a                ota_pack_is_update_success
 .text.ota_pack_done
                0x0000000010007e72       0x44 ..\..\libs\cpu\libplatform.a(fot_pack.o)
                0x0000000010007e72                ota_pack_done
 .text.fot.cache
                0x0000000010007eb6      0x180 ..\..\libs\cpu\libplatform.a(fot_pack.o)
                0x0000000010007eb6                ota_pack_write
 .text.ota_pack_breakpoint_info_read
                0x0000000010008036       0xc8 ..\..\libs\cpu\libplatform.a(fot_pack.o)
                0x0000000010008036                ota_pack_breakpoint_info_read
 .text.bsp.key.init
                0x00000000100080fe       0x38 ..\..\libs\cpu\libplatform.a(key.o)
                0x00000000100080fe                multiple_key_init
 .text.lock_init
                0x0000000010008136       0x1c ..\..\libs\cpu\libplatform.a(lock.o)
                0x0000000010008136                lock_init
 .text.patch_init
                0x0000000010008152       0x1e ..\..\libs\cpu\libplatform.a(patch.o)
                0x0000000010008152                patch_init
 .text.udivmoddi4
                0x0000000010008170       0x96 ..\..\libs\cpu\libplatform.a(sys.o)
 .text.sys_rst_init
                0x0000000010008206       0x7c ..\..\libs\cpu\libplatform.a(sys.o)
                0x0000000010008206                sys_rst_init
 .text.sys_rst_dump
                0x0000000010008282       0x86 ..\..\libs\cpu\libplatform.a(sys.o)
                0x0000000010008282                sys_rst_dump
 .text.rc2m_clk_nhz_cal
                0x0000000010008308      0x100 ..\..\libs\cpu\libplatform.a(sys.o)
                0x0000000010008308                rc2m_clk_nhz_cal
 .text.rc2m_clk_nhz_get
                0x0000000010008408       0x10 ..\..\libs\cpu\libplatform.a(sys.o)
                0x0000000010008408                rc2m_clk_nhz_get
 .text.sys_get_rand_key_init
                0x0000000010008418        0xa ..\..\libs\cpu\libplatform.a(sys.o)
                0x0000000010008418                sys_get_rand_key_init
 .text.xosc_init
                0x0000000010008422       0x92 ..\..\libs\cpu\libplatform.a(sys.o)
                0x0000000010008422                xosc_init
 .text.bsp.param
                0x00000000100084b4       0x26 ..\..\libs\cpu\libplatform.a(sys.o)
                0x00000000100084b4                bt_save_xosc_cap
 .text.bt_get_xosc_cap
                0x00000000100084da        0xc ..\..\libs\cpu\libplatform.a(sys.o)
                0x00000000100084da                bt_get_xosc_cap
 .text.bt_set_xosc_cap
                0x00000000100084e6       0x18 ..\..\libs\cpu\libplatform.a(sys.o)
                0x00000000100084e6                bt_set_xosc_cap
 .text.bt_adj_xosc_cap
                0x00000000100084fe       0x72 ..\..\libs\cpu\libplatform.a(sys.o)
                0x00000000100084fe                bt_adj_xosc_cap
 .text.__udivdi3
                0x0000000010008570        0x6 ..\..\libs\cpu\libplatform.a(sys.o)
                0x0000000010008570                __udivdi3
 .text.sys_clk_cacl_curr
                0x0000000010008576       0x28 ..\..\libs\cpu\libplatform.a(sys_clk.o)
 *fill*         0x000000001000859e       0x62 
 .text.set_sys_clk_do
                0x0000000010008600      0x1ea ..\..\libs\cpu\libplatform.a(sys_clk.o)
                0x0000000010008600                set_sys_clk_do
 .text.sys_clk  0x00000000100087ea      0x1ec ..\..\libs\cpu\libplatform.a(sys_clk.o)
                0x00000000100087ea                sys_clk_get_cur
                0x00000000100087f2                sys_clk_set_do
 .text.sys_clk_nhz_get
                0x00000000100089d6       0x5c ..\..\libs\cpu\libplatform.a(sys_clk.o)
                0x00000000100089d6                sys_clk_nhz_get
 .text.sys_clk_get
                0x0000000010008a32        0x8 ..\..\libs\cpu\libplatform.a(sys_clk.o)
                0x0000000010008a32                sys_clk_get
 .text.sys_clk_set
                0x0000000010008a3a       0x60 ..\..\libs\cpu\libplatform.a(sys_clk.o)
                0x0000000010008a3a                sys_clk_set
 *fill*         0x0000000010008a9a        0x2 
 .text.sys_clk.table
                0x0000000010008a9c       0x1a ..\..\libs\cpu\libplatform.a(sys_clk.o)
                0x0000000010008a9c                sysclk_info_tbl
 .text.charge_const_curr_trim
                0x0000000010008ab6       0x7a ..\..\libs\cpu\libplatform.a(voltage_trim.o)
                0x0000000010008ab6                charge_const_curr_trim
 .text.charge_cutoff_curr_trim
                0x0000000010008b30       0x6e ..\..\libs\cpu\libplatform.a(voltage_trim.o)
                0x0000000010008b30                charge_cutoff_curr_trim
 .text.voltage.trim
                0x0000000010008b9e      0x1a2 ..\..\libs\cpu\libplatform.a(voltage_trim.o)
                0x0000000010008b9e                bt_get_ft_trim_value
                0x0000000010008be8                voltage_trim_value_init
 .text.xosc_24m_div_get
                0x0000000010008d40        0x4 ..\..\libs\cpu\libplatform.a(weak_symbol.o)
                0x0000000010008d40                xosc_24m_div_get
 .text.rf_ft_trim_dig_gain_adjust
                0x0000000010008d44        0x4 ..\..\libs\cpu\libplatform.a(weak_symbol.o)
                0x0000000010008d44                rf_ft_trim_dig_gain_adjust
 .text.calc_crc32
                0x0000000010008d48       0x2e ..\..\libs\cpu\libplatform.a(crc.o)
                0x0000000010008d48                calc_crc32
 .text          0x0000000010008d76       0x78 ..\..\libs\ble\libbtstack.a(txpkt.o)
                0x0000000010008d76                txpkt_init
 *fill*         0x0000000010008dee       0x12 
 .text.txpkt.flush
                0x0000000010008e00       0x82 ..\..\libs\ble\libbtstack.a(txpkt.o)
                0x0000000010008e00                txpkt_flush
 .text.sm.aes   0x0000000010008e82       0x3a ..\..\libs\ble\libbtstack.a(sm.o)
 .text.sm.get_handle
                0x0000000010008ebc       0x16 ..\..\libs\ble\libbtstack.a(sm.o)
 .text.sm.rau_run
                0x0000000010008ed2       0x90 ..\..\libs\ble\libbtstack.a(sm.o)
 .text.gap.trig
                0x0000000010008f62       0x18 ..\..\libs\ble\libbtstack.a(sm.o)
 .text.gap.rau.update
                0x0000000010008f7a       0x46 ..\..\libs\ble\libbtstack.a(sm.o)
                0x0000000010008fa0                gap_random_address_update
 .text.sm.is_null
                0x0000000010008fc0       0x1c ..\..\libs\ble\libbtstack.a(sm.o)
                0x0000000010008fc0                sm_is_null
 .text.sm.hdl   0x0000000010008fdc        0xc ..\..\libs\ble\libbtstack.a(sm.o)
                0x0000000010008fdc                sm_add_event_handler
 .text.sm.deinit
                0x0000000010008fe8        0x8 ..\..\libs\ble\libbtstack.a(sm.o)
                0x0000000010008fe8                sm_deinit
 .text.sm.auth.sta
                0x0000000010008ff0       0x24 ..\..\libs\ble\libbtstack.a(sm.o)
                0x0000000010008ff0                sm_authorization_state
 .text.sm.index
                0x0000000010009014       0x14 ..\..\libs\ble\libbtstack.a(sm.o)
                0x0000000010009014                sm_le_device_index
 .text.gap.rau.mode
                0x0000000010009028       0x54 ..\..\libs\ble\libbtstack.a(sm.o)
                0x0000000010009028                gap_random_address_set_mode
 .text.gap.rau_set
                0x000000001000907c       0x28 ..\..\libs\ble\libbtstack.a(sm.o)
                0x000000001000907c                gap_random_address_set
 .text.sm.addr  0x00000000100090a4        0xc ..\..\libs\ble\libbtstack.a(sm.o)
                0x00000000100090a4                gap_random_address_get
 .text.gap.adv  0x00000000100090b0        0x4 ..\..\libs\ble\libbtstack.a(sm.o)
                0x00000000100090b0                gap_advertisements_set_params
 .text.le.db.max
                0x00000000100090b4        0x4 ..\..\libs\ble\libbtstack.a(le_device_db_memory.o)
                0x00000000100090b4                ble_bonding_info_max_count
 .text.le.db.write
                0x00000000100090b8       0x1a ..\..\libs\ble\libbtstack.a(le_device_db_memory.o)
                0x00000000100090b8                le_device_db_info_save_for_index
 .text.le.db.read
                0x00000000100090d2       0x1a ..\..\libs\ble\libbtstack.a(le_device_db_memory.o)
                0x00000000100090d2                le_device_db_info_load_for_index
 .text.le.db.init
                0x00000000100090ec       0x58 ..\..\libs\ble\libbtstack.a(le_device_db_memory.o)
                0x00000000100090ec                le_device_db_init
 .text          0x0000000010009144       0x24 ..\..\libs\ble\libbtstack.a(gatt_server.o)
                0x0000000010009144                att_server_send_func_get
 .text.ble.indicate
                0x0000000010009168       0x9e ..\..\libs\ble\libbtstack.a(gatt_server.o)
                0x0000000010009168                ble_send_indicate_packet
                0x00000000100091a6                ble_indicate_for_handle
 .text.client.get_context
                0x0000000010009206       0x18 ..\..\libs\ble\libbtstack.a(gatt_client.o)
                0x0000000010009206                gatt_client_get_context_for_handle
 .text.client.request_can_send
                0x000000001000921e       0x28 ..\..\libs\ble\libbtstack.a(gatt_client.o)
                0x000000001000921e                att_client_request_can_send_now_event
 .text.client.send_req
                0x0000000010009246       0x16 ..\..\libs\ble\libbtstack.a(gatt_client.o)
                0x0000000010009246                btstack_ble_client_send_req
 .text          0x000000001000925c      0x1c4 ..\..\libs\ble\libbtstack.a(att_server.o)
                0x0000000010009378                att_server_handler_list_init
                0x0000000010009380                att_server_mtu_exch_complete_ind
                0x0000000010009390                att_server_can_send_packet_now
 .text.server.register_service
                0x0000000010009420       0x2a ..\..\libs\ble\libbtstack.a(att_server.o)
                0x0000000010009420                att_server_register_service_handler
 .text.server.init
                0x000000001000944a       0x7a ..\..\libs\ble\libbtstack.a(att_server.o)
                0x000000001000944a                att_server_init
 .text.server.packet_handler
                0x00000000100094c4      0x1a4 ..\..\libs\ble\libbtstack.a(att_server.o)
 .text.att.event_handler
                0x0000000010009668      0x164 ..\..\libs\ble\libbtstack.a(att_server.o)
 .text.server.indicate
                0x00000000100097cc       0x90 ..\..\libs\ble\libbtstack.a(att_server.o)
                0x00000000100097cc                att_server_indicate
 .text          0x000000001000985c      0x1ce ..\..\libs\ble\libbtstack.a(att_dispatch.o)
                0x000000001000993e                att_dispatch_connected_event
                0x000000001000999c                att_dispatch_disconnected_event
                0x00000000100099c4                att_dispatch_connect_param_update_event
                0x00000000100099f2                att_dispatch_encryption_change_event
                0x0000000010009a22                att_dispatch_sm_event
 .text.att.is_register_client
                0x0000000010009a2a        0xc ..\..\libs\ble\libbtstack.a(att_dispatch.o)
                0x0000000010009a2a                att_dispatch_client_is_register
 .text.att.register_server
                0x0000000010009a36       0x14 ..\..\libs\ble\libbtstack.a(att_dispatch.o)
                0x0000000010009a36                att_dispatch_register_server
 .text.att.dispatch
                0x0000000010009a4a        0x6 ..\..\libs\ble\libbtstack.a(att_dispatch.o)
                0x0000000010009a4a                att_dispatch_can_send_now
 .text.att.dispatch_client
                0x0000000010009a50       0x12 ..\..\libs\ble\libbtstack.a(att_dispatch.o)
                0x0000000010009a50                att_dispatch_client_request_can_send_now_event
 .text.att.server_mtu
                0x0000000010009a62       0x2a ..\..\libs\ble\libbtstack.a(att_dispatch.o)
                0x0000000010009a62                att_dispatch_server_mtu_exchanged
 *fill*         0x0000000010009a8c        0x0 
 .text          0x0000000010009a8c      0xddc ..\..\libs\ble\libbtstack.a(att_db.o)
                0x0000000010009c86                att_uuid_for_handle
                0x0000000010009cb0                att_set_db
                0x0000000010009cb8                att_set_read_callback
                0x0000000010009cc0                att_set_write_callback
                0x0000000010009cc8                handle_exchange_mtu_request
                0x0000000010009cf0                att_clear_transaction_queue
                0x0000000010009d0c                att_prepare_handle_value_indication
                0x0000000010009d4a                att_handle_request
                0x000000001000a714                gatt_server_get_get_handle_range_for_service_with_uuid16
                0x000000001000a79a                gatt_server_get_value_handle_for_characteristic_with_uuid16
                0x000000001000a7dc                gatt_server_get_client_configuration_handle_for_characteristic_with_uuid16
 .text.att.mtu_request
                0x000000001000a868       0x38 ..\..\libs\ble\libbtstack.a(att_db.o)
                0x000000001000a868                att_exchange_mtu_request
 .text.att_server.mtu_rsp
                0x000000001000a8a0       0x2a ..\..\libs\ble\libbtstack.a(att_db.o)
                0x000000001000a8a0                handle_exchange_mtu_response
 .text          0x000000001000a8ca       0xf8 ..\..\libs\ble\libbtstack.a(btstack_api.o)
                0x000000001000a8ca                btstack_ble_disable_ext_adv
                0x000000001000a8cc                btstack_ble_enable_adv
                0x000000001000a8d2                btstack_ble_disable_adv
                0x000000001000a8d8                btstack_ble_set_adv_param
                0x000000001000a92c                btstack_ble_sm_passkey_input
                0x000000001000a942                btstack_ble_sm_send_security_request
                0x000000001000a946                btstack_ble_ctrl_connection_latency
                0x000000001000a952                btstack_ble_set_random_static_addr
                0x000000001000a95c                btstack_ble_update_random_addr
                0x000000001000a960                btstack_ble_single_tone_mode_enter
                0x000000001000a976                btstack_ctl_api
                0x000000001000a98e                btstack_ble_rmv_dev_from_white_list
                0x000000001000a990                btstack_ble_enable_ext_adv
                0x000000001000a992                btstack_ble_set_ext_adv_data
                0x000000001000a994                btstack_ble_set_ext_adv_param
                0x000000001000a996                btstack_ble_enable_scan
                0x000000001000a998                btstack_ble_disable_scan
                0x000000001000a99a                btstack_ble_set_scan_param
                0x000000001000a99c                btstack_ble_conn_by_addr
                0x000000001000a99e                btstack_ble_ext_conn_by_addr
                0x000000001000a9a0                btstack_ble_conn_cancel
                0x000000001000a9a2                btstack_ble_rslv_enable
                0x000000001000a9a4                btstack_ble_rslv_renew_to_set
                0x000000001000a9a6                btstack_ble_add_dev_to_ral_list
                0x000000001000a9a8                btstack_ble_rmv_dev_from_ral_list
                0x000000001000a9aa                btstack_ble_add_dev_to_white_list
                0x000000001000a9ac                btstack_var_init
                0x000000001000a9be                btstack_ble_get_conn_rssi
 .text.stack.sleep
                0x000000001000a9c2       0x24 ..\..\libs\ble\libbtstack.a(btstack_api.o)
                0x000000001000a9c2                btstack_exit_sleep
                0x000000001000a9ce                btstack_enter_sleep
 .text.stack.api
                0x000000001000a9e6       0x34 ..\..\libs\ble\libbtstack.a(btstack_api.o)
                0x000000001000a9e6                btstack_off
                0x000000001000aa06                bt_init
 .text.stack.setup
                0x000000001000aa1a       0x4e ..\..\libs\ble\libbtstack.a(btstack_api.o)
                0x000000001000aa1a                btstack_setup
 .text.ble.hci  0x000000001000aa68       0xf8 ..\..\libs\ble\libbtstack.a(btstack_api.o)
                0x000000001000aa68                btstack_ble_set_adv_interval
                0x000000001000aa90                btstack_ble_set_adv_data
                0x000000001000aaa0                btstack_ble_set_scan_rsp_data
                0x000000001000aab0                btstack_ble_disconnect
                0x000000001000aaca                btstack_ble_update_conn_param
                0x000000001000ab1a                btstack_ble_ll_update_conn_param
 .text.stack.api
                0x000000001000ab60       0x5c ..\..\libs\ble\libbtstack.a(bt_api.o)
                0x000000001000ab60                bt_off
                0x000000001000ab8a                bt_setup
 .text.stack.sleep
                0x000000001000abbc       0xb4 ..\..\libs\ble\libbtstack.a(bt_api.o)
                0x000000001000abbc                bt_enter_sleep
                0x000000001000ac16                bt_exit_sleep
 .text.ble.api.conn.update
                0x000000001000ac70       0x90 ..\..\libs\ble\libbtstack.a(ble_api.o)
                0x000000001000acf6                ble_update_conn_param
 .text.ble.api.adv_interval.set
                0x000000001000ad00       0x36 ..\..\libs\ble\libbtstack.a(ble_api.o)
                0x000000001000ad00                ble_set_adv_interval
 .text.ble.api.adv.adv_interval.get
                0x000000001000ad36        0xe ..\..\libs\ble\libbtstack.a(ble_api.o)
                0x000000001000ad36                ble_get_adv_interval
 .text.ble.api.conn_param.get
                0x000000001000ad44        0x4 ..\..\libs\ble\libbtstack.a(ble_api.o)
                0x000000001000ad44                ble_get_conn_param
 .text.ble.api.latency.dis
                0x000000001000ad48       0x2c ..\..\libs\ble\libbtstack.a(ble_api.o)
                0x000000001000ad48                ble_disable_latency
 .text.ble.api.latency.en
                0x000000001000ad74       0x2c ..\..\libs\ble\libbtstack.a(ble_api.o)
                0x000000001000ad74                ble_enable_latency
 .text.ble.api.adv_param.set
                0x000000001000ada0       0x3c ..\..\libs\ble\libbtstack.a(ble_api.o)
                0x000000001000ada0                ble_set_adv_param
 .text.ble.api.regist
                0x000000001000addc        0x8 ..\..\libs\ble\libbtstack.a(ble_api.o)
                0x000000001000addc                ble_init_callback_register
                0x000000001000ade0                ble_vs_tbox_init_callback_register
 .text          0x000000001000ade4       0xaa ..\..\libs\ble\libbtstack.a(rf.o)
                0x000000001000ade4                rf_off
                0x000000001000ae0e                rf_reset
                0x000000001000ae10                rf_init
 .text.rf.tx_tone
                0x000000001000ae8e       0x4e ..\..\libs\ble\libbtstack.a(rf.o)
                0x000000001000ae8e                rf_single_tone_enter
 *fill*         0x000000001000aedc       0x24 
 .text          0x000000001000af00      0x822 ..\..\libs\ble\libbtstack.a(ble_con.o)
                0x000000001000af00                ble_con_evt_time_update_fix
                0x000000001000b000                ble_con_start_do
                0x000000001000b028                ble_con_start
                0x000000001000b500                ble_con_stop
                0x000000001000b580                ble_con_offset_get
                0x000000001000b5c0                ble_con_pref_slave_latency_set
                0x000000001000b5fc                ble_con_peer_sca_set
                0x000000001000b624                ble_event_start_hook_register
 .text.le.con   0x000000001000b722       0x84 ..\..\libs\ble\libbtstack.a(ble_con.o)
                0x000000001000b722                ble_get_con_var
                0x000000001000b72a                ble_get_con_rssi
                0x000000001000b740                ble_con_init
 .text          0x000000001000b7a6      0x150 ..\..\libs\ble\libbtstack.a(bb_int.o)
                0x000000001000b7a6                bb_sleep_init
                0x000000001000b7ce                bb_driver_init
 *fill*         0x000000001000b8f6      0x10a 
 .text.bb.aes   0x000000001000ba00      0x1f4 ..\..\libs\ble\libbtstack.a(bb_int.o)
                0x000000001000ba00                bb_aes_encrypt
 .text          0x000000001000bbf4      0x24c ..\..\libs\ble\libbtstack.a(bb.o)
                0x000000001000bbf4                bb_rand_init
                0x000000001000bbfc                bb_get_heap_info
                0x000000001000bc0e                bb_var_init
                0x000000001000bc16                bb_nanos_mem_init
                0x000000001000bc60                bb_reset
                0x000000001000bcde                bb_init
                0x000000001000bdf0                bb_off
 .text          0x000000001000be40       0x3a ..\..\libs\ble\libbtstack.a(extern_ble.o)
                0x000000001000be64                att_user_read_callback
                0x000000001000be68                att_user_write_callback
                0x000000001000be70                ble_sync_link_info
                0x000000001000be76                hci_event_debug_en
 .text          0x000000001000be7a       0x72 ..\..\libs\ble\libbtstack.a(l2cap.o)
                0x000000001000bed6                l2cap_register_packet_handler
                0x000000001000bede                l2cap_max_le_mtu
 .text.stk.l2cap.txreq
                0x000000001000beec       0x9e ..\..\libs\ble\libbtstack.a(l2cap.o)
 .text.stack.l2cap
                0x000000001000bf8a      0x12a ..\..\libs\ble\libbtstack.a(l2cap.o)
                0x000000001000c06a                l2cap_clear_pending_tx
 .text.stack.handler.l2cap
                0x000000001000c0b4      0x11a ..\..\libs\ble\libbtstack.a(l2cap.o)
                0x000000001000c1c6                l2cap_can_send_fixed_channel_packet_now
 .text.stack.l2cap.gap
                0x000000001000c1ce       0x20 ..\..\libs\ble\libbtstack.a(l2cap.o)
                0x000000001000c1ce                gap_request_connection_parameter_update
 .text.stack.setup
                0x000000001000c1ee       0x6c ..\..\libs\ble\libbtstack.a(l2cap.o)
                0x000000001000c1ee                l2cap_init
                0x000000001000c238                l2cap_register_fixed_channel
 .text.stack.setup
                0x000000001000c25a        0x2 ..\..\libs\ble\libbtstack.a(hci_dump.o)
                0x000000001000c25a                hci_dump_open
 *fill*         0x000000001000c25c        0x0 
 .text.stack.hci_send
                0x000000001000c25c      0x28e ..\..\libs\ble\libbtstack.a(hci_cmd.o)
                0x000000001000c25c                hci_cmd_create_from_template
 .text          0x000000001000c4ea      0x2d0 ..\..\libs\ble\libbtstack.a(hci.o)
                0x000000001000c4ea                hci_get_state
                0x000000001000c4f4                hci_shutdown_connection
                0x000000001000c516                gap_le_get_own_address
                0x000000001000c552                hci_le_set_own_address_type
                0x000000001000c586                hci_le_random_address_set
                0x000000001000c5aa                gap_ctrl_connection_parameter_latency
                0x000000001000c5d2                gap_set_connection_parameters
                0x000000001000c5ea                gap_set_ext_connection_parameters
                0x000000001000c612                gap_get_connection_parameters
                0x000000001000c63a                gap_get_connection_parameters_for_handle
                0x000000001000c670                gap_update_connection_parameters_do
                0x000000001000c6a8                gap_update_connection_parameters
                0x000000001000c6dc                gap_advertisements_set_data
                0x000000001000c6f4                gap_scan_response_set_data
                0x000000001000c70c                gap_advertisements_enable
                0x000000001000c73c                gap_ext_advertisements_set_data
                0x000000001000c73e                gap_ext_scan_response_set_data
                0x000000001000c740                gap_ext_advertisements_enable
                0x000000001000c742                gap_ext_advertisements_set_params
                0x000000001000c744                ble_per_advertisements_set_data
                0x000000001000c746                ble_per_advertisements_enable
                0x000000001000c748                ble_per_advertisements_add_device_list
                0x000000001000c74a                ble_per_advertisements_creat_sync
                0x000000001000c74c                ble_per_advertisements_creat_sync_cancel
                0x000000001000c74e                ble_per_advertisements_terminate_sync
                0x000000001000c750                ble_vs_tbox_prod_test_start
                0x000000001000c766                gap_disconnect
                0x000000001000c7b6                hci_rx_flush
 .text.stack.hci_init
                0x000000001000c7ba       0x96 ..\..\libs\ble\libbtstack.a(hci.o)
                0x000000001000c7da                hci_power_control
 .text.stack.handler.acl
                0x000000001000c850       0x16 ..\..\libs\ble\libbtstack.a(hci.o)
 .text.stack.setup
                0x000000001000c866       0xba ..\..\libs\ble\libbtstack.a(hci.o)
                0x000000001000c8a0                hci_add_event_handler
                0x000000001000c8ae                hci_register_acl_packet_handler
                0x000000001000c8b8                hci_init
 .text.stack.hci
                0x000000001000c920      0x174 ..\..\libs\ble\libbtstack.a(hci.o)
 .text.stack.hci.conn
                0x000000001000ca94       0xc8 ..\..\libs\ble\libbtstack.a(hci.o)
                0x000000001000ca94                get_free_hci_connection
                0x000000001000cab2                create_connection_for_bd_addr_and_type
                0x000000001000cb28                hci_connection_for_bd_addr_and_type
 .text.ble.hci  0x000000001000cb5c      0x194 ..\..\libs\ble\libbtstack.a(hci.o)
                0x000000001000cb5c                ble_event_cmd_complete
                0x000000001000cbe4                ble_event_meta
 .text.stack.hci_send
                0x000000001000ccf0       0xb6 ..\..\libs\ble\libbtstack.a(hci.o)
                0x000000001000ccf0                hci_send_cmd_packet
                0x000000001000cd4c                hci_send_cmd
 *fill*         0x000000001000cda6       0x5a 
 .text.stack.hci.run
                0x000000001000ce00      0x3de ..\..\libs\ble\libbtstack.a(hci.o)
 .text.stack.hci_emit
                0x000000001000d1de       0x2e ..\..\libs\ble\libbtstack.a(hci.o)
                0x000000001000d1de                hci_emit_state
 .text.stack.hci.le.adv
                0x000000001000d20c       0x46 ..\..\libs\ble\libbtstack.a(hci.o)
                0x000000001000d20c                hci_le_advertisements_set_params
 .text          0x000000001000d252       0x42 ..\..\libs\ble\libbtstack.a(btstack_util.o)
                0x000000001000d252                log_info_hexdump
                0x000000001000d254                log_info_key
                0x000000001000d256                uuid_add_bluetooth_prefix
                0x000000001000d278                uuid_has_bluetooth_prefix
 .text.stack.util
                0x000000001000d294      0x126 ..\..\libs\ble\libbtstack.a(btstack_util.o)
                0x000000001000d294                bd_addr_cmp
                0x000000001000d29a                bd_addr_copy
                0x000000001000d2a0                big_endian_read_16
                0x000000001000d2b0                big_endian_read_32
                0x000000001000d2d0                big_endian_store_16
                0x000000001000d2e4                big_endian_store_32
                0x000000001000d318                reverse_bytes
                0x000000001000d334                reverse_24
                0x000000001000d338                reverse_48
                0x000000001000d33c                reverse_56
                0x000000001000d340                reverse_64
                0x000000001000d344                reverse_128
                0x000000001000d348                reverse_256
                0x000000001000d34e                reverse_bd_addr
                0x000000001000d350                btstack_min
                0x000000001000d356                btstack_max
                0x000000001000d35c                char_for_nibble
                0x000000001000d382                nibble_for_char
 .text.stack.hci_dump
                0x000000001000d3ba       0x50 ..\..\libs\ble\libbtstack.a(btstack_util.o)
                0x000000001000d3ba                bd_addr_to_str
 .text          0x000000001000d40a        0x2 ..\..\libs\ble\libbtstack.a(btstack_run_loop.o)
                0x000000001000d40a                thread_nanos_task_create
 *fill*         0x000000001000d40c       0x74 
 .text.stack.run_loop
                0x000000001000d480      0x168 ..\..\libs\ble\libbtstack.a(btstack_run_loop.o)
                0x000000001000d480                btstack_run_loop_set_timer_handler
                0x000000001000d484                btstack_run_loop_set_data_source_handler
                0x000000001000d488                btstack_run_loop_set_data_source_fd
                0x000000001000d48c                btstack_run_loop_get_data_source_fd
                0x000000001000d490                btstack_run_loop_enable_data_source_callbacks
                0x000000001000d49c                btstack_run_loop_disable_data_source_callbacks
                0x000000001000d4ac                btstack_run_loop_add_data_source
                0x000000001000d4b6                btstack_run_loop_remove_data_source
                0x000000001000d4c0                btstack_run_loop_set_timer
                0x000000001000d4da                btstack_run_loop_set_timer_context
                0x000000001000d4de                btstack_run_loop_get_timer_context
                0x000000001000d500                btstack_run_loop_set_trig_ticks
                0x000000001000d53c                btstack_run_loop_add_timer
                0x000000001000d56c                btstack_run_loop_remove_timer
                0x000000001000d59c                btstack_run_loop_get_ticks
                0x000000001000d5a6                btstack_run_loop_ticks_for_ms
                0x000000001000d5ac                btstack_run_loop_get_time_ms
                0x000000001000d5b8                btstack_run_loop_timer_dump
 .text.stack.setup
                0x000000001000d5e8       0x2e ..\..\libs\ble\libbtstack.a(btstack_run_loop.o)
                0x000000001000d5e8                btstack_run_loop_init
 .text.stack.setup
                0x000000001000d616        0x2 ..\..\libs\ble\libbtstack.a(btstack_memory.o)
                0x000000001000d616                btstack_memory_init
 .text.stack.linked_list
                0x000000001000d618       0x78 ..\..\libs\ble\libbtstack.a(btstack_linked_list.o)
                0x000000001000d618                btstack_linked_list_get_last_item
                0x000000001000d626                btstack_linked_list_add
                0x000000001000d63a                btstack_linked_list_add_tail
                0x000000001000d64e                btstack_linked_list_remove
                0x000000001000d666                btstack_linked_list_count
                0x000000001000d674                btstack_linked_list_iterator_remove
                0x000000001000d684                btstack_linked_list_pop
 .text          0x000000001000d690       0x2a ..\..\libs\ble\libbtstack.a(hci_transport_hcic.o)
                0x000000001000d690                hcic_rx_flush
                0x000000001000d6ac                hci_init_var
 .text.stack.hcic
                0x000000001000d6ba       0x5c ..\..\libs\ble\libbtstack.a(hci_transport_hcic.o)
 .text          0x000000001000d716       0x10 ..\..\libs\ble\libbtstack.a(hci_transport_dummy.o)
                0x000000001000d716                hci_iodm_init
 .text          0x000000001000d726       0x10 ..\..\libs\ble\libbtstack.a(btstack_main.o)
                0x000000001000d726                btstack_ble_set_init_callback
                0x000000001000d72e                btstack_ble_vs_tbox_set_init_callback
 .text.stack.handler
                0x000000001000d736       0x60 ..\..\libs\ble\libbtstack.a(btstack_main.o)
 .text.stack.ble.setup
                0x000000001000d796        0x4 ..\..\libs\ble\libbtstack.a(btstack_main.o)
                0x000000001000d796                btstack_ble_init
 .text.stack.setup
                0x000000001000d79a       0x34 ..\..\libs\ble\libbtstack.a(btstack_main.o)
                0x000000001000d79a                btstack_main
 .text          0x000000001000d7ce       0x18 ..\..\libs\ble\libbtstack.a(btstack_hal.o)
                0x000000001000d7ce                hal_tick_init
                0x000000001000d7d4                hal_tick_set_handler
 .text          0x000000001000d7e6       0x70 ..\..\libs\ble\libbtstack.a(nanos.o)
                0x000000001000d7e6                nanos_init
                0x000000001000d81a                nanos_var_init
 .text          0x000000001000d856       0x34 ..\..\libs\ble\libbtstack.a(bb_sche.o)
                0x000000001000d856                bb_sche_frag_ble_dur_set
                0x000000001000d868                bb_sche_init
 .text          0x000000001000d88a       0xaa ..\..\libs\ble\libbtstack.a(patch.o)
                0x000000001000d88a                bb_patch_dummy
                0x000000001000d88c                bb_patch_init
 .text          0x000000001000d934       0xfe ..\..\libs\ble\libbtstack.a(bb_clk.o)
                0x000000001000d934                bb_clk_init
                0x000000001000da30                bb_clk_off
 .text.bb.aes   0x000000001000da32      0x25c ..\..\libs\ble\libbtstack.a(aes.o)
                0x000000001000da32                aes_init
                0x000000001000da7c                aes_alloc
                0x000000001000da9e                aes_start
                0x000000001000dadc                aes_encrypt
                0x000000001000db28                aes_rand
                0x000000001000db64                aes_result_handler
                0x000000001000dbcc                ble_ecpy
 .text          0x000000001000dc8e       0x3c ..\..\libs\ble\libbtstack.a(extern.o)
                0x000000001000dca0                ble_adv_is_private_mode
                0x000000001000dca4                ble_scan_is_private_mode
                0x000000001000dca8                ble_private_access_code_get
                0x000000001000dcba                ble_scan_freq_hop_en
                0x000000001000dcbe                ble_tbox_feature_req_enabled
                0x000000001000dcc2                ble_chmap_instant_pass_discon
                0x000000001000dcc6                ble_adv_duration_get
 .text          0x000000001000dcca       0x9c ..\..\libs\ble\libbtstack.a(vs.o)
                0x000000001000dcca                vs_init
                0x000000001000dd06                vs_reset_complete_evt
 .text          0x000000001000dd66      0xc2a ..\..\libs\ble\libbtstack.a(rf_xbox.o)
                0x000000001000dffa                rfphy_rxdc_cal
                0x000000001000e304                rfphy_txdc_cal
                0x000000001000e95a                rfphy_test
                0x000000001000e95c                ble_rf_external_pa_init
 .text.bb.phy.pll
                0x000000001000e990       0x9c ..\..\libs\ble\libbtstack.a(rf_xbox.o)
                0x000000001000e990                rfphy_pll_afc
 .text.bb.phy.tx
                0x000000001000ea2c      0x10a ..\..\libs\ble\libbtstack.a(rf_xbox.o)
                0x000000001000ea2c                rfphy_tx
                0x000000001000eaac                rfphy_tx_tone
 .text.bb.rf    0x000000001000eb36       0x7a ..\..\libs\ble\libbtstack.a(rf_xbox.o)
                0x000000001000eb36                rfphy_tx_pwr
                0x000000001000eb80                rfphy_sw_ctrl
 .text          0x000000001000ebb0       0x8e ..\..\libs\ble\libbtstack.a(complex.o)
                0x000000001000ebb0                complexAdd
                0x000000001000ebba                complexSubtract
                0x000000001000ebc4                complexMultiply
                0x000000001000ebe0                complexDivision
 .text          0x000000001000ec3e        0x2 ..\..\libs\ble\libbtstack.a(ble_hook.o)
                0x000000001000ec3e                ble_hal_init_hook
 *fill*         0x000000001000ec40      0x1c0 
 .text          0x000000001000ee00      0x84c ..\..\libs\ble\libbtstack.a(hct_tl.o)
                0x000000001000f200                hci_tx_done_do
                0x000000001000f400                hci_tl_send
                0x000000001000f454                hci_tl_init
                0x000000001000f490                hci_cmd_received
 .text          0x000000001000f64c      0x20a ..\..\libs\ble\libbtstack.a(hct_msg.o)
                0x000000001000f72a                hci_look_for_cmd_desc
                0x000000001000f7b8                hci_look_for_evt_desc
                0x000000001000f7fa                hci_look_for_dbg_evt_desc
                0x000000001000f814                hci_look_for_le_evt_desc
 .text          0x000000001000f856       0x30 ..\..\libs\ble\libbtstack.a(hct.o)
                0x000000001000f856                hct_init
                0x000000001000f866                hci_send_2_host
                0x000000001000f86c                hci_ble_conhdl_register
                0x000000001000f87a                hci_ble_conhdl_unregister
 .text          0x000000001000f886      0x17a ..\..\libs\ble\libbtstack.a(mgr_hci.o)
                0x000000001000f9ec                hci_le_rd_buff_size
 .text.le.mgr   0x000000001000fa00       0x38 ..\..\libs\ble\libbtstack.a(mgr_hci.o)
                0x000000001000fa00                hci_command_mgr_func
 .text          0x000000001000fa38      0x452 ..\..\libs\ble\libbtstack.a(mgr.o)
                0x000000001000fa38                mgr_cmd_cmp_send
                0x000000001000fa60                mgr_cmd_stat_send
                0x000000001000fa88                mgr_is_dev_connected
                0x000000001000faf2                mgr_ral_is_empty
                0x000000001000faf6                mgr_ch_map_update
                0x000000001000fc02                mgr_init
                0x000000001000fd20                mgr_clk_acc_set
                0x000000001000fd5e                mgr_link_disc
                0x000000001000fd92                mgr_le_evt_mask_check
                0x000000001000fdac                mgr_le_get_features
                0x000000001000fdfc                mgr_le_get_tbox_feat
                0x000000001000fe0a                mgr_plan_elt_get
                0x000000001000fe18                mgr_act_get_free
                0x000000001000fe68                mgr_act_set_free
 .text          0x000000001000fe8a      0x654 ..\..\libs\ble\libbtstack.a(ll_adv.o)
                0x000000001000ff14                ll_adv_hdl_to_idx
                0x000000001000ff64                hci_le_set_adv_param_cmd_func
                0x000000001001011a                hci_le_set_adv_data_cmd_func
                0x00000000100101e6                hci_le_set_scan_rsp_data_cmd_func
                0x00000000100102b2                hci_le_set_adv_en_cmd_func
 .text.le.ll_adv.con
                0x00000000100104de      0x274 ..\..\libs\ble\libbtstack.a(ll_adv.o)
                0x00000000100104de                ble_adv_end_con_ind
 .text.le.ll_adv
                0x0000000010010752      0x2aa ..\..\libs\ble\libbtstack.a(ll_adv.o)
                0x0000000010010752                ble_adv_end_ind_func
 .text          0x00000000100109fc      0x268 ..\..\libs\ble\libbtstack.a(ll_tbox_freq_cal.o)
                0x0000000010010acc                ll_op_tbox_freq_cal_ind_func
                0x0000000010010af8                ll_op_tbox_freq_cal_end_ind_func
                0x0000000010010bf2                ll_tbox_freq_cal_proc_start
 .text.le.ll_cntl.pdu
                0x0000000010010c64      0x130 ..\..\libs\ble\libbtstack.a(ll_tbox_freq_cal.o)
                0x0000000010010c64                ll_tbox_freq_cal_req_func
                0x0000000010010d14                ll_tbox_freq_cal_rsp_func
 *fill*         0x0000000010010d94        0x0 
 .text          0x0000000010010d94      0xc0c ..\..\libs\ble\libbtstack.a(ll_con_upd.o)
                0x0000000010011630                hci_le_con_upd_cmd_func
                0x000000001001175c                ll_op_con_upd_ind_func
                0x00000000100117ee                ble_con_param_upd_cfm_func
                0x000000001001185a                ble_con_offset_upd_ind_func
                0x00000000100118ac                ll_con_move_cb
 .text.le.ll_cntl.pdu
                0x00000000100119a0      0x308 ..\..\libs\ble\libbtstack.a(ll_con_upd.o)
                0x00000000100119a0                ll_con_update_ind_func
                0x0000000010011afe                ll_con_param_req_func
                0x0000000010011c12                ll_con_param_rsp_func
 .text          0x0000000010011ca8      0x22c ..\..\libs\ble\libbtstack.a(ll_cntl.o)
                0x0000000010011ca8                ll_pdu_send_reject_ind
                0x0000000010011cfa                ble_cntl_rx_ind_func
                0x0000000010011e7c                ble_cntl_tx_cfm_func
 .text.le.ll_cntl.pdu
                0x0000000010011ed4       0x64 ..\..\libs\ble\libbtstack.a(ll_cntl.o)
 .text.le.ll_cntl.send
                0x0000000010011f38      0x18a ..\..\libs\ble\libbtstack.a(ll_cntl.o)
                0x0000000010011f38                ll_cntl_tx_check
                0x0000000010012024                ll_cntl_send
 .text.le.ll_cntl.pdu
                0x00000000100120c2       0xee ..\..\libs\ble\libbtstack.a(ll_clk_acc.o)
                0x00000000100120c2                ll_clk_acc_req_func
                0x000000001001211c                ll_clk_acc_rsp_func
 .text          0x00000000100121b0      0x174 ..\..\libs\ble\libbtstack.a(ll_chmap_upd.o)
                0x00000000100122a8                ll_op_ch_map_upd_ind_func
                0x0000000010012304                ble_ch_map_upd_cfm_func
 .text.le.ll_cntl.pdu
                0x0000000010012324      0x1c2 ..\..\libs\ble\libbtstack.a(ll_chmap_upd.o)
                0x0000000010012324                ll_channel_map_ind_func
                0x0000000010012444                ll_min_used_channels_ind_func
 .text.le.ll_cntl
                0x00000000100124e6      0x2d4 ..\..\libs\ble\libbtstack.a(ll.o)
                0x000000001001254e                ll_cleanup
                0x00000000100125d8                ll_init
                0x0000000010012630                ll_role_get
                0x0000000010012666                ll_proc_reg
                0x00000000100126b0                ll_proc_id_get
                0x00000000100126ce                ll_proc_state_get
                0x00000000100126d4                ll_proc_state_set
                0x00000000100126da                ll_proc_get
                0x00000000100126f0                ll_proc_err_ind
                0x0000000010012716                ll_proc_unreg
                0x0000000010012784                ll_proc_collision_check
 .text.le.ll_cntl.start
                0x00000000100127ba      0x22e ..\..\libs\ble\libbtstack.a(ll.o)
                0x00000000100127ba                ll_start
 .text.le.ll_cntl.state
                0x00000000100129e8       0x5e ..\..\libs\ble\libbtstack.a(ll.o)
                0x00000000100129e8                ll_cntl_state_set
 .text.le.ll_cntl.stop
                0x0000000010012a46       0x46 ..\..\libs\ble\libbtstack.a(ll.o)
                0x0000000010012a46                ll_stop
 .text.le.ll_cntl.timer
                0x0000000010012a8c       0xd4 ..\..\libs\ble\libbtstack.a(ll.o)
                0x0000000010012a8c                ll_proc_timer_set
                0x0000000010012afa                ll_proc_timer_set_state
 .text          0x0000000010012b60      0x1fe ..\..\libs\ble\libbtstack.a(ble_hal.o)
                0x0000000010012b60                ble_get_rslv_var
                0x0000000010012b64                ble_hal_init
                0x0000000010012d56                ble_ch_assess_data_get
 *fill*         0x0000000010012d5e       0xa2 
 .text          0x0000000010012e00      0x6ac ..\..\libs\ble\libbtstack.a(ble_adv.o)
                0x0000000010012e00                ble_adv_start_do
                0x0000000010012ea8                ble_adv_start
                0x000000001001344a                ble_get_adv_var
                0x0000000010013452                ble_adv_init
 .text          0x00000000100134ac      0x142 ..\..\libs\ble\libbtstack.a(ble_buf.o)
                0x00000000100134ac                ble_buf_init_do
                0x00000000100135a6                ble_buf_init
 .text          0x00000000100135ee       0x42 ..\..\libs\ble\libbtstack.a(ble.o)
                0x00000000100135ee                ble_init
 .text.ble.var.init
                0x0000000010013630       0x58 ..\..\libs\ble\libbtstack.a(ble.o)
                0x0000000010013630                ble_var_init
 .text.stack.l2cap_sig
                0x0000000010013688       0xcc ..\..\libs\ble\libbtstack.a(l2cap_signaling.o)
                0x0000000010013752                l2cap_create_signaling_le
 .text          0x0000000010013754       0xa8 ..\..\libs\ble\libbtstack.a(vs_proc.o)
 .text.bb.vs.fcc_ble.do
                0x00000000100137fc       0xa0 ..\..\libs\ble\libbtstack.a(vs_fcc.o)
                0x00000000100137fc                vs_ble_test_do
 .text.bb.vs.fcc
                0x000000001001389c       0xc8 ..\..\libs\ble\libbtstack.a(vs_fcc.o)
                0x000000001001389c                vs_ble_test
                0x00000000100138a0                vs_fcc_test_cmd
 .text          0x0000000010013964        0x4 ..\..\libs\ble\libbtstack.a(adv_hook.o)
                0x0000000010013964                ble_adv_end_ind_hook
 .text          0x0000000010013968      0x212 ..\..\libs\ble\libbtstack.a(mgr_test.o)
                0x000000001001398a                ble_test_end_ind_func
                0x00000000100139c2                hci_le_rx_test_v1_cmd_func
                0x0000000010013a08                hci_le_tx_test_v1_cmd_func
                0x0000000010013a6c                hci_le_rx_test_v2_cmd_func
                0x0000000010013acc                hci_le_tx_test_v2_cmd_func
                0x0000000010013b42                hci_le_test_end_cmd_func
 .text          0x0000000010013b7a       0x3c ..\..\libs\ble\libbtstack.a(mgr_proc.o)
 .text          0x0000000010013bb6       0x60 ..\..\libs\ble\libbtstack.a(ll_version.o)
                0x0000000010013be2                ble_ll_version_get
 .text.le.ll_cntl.pdu
                0x0000000010013c16      0x120 ..\..\libs\ble\libbtstack.a(ll_version.o)
                0x0000000010013c16                ll_version_ind_func
 .text          0x0000000010013d36      0x152 ..\..\libs\ble\libbtstack.a(ll_tbox_prod_test.o)
                0x0000000010013dee                ll_op_tbox_prod_test_ind_func
                0x0000000010013e1a                ll_tbox_prod_test_proc_start
 .text.le.ll_cntl.pdu
                0x0000000010013e88       0xa0 ..\..\libs\ble\libbtstack.a(ll_tbox_prod_test.o)
                0x0000000010013e88                ll_tbox_prod_test_req_func
                0x0000000010013efa                ll_tbox_prod_test_rsp_func
 .text          0x0000000010013f28      0x134 ..\..\libs\ble\libbtstack.a(ll_tbox_feature.o)
                0x0000000010013fb6                ll_op_tbox_feat_exch_ind_func
                0x0000000010013fe2                ll_tbox_feat_proc_start
 .text.le.ll_cntl.pdu
                0x000000001001405c      0x18a ..\..\libs\ble\libbtstack.a(ll_tbox_feature.o)
                0x000000001001405c                ll_tbox_feat_req_func
                0x000000001001417a                ll_tbox_feat_rsp_func
 .text          0x00000000100141e6      0x25e ..\..\libs\ble\libbtstack.a(ll_proc.o)
                0x00000000100141e6                hci_command_ll_func
                0x0000000010014236                ble_acl_rx_ind_func
                0x0000000010014332                ble_acl_tx_cfm_func
                0x000000001001435a                ll_cmd_cmp_send
                0x0000000010014388                hci_vs_set_pref_slave_latency_cmd_func
                0x00000000100143d4                hci_vs_tbox_prod_test_req_cmd_func
                0x00000000100143f8                hci_vs_tbox_freq_cal_cmd_func
                0x000000001001441c                ll_cmd_stat_send
 .text          0x0000000010014444      0x25e ..\..\libs\ble\libbtstack.a(ll_ping.o)
                0x00000000100144c4                ll_op_ping_ind_func
                0x000000001001451a                ll_auth_payl_nearly_to_func
                0x0000000010014588                ll_ping_restart
                0x00000000100145de                ll_auth_payl_real_to_func
                0x000000001001463c                ll_ping_set
 .text.le.ll_cntl.pdu
                0x00000000100146a2       0x3c ..\..\libs\ble\libbtstack.a(ll_ping.o)
                0x00000000100146a2                ll_ping_req_func
                0x00000000100146be                ll_ping_rsp_func
 *fill*         0x00000000100146de        0x2 
 .text          0x00000000100146e0      0x978 ..\..\libs\ble\libbtstack.a(ll_phy_upd.o)
                0x0000000010014f14                ll_op_phy_upd_ind_func
                0x0000000010014fa0                ble_phy_upd_cfm_func
                0x0000000010014fda                ll_phy_upd_proc_start
 .text.le.ll_cntl.pdu
                0x0000000010015058      0x234 ..\..\libs\ble\libbtstack.a(ll_phy_upd.o)
                0x0000000010015058                ll_phy_req_func
                0x000000001001511a                ll_phy_rsp_func
                0x00000000100151ac                ll_phy_update_ind_func
 .text          0x000000001001528c      0x368 ..\..\libs\ble\libbtstack.a(ll_length.o)
                0x00000000100154f8                ll_op_length_upd_ind_func
                0x000000001001555e                ll_length_proc_start_for_param
                0x00000000100155c0                ll_length_proc_start
 .text.le.ll_cntl.pdu
                0x00000000100155f4      0x206 ..\..\libs\ble\libbtstack.a(ll_length.o)
                0x00000000100155f4                ll_length_req_func
                0x0000000010015760                ll_length_rsp_func
 .text          0x00000000100157fa      0x29c ..\..\libs\ble\libbtstack.a(ll_feature.o)
                0x00000000100159a4                ll_op_feats_exch_ind_func
                0x0000000010015a18                ll_feature_exchange_proc_start
                0x0000000010015a62                ble_ll_feature_exchange_get
 .text.le.ll_cntl.pdu
                0x0000000010015a96      0x162 ..\..\libs\ble\libbtstack.a(ll_feature.o)
                0x0000000010015a96                ll_feature_req_func
                0x0000000010015b0a                ll_slave_feature_req_func
                0x0000000010015b7e                ll_feature_rsp_func
 *fill*         0x0000000010015bf8        0x0 
 .text          0x0000000010015bf8      0x762 ..\..\libs\ble\libbtstack.a(ll_encrypt.o)
                0x0000000010016126                hci_le_ltk_req_reply_cmd_func
                0x000000001001619a                hci_le_ltk_req_neg_reply_cmd_func
                0x0000000010016226                ll_encrypt_ind_func
                0x00000000100162f8                ll_op_encrypt_ind_func
 .text.le.ll_cntl.pdu
                0x000000001001635a      0x30e ..\..\libs\ble\libbtstack.a(ll_encrypt.o)
                0x000000001001635a                ll_pause_enc_req_func
                0x00000000100163d6                ll_pause_enc_rsp_func
                0x0000000010016436                ll_enc_req_func
                0x000000001001653a                ll_enc_rsp_func
                0x00000000100165ba                ll_start_enc_req_func
                0x0000000010016612                ll_start_enc_rsp_func
 .text          0x0000000010016668      0x2de ..\..\libs\ble\libbtstack.a(ll_disconnect.o)
                0x0000000010016668                ble_disc_ind_func
                0x00000000100166be                ll_stopped_ind_func
                0x000000001001672c                hci_disconnect_cmd_func
                0x000000001001687c                ll_op_disconnect_ind_func
                0x00000000100168f6                ll_init_term_proc
 .text.le.ll_proc.disc
                0x0000000010016946       0x3a ..\..\libs\ble\libbtstack.a(ll_disconnect.o)
                0x0000000010016946                ll_disconnect
 .text.le.ll_cntl.pdu
                0x0000000010016980       0x42 ..\..\libs\ble\libbtstack.a(ll_disconnect.o)
                0x0000000010016980                ll_terminate_ind_func
 .text          0x00000000100169c2       0x28 ..\..\libs\ble\libbtstack.a(ble_test.o)
                0x00000000100169c2                ble_test_init
                0x00000000100169e2                ble_get_test_var
 .text.bb.ble.test.start
                0x00000000100169ea       0x2e ..\..\libs\ble\libbtstack.a(ble_test.o)
                0x00000000100169ea                ble_test_start
 .text          0x0000000010016a18        0x4 ..\..\libs\ble\libbtstack.a(ble_sync.o)
                0x0000000010016a18                ble_get_sync_var
 .text          0x0000000010016a1c        0x8 ..\..\libs\ble\libbtstack.a(ble_scan.o)
                0x0000000010016a1c                ble_get_scan_var
                0x0000000010016a20                ble_get_ssync_var
 .text          0x0000000010016a24        0x4 ..\..\libs\ble\libbtstack.a(ble_init.o)
                0x0000000010016a24                ble_get_init_var
 *(.rodata*)
 *fill*         0x0000000010016a28        0x0 
 .rodata.separate_wakeup_io
                0x0000000010016a28       0x80 Output\obj\driver\driver_gpio.o
                0x0000000010016a28                separate_wakeup_io
 .rodata.lowpwr_get_wakeup_source.str1.4
                0x0000000010016aa8       0x5f Output\obj\driver\driver_lowpwr.o
 *fill*         0x0000000010016b07        0x1 
 .rodata.__func__.4624
                0x0000000010016b08        0x9 Output\obj\project\ble_peripheral\app\func.o
 *fill*         0x0000000010016b11        0x3 
 .rodata.func.msg.str1.4
                0x0000000010016b14       0xc1 Output\obj\project\ble_peripheral\app\func.o
 .rodata.func.str1.4
                0x0000000010016bd5       0xc1 Output\obj\project\ble_peripheral\app\func.o
                                          0x4 (size before relaxing)
 .rodata.func.bt.str1.4
                0x0000000010016bd5        0x4 Output\obj\project\ble_peripheral\app\func_bt.o
 *fill*         0x0000000010016bd5        0x3 
 .rodata.__func__.4607
                0x0000000010016bd8        0xa Output\obj\project\ble_peripheral\app\func_idle.o
 .rodata.func.idle.str1.4
                0x0000000010016be2        0x4 Output\obj\project\ble_peripheral\app\func_idle.o
 *fill*         0x0000000010016be2        0x2 
 .rodata.__func__.5136
                0x0000000010016be4        0xc Output\obj\project\ble_peripheral\app\func_lowpwr.o
 .rodata.__func__.5153
                0x0000000010016bf0        0xc Output\obj\project\ble_peripheral\app\func_lowpwr.o
 .rodata.lowpwr.deep_sleep.str1.4
                0x0000000010016bfc        0x4 Output\obj\project\ble_peripheral\app\func_lowpwr.o
 .rodata.lowpwr.sleep.str1.4
                0x0000000010016bfc       0x14 Output\obj\project\ble_peripheral\app\func_lowpwr.o
 .rodata.__func__.4726
                0x0000000010016c10       0x14 Output\obj\project\ble_peripheral\ble\ble_fota_service.o
 .rodata.ble_fota_service_init.str1.4
                0x0000000010016c24       0x17 Output\obj\project\ble_peripheral\ble\ble_fota_service.o
 *fill*         0x0000000010016c3b        0x1 
 .rodata.fot.cache.str1.4
                0x0000000010016c3c       0x47 Output\obj\project\ble_peripheral\ble\ble_fota_service.o
 *fill*         0x0000000010016c83        0x1 
 .rodata.fota_event_callback.str1.4
                0x0000000010016c84       0x17 Output\obj\project\ble_peripheral\ble\ble_fota_service.o
 *fill*         0x0000000010016c9b        0x1 
 .rodata.ble_get_adv_data.str1.4
                0x0000000010016c9c       0x28 Output\obj\project\ble_peripheral\ble\ble_service.o
 .rodata.ble_get_scan_data.str1.4
                0x0000000010016cc4       0x2c Output\obj\project\ble_peripheral\ble\ble_service.o
 .rodata.ble_service_init.str1.4
                0x0000000010016cf0       0x12 Output\obj\project\ble_peripheral\ble\ble_service.o
 *fill*         0x0000000010016d02        0x2 
 .rodata.profile_data
                0x0000000010016d04       0x7e Output\obj\project\ble_peripheral\ble\ble_service.o
                0x0000000010016d04                profile_data
 *fill*         0x0000000010016d82        0x2 
 .rodata.__func__.4617
                0x0000000010016d84       0x13 Output\obj\project\ble_peripheral\ble\ble_user_service.o
 *fill*         0x0000000010016d97        0x1 
 .rodata.app.proc.ble.str1.4
                0x0000000010016d98        0xf Output\obj\project\ble_peripheral\ble\ble_user_service.o
 *fill*         0x0000000010016da7        0x1 
 .rodata.ble_event_callback.str1.4
                0x0000000010016da8       0x84 Output\obj\project\ble_peripheral\ble\ble_user_service.o
                                         0x9c (size before relaxing)
 .rodata.ble_user_service_init.str1.4
                0x0000000010016e2c       0x17 Output\obj\project\ble_peripheral\ble\ble_user_service.o
 *fill*         0x0000000010016e43        0x1 
 .rodata.service_read_callback.str1.4
                0x0000000010016e44       0x17 Output\obj\project\ble_peripheral\ble\ble_user_service.o
 *fill*         0x0000000010016e5b        0x1 
 .rodata.service_write_callback.str1.4
                0x0000000010016e5c       0x27 Output\obj\project\ble_peripheral\ble\ble_user_service.o
 *fill*         0x0000000010016e83        0x1 
 .rodata.app.proc.charge.str1.4
                0x0000000010016e84       0x43 Output\obj\project\ble_peripheral\bsp\bsp_charge.o
 *fill*         0x0000000010016ec7        0x1 
 .rodata.charge_status_info
                0x0000000010016ec8       0xae Output\obj\project\ble_peripheral\bsp\bsp_charge.o
                0x0000000010016ec8                charge_status_info
 *fill*         0x0000000010016f76        0x2 
 .rodata.app.proc.vbat.str1.4
                0x0000000010016f78       0x28 Output\obj\project\ble_peripheral\bsp\bsp_saradc_vbat.o
 .rodata.__func__.4741
                0x0000000010016fa0        0xd Output\obj\project\ble_peripheral\bsp\bsp_sys.o
 *fill*         0x0000000010016fad        0x3 
 .rodata.bsp.sys.init.str1.4
                0x0000000010016fb0       0x11 Output\obj\project\ble_peripheral\bsp\bsp_sys.o
                                         0x18 (size before relaxing)
 *fill*         0x0000000010016fc1        0x3 
 .rodata.sys_ram_info_dump.str1.4
                0x0000000010016fc4       0x9f Output\obj\project\ble_peripheral\bsp\bsp_sys.o
 *fill*         0x0000000010017063        0x1 
 .rodata.main.str1.4
                0x0000000010017064       0x2c Output\obj\project\ble_peripheral\main.o
 .rodata.str1.4
                0x0000000010017090       0x1e Output\obj\project\ble_peripheral\strong_symbol.o
 *fill*         0x00000000100170ae        0x2 
 .rodata.thread_cfg
                0x00000000100170b0       0x18 Output\obj\project\ble_peripheral\strong_symbol.o
 .rodata.cm_next_freepage.str1.4
                0x00000000100170c8        0xc ..\..\libs\cpu\libplatform.a(cm.o)
 .rodata.cm_movepage.str1.4
                0x00000000100170d4       0x10 ..\..\libs\cpu\libplatform.a(cm.o)
 .rodata.cm_release.str1.4
                0x00000000100170e4       0x22 ..\..\libs\cpu\libplatform.a(cm.o)
 *fill*         0x0000000010017106        0x2 
 .rodata.cm_savepage.str1.4
                0x0000000010017108       0x13 ..\..\libs\cpu\libplatform.a(cm.o)
 *fill*         0x000000001001711b        0x1 
 .rodata.cm_check_loadpage.str1.4
                0x000000001001711c       0x3b ..\..\libs\cpu\libplatform.a(cm.o)
 *fill*         0x0000000010017157        0x1 
 .rodata.cm_init.str1.4
                0x0000000010017158       0x30 ..\..\libs\cpu\libplatform.a(cm.o)
 .rodata.platform_main.str1.4
                0x0000000010017188       0x10 ..\..\libs\cpu\libplatform.a(main.o)
 .rodata.thread_btstack_create.str1.4
                0x0000000010017198        0xc ..\..\libs\cpu\libplatform.a(startup.o)
 .rodata.thread_main_entry.str1.4
                0x00000000100171a4        0x4 ..\..\libs\cpu\libplatform.a(startup.o)
 .rodata.startup.init.str1.4
                0x00000000100171a8       0x2b ..\..\libs\cpu\libplatform.a(startup.o)
 *fill*         0x00000000100171d3        0x1 
 .rodata.sys_rst_dump.str1.4
                0x00000000100171d4       0x51 ..\..\libs\cpu\libplatform.a(sys.o)
 *fill*         0x0000000010017225        0x3 
 .rodata.ichsel
                0x0000000010017228       0x80 ..\..\libs\cpu\libplatform.a(voltage_trim.o)
 .rodata.iends  0x00000000100172a8       0x10 ..\..\libs\cpu\libplatform.a(voltage_trim.o)
 .rodata.volt_trim
                0x00000000100172b8       0x40 ..\..\libs\cpu\libplatform.a(voltage_trim.o)
 .rodata.dfu_crc32_table
                0x00000000100172f8      0x400 ..\..\libs\cpu\libplatform.a(crc.o)
 .rodata        0x00000000100176f8       0x10 ..\..\libs\ble\libbtstack.a(att_db.o)
 .rodata.stack.api
                0x0000000010017708       0xa0 ..\..\libs\ble\libbtstack.a(btstack_api.o)
                0x0000000010017708                btstack_basic_tbl
                0x0000000010017718                btstack_ctl_param_tbl
                0x000000001001773c                btstack_ctl_tbl
 .rodata.bb.tbl
                0x00000000100177a8        0x8 ..\..\libs\ble\libbtstack.a(ble_con.o)
                0x00000000100177a8                connect_req_dur_tab
 .rodata.bb.tbl
                0x00000000100177b0       0x16 ..\..\libs\ble\libbtstack.a(bb_utils.o)
                0x00000000100177b0                null_array
                0x00000000100177c0                dft_addr
 *fill*         0x00000000100177c6        0x2 
 .rodata.str1.4
                0x00000000100177c8       0x21 ..\..\libs\ble\libbtstack.a(bb.o)
 *fill*         0x00000000100177e9        0x3 
 .rodata        0x00000000100177ec       0x20 ..\..\libs\ble\libbtstack.a(bb.o)
                0x00000000100177ec                bb_hook
 .rodata.stack.l2cap
                0x000000001001780c        0x2 ..\..\libs\ble\libbtstack.a(l2cap.o)
 *fill*         0x000000001001780e        0x2 
 .rodata.str1.4
                0x0000000010017810       0xa5 ..\..\libs\ble\libbtstack.a(hci_cmd.o)
                                         0xbd (size before relaxing)
 *fill*         0x00000000100178b5        0x3 
 .rodata.stack.hci_send
                0x00000000100178b8      0x150 ..\..\libs\ble\libbtstack.a(hci_cmd.o)
                0x00000000100178b8                hci_le_tbox_prod_test_request
                0x00000000100178c0                hci_le_set_pref_slave_latency
                0x00000000100178c8                hci_le_write_rf_path_compensation
                0x00000000100178d0                hci_le_read_rf_path_compensation
                0x00000000100178d8                hci_le_transmit_power
                0x00000000100178e0                hci_le_read_periodic_adv_list_size
                0x00000000100178e8                hci_le_set_default_phy
                0x00000000100178f0                hci_le_long_term_key_negative_reply
                0x00000000100178f8                hci_le_long_term_key_request_reply
                0x0000000010017900                hci_le_rand
                0x0000000010017908                hci_le_encrypt
                0x0000000010017910                hci_le_connection_update
                0x0000000010017918                hci_le_add_device_to_per_adv_list
                0x0000000010017920                hci_le_per_advertising_terminate_sync
                0x0000000010017928                hci_le_per_advertising_creat_sync_cancel
                0x0000000010017930                hci_le_per_advertising_creat_sync
                0x0000000010017938                hci_le_ext_create_connection
                0x0000000010017940                hci_le_set_ext_scan_enable
                0x0000000010017948                hci_le_set_ext_scan_parameters
                0x0000000010017950                hci_le_set_per_advertise_enable
                0x0000000010017958                hci_le_set_per_advertising_data
                0x0000000010017960                hci_le_set_per_advertising_parameters
                0x0000000010017968                hci_le_set_ext_advertise_enable
                0x0000000010017970                hci_le_set_ext_scan_response_data
                0x0000000010017978                hci_le_set_ext_advertising_data
                0x0000000010017980                hci_le_set_ext_advertising_parameters
                0x0000000010017988                hci_le_set_ext_adv_set_random_address
                0x0000000010017990                hci_le_set_advertise_enable
                0x0000000010017998                hci_le_set_scan_response_data
                0x00000000100179a0                hci_le_set_advertising_data
                0x00000000100179a8                hci_le_set_advertising_parameters
                0x00000000100179b0                hci_le_set_random_address
                0x00000000100179b8                hci_le_read_buffer_size
                0x00000000100179c0                hci_le_set_event_mask
                0x00000000100179c8                hci_read_bd_addr
                0x00000000100179d0                hci_read_buffer_size
                0x00000000100179d8                hci_read_local_supported_features
                0x00000000100179e0                hci_read_local_supported_commands
                0x00000000100179e8                hci_write_le_host_supported
                0x00000000100179f0                hci_reset
                0x00000000100179f8                hci_set_event_mask
                0x0000000010017a00                hci_disconnect
 .rodata        0x0000000010017a08       0x20 ..\..\libs\ble\libbtstack.a(btstack_util.o)
                0x0000000010017a18                bluetooth_base_uuid
 .rodata        0x0000000010017a28       0x20 ..\..\libs\ble\libbtstack.a(hci_transport_dummy.o)
 .rodata        0x0000000010017a48       0x24 ..\..\libs\ble\libbtstack.a(bb_sche.o)
 .rodata.bb.tbl
                0x0000000010017a6c       0x4f ..\..\libs\ble\libbtstack.a(rf_xbox.o)
 *fill*         0x0000000010017abb        0x1 
 .rodata.str1.4
                0x0000000010017abc       0x20 ..\..\libs\ble\libbtstack.a(hct_tl.o)
 .rodata.str1.4
                0x0000000010017adc       0x9f ..\..\libs\ble\libbtstack.a(hct_msg.o)
                                         0xb7 (size before relaxing)
 *fill*         0x0000000010017b7b        0x1 
 .rodata        0x0000000010017b7c      0x22c ..\..\libs\ble\libbtstack.a(hct_msg.o)
                0x0000000010017b7c                hci_cmd_desc_root_tab
                0x0000000010017bbc                hci_evt_desc_tab
                0x0000000010017bf4                hci_evt_le_desc_tab
                0x0000000010017c34                hci_cmd_desc_tab_vs
                0x0000000010017c64                hci_cmd_desc_tab_le
                0x0000000010017d3c                hci_cmd_desc_tab_info_par
                0x0000000010017d3c                hci_cmd_desc_tab_stat_par
                0x0000000010017d60                hci_cmd_desc_tab_ctrl_bb
                0x0000000010017d9c                hci_cmd_desc_tab_lk_ctrl
 .rodata.le.mgr_cntl.tbl
                0x0000000010017da8       0x68 ..\..\libs\ble\libbtstack.a(mgr_hci.o)
                0x0000000010017da8                mgr_hci_cmd_tbl
 .rodata.str1.4
                0x0000000010017e10       0x49 ..\..\libs\ble\libbtstack.a(ll_cntl.o)
                                         0x60 (size before relaxing)
 *fill*         0x0000000010017e59        0x3 
 .rodata.le.ll_cntl.tbl
                0x0000000010017e5c      0x408 ..\..\libs\ble\libbtstack.a(ll_cntl.o)
                0x0000000010017e5c                ll_cntl_pdu_tbl
 .rodata.bb.tbl
                0x0000000010018264       0x1c ..\..\libs\ble\libbtstack.a(ble.o)
                0x0000000010018264                ble_ctl
 .rodata.str1.4
                0x0000000010018280       0x1c ..\..\libs\ble\libbtstack.a(l2cap_signaling.o)
                                         0x2a (size before relaxing)
 .rodata        0x000000001001829c       0x58 ..\..\libs\ble\libbtstack.a(l2cap_signaling.o)
 .rodata        0x00000000100182f4       0x10 ..\..\libs\ble\libbtstack.a(vs_proc.o)
 .rodata        0x0000000010018304       0x20 ..\..\libs\ble\libbtstack.a(mgr_proc.o)
 .rodata.le.ll_cntl.tbl
                0x0000000010018324      0x120 ..\..\libs\ble\libbtstack.a(ll_proc.o)
                0x0000000010018324                ll_msg_tbl
                0x000000001001840c                ll_hci_cmd_tbl
 *(.srodata*)
 .srodata       0x0000000010018444        0x8 ..\..\libs\ble\libbtstack.a(hct_msg.o)
                0x0000000010018444                hci_evt_dbg_desc_tab
 .srodata       0x000000001001844c       0x18 ..\..\libs\ble\libbtstack.a(mgr.o)
 .srodata       0x0000000010018464        0x5 ..\..\libs\ble\libbtstack.a(ll_adv.o)
 *fill*         0x0000000010018469        0x3 
 .srodata       0x000000001001846c        0x8 ..\..\libs\ble\libbtstack.a(vs_proc.o)
 *(.rela*)
 .rela.com_periph.etrclockmode1
                0x0000000010018474        0x0 Output\obj\driver\driver_adv_timer.o
 .rela.com_periph.tim.etrclockmode2
                0x0000000010018474        0x0 Output\obj\driver\driver_adv_timer.o
 .rela.text.charge_init
                0x0000000010018474        0x0 Output\obj\driver\driver_adv_timer.o
 .rela.text.app.proc.charge
                0x0000000010018474        0x0 Output\obj\driver\driver_adv_timer.o
 .rela.text.clk_clk32k_rtc_get
                0x0000000010018474        0x0 Output\obj\driver\driver_adv_timer.o
 .rela.text.clk_saradc_clk_get
                0x0000000010018474        0x0 Output\obj\driver\driver_adv_timer.o
 .rela.text.clk_udet_clk_get
                0x0000000010018474        0x0 Output\obj\driver\driver_adv_timer.o
 .rela.text.clk_hsut0_clk_get
                0x0000000010018474        0x0 Output\obj\driver\driver_adv_timer.o
 .rela.text.clk_tmr_inc_get
                0x0000000010018474        0x0 Output\obj\driver\driver_adv_timer.o
 .rela.text.clk_clk2m_ks_get
                0x0000000010018474        0x0 Output\obj\driver\driver_adv_timer.o
 .rela.text.clk_sdadda_clk_get
                0x0000000010018474        0x0 Output\obj\driver\driver_adv_timer.o
 .rela.text.clk_touch_key_clk_get
                0x0000000010018474        0x0 Output\obj\driver\driver_adv_timer.o
 .rela.text.clk_ttmr_inc_get
                0x0000000010018474        0x0 Output\obj\driver\driver_adv_timer.o
 .rela.text.wk0_edge_capture_config
                0x0000000010018474        0x0 Output\obj\driver\driver_adv_timer.o
 .rela.text.gpio_edge_capture_config
                0x0000000010018474        0x0 Output\obj\driver\driver_adv_timer.o
 .rela.text.gpio_edge_pic_config
                0x0000000010018474        0x0 Output\obj\driver\driver_adv_timer.o
 .rela.text.hsuart_init
                0x0000000010018474        0x0 Output\obj\driver\driver_adv_timer.o
 .rela.text.hsuart_baud_config
                0x0000000010018474        0x0 Output\obj\driver\driver_adv_timer.o
 .rela.text.hsuart_pic_config
                0x0000000010018474        0x0 Output\obj\driver\driver_adv_timer.o
 .rela.text.iic_send_data
                0x0000000010018474        0x0 Output\obj\driver\driver_adv_timer.o
 .rela.text.iic_receive_data
                0x0000000010018474        0x0 Output\obj\driver\driver_adv_timer.o
 .rela.text.iic_pic_config
                0x0000000010018474        0x0 Output\obj\driver\driver_adv_timer.o
 .rela.text.irrx_decode_config
                0x0000000010018474        0x0 Output\obj\driver\driver_adv_timer.o
 .rela.text.irrx_base_init
                0x0000000010018474        0x0 Output\obj\driver\driver_adv_timer.o
 .rela.text.irrx_wake_init
                0x0000000010018474        0x0 Output\obj\driver\driver_adv_timer.o
 .rela.text.ir_clk_init
                0x0000000010018474        0x0 Output\obj\driver\driver_adv_timer.o
 .rela.text.irtx_clk_init
                0x0000000010018474        0x0 Output\obj\driver\driver_adv_timer.o
 .rela.text.irtx_timing_set
                0x0000000010018474        0x0 Output\obj\driver\driver_adv_timer.o
 .rela.text.irtx_timing_init
                0x0000000010018474        0x0 Output\obj\driver\driver_adv_timer.o
 .rela.text.irtx_init
                0x0000000010018474        0x0 Output\obj\driver\driver_adv_timer.o
 .rela.text.irtx_base_init
                0x0000000010018474        0x0 Output\obj\driver\driver_adv_timer.o
 .rela.text.irtx_capture_init
                0x0000000010018474        0x0 Output\obj\driver\driver_adv_timer.o
 .rela.text.irtx_capture_buf_init
                0x0000000010018474        0x0 Output\obj\driver\driver_adv_timer.o
 .rela.text.irtx_learn_init
                0x0000000010018474        0x0 Output\obj\driver\driver_adv_timer.o
 .rela.text.irtx_pic_config
                0x0000000010018474        0x0 Output\obj\driver\driver_adv_timer.o
 .rela.text.keyscan_pic_config
                0x0000000010018474        0x0 Output\obj\driver\driver_adv_timer.o
 .rela.text.ledc_pic_config
                0x0000000010018474        0x0 Output\obj\driver\driver_adv_timer.o
 .rela.com_sleep.lv2_proc
                0x0000000010018474        0x0 Output\obj\driver\driver_adv_timer.o
 .rela.com_sleep.lv2_wakeup
                0x0000000010018474        0x0 Output\obj\driver\driver_adv_timer.o
 .rela.text.lowpwr_get_wakeup_source
                0x0000000010018474        0x0 Output\obj\driver\driver_adv_timer.o
 .rela.text.lowpwr_wk0_wakeup_config
                0x0000000010018474        0x0 Output\obj\driver\driver_adv_timer.o
 .rela.text.lowpwr_gpio_wakeup_config
                0x0000000010018474        0x0 Output\obj\driver\driver_adv_timer.o
 .rela.text.lowpwr_wakeup_config_do
                0x0000000010018474        0x0 Output\obj\driver\driver_adv_timer.o
 .rela.text.lowpwr_pwroff_mode1_do
                0x0000000010018474        0x0 Output\obj\driver\driver_adv_timer.o
 .rela.com_text.lp_port_init
                0x0000000010018474        0x0 Output\obj\driver\driver_adv_timer.o
 .rela.com_text.pwroff_mode2
                0x0000000010018474        0x0 Output\obj\driver\driver_adv_timer.o
 .rela.com_sleep.sleep
                0x0000000010018474        0x0 Output\obj\driver\driver_adv_timer.o
 .rela.text.qdec_init
                0x0000000010018474        0x0 Output\obj\driver\driver_adv_timer.o
 .rela.text.qdec_pic_config
                0x0000000010018474        0x0 Output\obj\driver\driver_adv_timer.o
 .rela.text.rtc_pic_config
                0x0000000010018474        0x0 Output\obj\driver\driver_adv_timer.o
 .rela.text.saradc_init
                0x0000000010018474        0x0 Output\obj\driver\driver_adv_timer.o
 .rela.text.saradc_deinit
                0x0000000010018474        0x0 Output\obj\driver\driver_adv_timer.o
 .rela.text.saradc_set_baud
                0x0000000010018474        0x0 Output\obj\driver\driver_adv_timer.o
 .rela.text.saradc_pic_config
                0x0000000010018474        0x0 Output\obj\driver\driver_adv_timer.o
 .rela.com_periph.saradc.get_data
                0x0000000010018474        0x0 Output\obj\driver\driver_adv_timer.o
 .rela.text.sdadc_init
                0x0000000010018474        0x0 Output\obj\driver\driver_adv_timer.o
 .rela.text.sdadc_deinit
                0x0000000010018474        0x0 Output\obj\driver\driver_adv_timer.o
 .rela.text.sdadc_pic_config
                0x0000000010018474        0x0 Output\obj\driver\driver_adv_timer.o
 .rela.com_periph.sddac.spr_set
                0x0000000010018474        0x0 Output\obj\driver\driver_adv_timer.o
 .rela.text.sddac_pic_config
                0x0000000010018474        0x0 Output\obj\driver\driver_adv_timer.o
 .rela.text.spi_init
                0x0000000010018474        0x0 Output\obj\driver\driver_adv_timer.o
 .rela.text.spi_pic_config
                0x0000000010018474        0x0 Output\obj\driver\driver_adv_timer.o
 .rela.text.tmr_pic_config
                0x0000000010018474        0x0 Output\obj\driver\driver_adv_timer.o
 .rela.com_periph.tkey.isr
                0x0000000010018474        0x0 Output\obj\driver\driver_adv_timer.o
 .rela.text.touch_key_isr_init
                0x0000000010018474        0x0 Output\obj\driver\driver_adv_timer.o
 .rela.text.touch_key_clk_init
                0x0000000010018474        0x0 Output\obj\driver\driver_adv_timer.o
 .rela.text.touch_key_init
                0x0000000010018474        0x0 Output\obj\driver\driver_adv_timer.o
 .rela.text.uart_init
                0x0000000010018474        0x0 Output\obj\driver\driver_adv_timer.o
 .rela.text.uart_pic_config
                0x0000000010018474        0x0 Output\obj\driver\driver_adv_timer.o
 .rela.text.uart_baud_config
                0x0000000010018474        0x0 Output\obj\driver\driver_adv_timer.o
 .rela.text.utils_ring_buf_init
                0x0000000010018474        0x0 Output\obj\driver\driver_adv_timer.o
 .rela.com_text.ring_buf.write
                0x0000000010018474        0x0 Output\obj\driver\driver_adv_timer.o
 .rela.com_text.ring_buf.read
                0x0000000010018474        0x0 Output\obj\driver\driver_adv_timer.o
 .rela.text.app.proc.func
                0x0000000010018474        0x0 Output\obj\driver\driver_adv_timer.o
 .rela.text.func.msg
                0x0000000010018474        0x0 Output\obj\driver\driver_adv_timer.o
 .rela.text.func
                0x0000000010018474        0x0 Output\obj\driver\driver_adv_timer.o
 .rela.text.app.proc.bt
                0x0000000010018474        0x0 Output\obj\driver\driver_adv_timer.o
 .rela.text.func.bt
                0x0000000010018474        0x0 Output\obj\driver\driver_adv_timer.o
 .rela.text.func.idle
                0x0000000010018474        0x0 Output\obj\driver\driver_adv_timer.o
 .rela.com_text.gpio.isr
                0x0000000010018474        0x0 Output\obj\driver\driver_adv_timer.o
 .rela.text.lowpwr.sleep
                0x0000000010018474        0x0 Output\obj\driver\driver_adv_timer.o
 .rela.com_sleep.lv2
                0x0000000010018474        0x0 Output\obj\driver\driver_adv_timer.o
 .rela.com_text.sleep_tick
                0x0000000010018474        0x0 Output\obj\driver\driver_adv_timer.o
 .rela.text.bsp_gpio_wakeup_config
                0x0000000010018474        0x0 Output\obj\driver\driver_adv_timer.o
 .rela.text.lowpwr_sleep_wakeup_config_do
                0x0000000010018474        0x0 Output\obj\driver\driver_adv_timer.o
 .rela.com_sleep.lowpwr.sleep
                0x0000000010018474        0x0 Output\obj\driver\driver_adv_timer.o
 .rela.text.lowpwr.deep_sleep
                0x0000000010018474        0x0 Output\obj\driver\driver_adv_timer.o
 .rela.text.app.proc.sleep
                0x0000000010018474        0x0 Output\obj\driver\driver_adv_timer.o
 .rela.text.lowpwr_pwroff_wakeup_config
                0x0000000010018474        0x0 Output\obj\driver\driver_adv_timer.o
 .rela.text.lowpwr.pwroff
                0x0000000010018474        0x0 Output\obj\driver\driver_adv_timer.o
 .rela.text.fot.cache
                0x0000000010018474        0x0 Output\obj\driver\driver_adv_timer.o
 .rela.text.ab_fota_write
                0x0000000010018474        0x0 Output\obj\driver\driver_adv_timer.o
 .rela.text.ab_fota_get_err
                0x0000000010018474        0x0 Output\obj\driver\driver_adv_timer.o
 .rela.text.ab_fota_breakpoint_info_read
                0x0000000010018474        0x0 Output\obj\driver\driver_adv_timer.o
 .rela.text.ab_fota_init
                0x0000000010018474        0x0 Output\obj\driver\driver_adv_timer.o
 .rela.text.ab_fota_deinit
                0x0000000010018474        0x0 Output\obj\driver\driver_adv_timer.o
 .rela.text.ab_fota_get_curaddr
                0x0000000010018474        0x0 Output\obj\driver\driver_adv_timer.o
 .rela.text.ab_fota_is_update_success
                0x0000000010018474        0x0 Output\obj\driver\driver_adv_timer.o
 .rela.text.fot.update
                0x0000000010018474        0x0 Output\obj\driver\driver_adv_timer.o
 .rela.text.ble_fota_exit
                0x0000000010018474        0x0 Output\obj\driver\driver_adv_timer.o
 .rela.com_text.fot.update
                0x0000000010018474        0x0 Output\obj\driver\driver_adv_timer.o
 .rela.text.fota_ble_disconnect_callback
                0x0000000010018474        0x0 Output\obj\driver\driver_adv_timer.o
 .rela.text.fota_event_callback
                0x0000000010018474        0x0 Output\obj\driver\driver_adv_timer.o
 .rela.text.fota_write_callback
                0x0000000010018474        0x0 Output\obj\driver\driver_adv_timer.o
 .rela.text.ble_fota_service_init
                0x0000000010018474        0x0 Output\obj\driver\driver_adv_timer.o
 .rela.text.app.proc.fot
                0x0000000010018474        0x0 Output\obj\driver\driver_adv_timer.o
 .rela.text.ble_txpkt_init
                0x0000000010018474        0x0 Output\obj\driver\driver_adv_timer.o
 .rela.text.ble_sm_param_init
                0x0000000010018474        0x0 Output\obj\driver\driver_adv_timer.o
 .rela.text.ble_adv_param_init
                0x0000000010018474        0x0 Output\obj\driver\driver_adv_timer.o
 .rela.text.ble_periph_init
                0x0000000010018474        0x0 Output\obj\driver\driver_adv_timer.o
 .rela.text.bsp_ble_init
                0x0000000010018474        0x0 Output\obj\driver\driver_adv_timer.o
 .rela.text.ble_enter_sleep_proc
                0x0000000010018474        0x0 Output\obj\driver\driver_adv_timer.o
 .rela.text.ble_exit_sleep_proc
                0x0000000010018474        0x0 Output\obj\driver\driver_adv_timer.o
 .rela.text.app.proc.ble
                0x0000000010018474        0x0 Output\obj\driver\driver_adv_timer.o
 .rela.com_sleep.ble.sleep
                0x0000000010018474        0x0 Output\obj\driver\driver_adv_timer.o
 .rela.text.ble_get_scan_data
                0x0000000010018474        0x0 Output\obj\driver\driver_adv_timer.o
 .rela.text.ble_get_adv_data
                0x0000000010018474        0x0 Output\obj\driver\driver_adv_timer.o
 .rela.text.ble_service_init
                0x0000000010018474        0x0 Output\obj\driver\driver_adv_timer.o
 .rela.text.ble_event_callback
                0x0000000010018474        0x0 Output\obj\driver\driver_adv_timer.o
 .rela.text.service_read_callback
                0x0000000010018474        0x0 Output\obj\driver\driver_adv_timer.o
 .rela.text.service_write_callback
                0x0000000010018474        0x0 Output\obj\driver\driver_adv_timer.o
 .rela.text.ble_user_service_init
                0x0000000010018474        0x0 Output\obj\driver\driver_adv_timer.o
 .rela.text.bsp_charge_init
                0x0000000010018474        0x0 Output\obj\driver\driver_adv_timer.o
 .rela.com_text.key.scan
                0x0000000010018474        0x0 Output\obj\driver\driver_adv_timer.o
 .rela.text.bsp_key_init
                0x0000000010018474        0x0 Output\obj\driver\driver_adv_timer.o
 .rela.text.bsp.param
                0x0000000010018474        0x0 Output\obj\driver\driver_adv_timer.o
 .rela.text.bsp.param.fota
                0x0000000010018474        0x0 Output\obj\driver\driver_adv_timer.o
 .rela.text.bsp_saradc_init
                0x0000000010018474        0x0 Output\obj\driver\driver_adv_timer.o
 .rela.text.app.proc.saradc
                0x0000000010018474        0x0 Output\obj\driver\driver_adv_timer.o
 .rela.text.app.proc.vbat
                0x0000000010018474        0x0 Output\obj\driver\driver_adv_timer.o
 .rela.text.bsp_vbat_detect_init
                0x0000000010018474        0x0 Output\obj\driver\driver_adv_timer.o
 .rela.text.power_on_vbat_check
                0x0000000010018474        0x0 Output\obj\driver\driver_adv_timer.o
 .rela.text.sys_ram_info_dump
                0x0000000010018474        0x0 Output\obj\driver\driver_adv_timer.o
 .rela.com_text.timer
                0x0000000010018474        0x0 Output\obj\driver\driver_adv_timer.o
 .rela.text.bsp.sys.init
                0x0000000010018474        0x0 Output\obj\driver\driver_adv_timer.o
 .rela.text.bsp_periph_init
                0x0000000010018474        0x0 Output\obj\driver\driver_adv_timer.o
 .rela.text.bsp_uart_debug_init
                0x0000000010018474        0x0 Output\obj\driver\driver_adv_timer.o
 .rela.text.startup.main
                0x0000000010018474        0x0 Output\obj\driver\driver_adv_timer.o
 .rela.text.thread_create_callback
                0x0000000010018474        0x0 Output\obj\driver\driver_adv_timer.o
 .rela.text.ble_get_local_bd_addr
                0x0000000010018474        0x0 Output\obj\driver\driver_adv_timer.o
 .rela.text.bt_rf_get_param
                0x0000000010018474        0x0 Output\obj\driver\driver_adv_timer.o
 .rela.text.bt_rf_get_tx_pwr
                0x0000000010018474        0x0 Output\obj\driver\driver_adv_timer.o
 .rela.text.xosc_get_xcfg
                0x0000000010018474        0x0 Output\obj\driver\driver_adv_timer.o
 .rela.text.param_xosc_write
                0x0000000010018474        0x0 Output\obj\driver\driver_adv_timer.o
 .rela.com_text.spiflash
                0x0000000010018474        0x0 Output\obj\driver\driver_adv_timer.o
 .rela.text.ble_get_link_info
                0x0000000010018474        0x0 Output\obj\driver\driver_adv_timer.o
 .rela.text.ble_put_link_info
                0x0000000010018474        0x0 Output\obj\driver\driver_adv_timer.o
 .rela.text.mic_adc_init
                0x0000000010018474        0x0 Output\obj\driver\driver_adv_timer.o
 .rela.com_text.irq.sdadc
                0x0000000010018474        0x0 Output\obj\driver\driver_adv_timer.o
 .rela.text.cm_loadpage
                0x0000000010018474        0x0 Output\obj\driver\driver_adv_timer.o
 .rela.text.cm_next_freepage
                0x0000000010018474        0x0 Output\obj\driver\driver_adv_timer.o
 .rela.text.cm_factory
                0x0000000010018474        0x0 Output\obj\driver\driver_adv_timer.o
 .rela.text.cm_writepage
                0x0000000010018474        0x0 Output\obj\driver\driver_adv_timer.o
 .rela.text.cm_movepage
                0x0000000010018474        0x0 Output\obj\driver\driver_adv_timer.o
 .rela.text.cm_erase
                0x0000000010018474        0x0 Output\obj\driver\driver_adv_timer.o
 .rela.text.cm_release
                0x0000000010018474        0x0 Output\obj\driver\driver_adv_timer.o
 .rela.text.cm_savepage
                0x0000000010018474        0x0 Output\obj\driver\driver_adv_timer.o
 .rela.text.cm_check_loadpage
                0x0000000010018474        0x0 Output\obj\driver\driver_adv_timer.o
 .rela.text.cm_move_allpages
                0x0000000010018474        0x0 Output\obj\driver\driver_adv_timer.o
 .rela.text.cm_sync
                0x0000000010018474        0x0 Output\obj\driver\driver_adv_timer.o
 .rela.text.cm_release_all
                0x0000000010018474        0x0 Output\obj\driver\driver_adv_timer.o
 .rela.text.cm_read
                0x0000000010018474        0x0 Output\obj\driver\driver_adv_timer.o
 .rela.text.cm_read8
                0x0000000010018474        0x0 Output\obj\driver\driver_adv_timer.o
 .rela.text.cm_read16
                0x0000000010018474        0x0 Output\obj\driver\driver_adv_timer.o
 .rela.text.cm_read32
                0x0000000010018474        0x0 Output\obj\driver\driver_adv_timer.o
 .rela.text.cm_write
                0x0000000010018474        0x0 Output\obj\driver\driver_adv_timer.o
 .rela.text.cm_write8
                0x0000000010018474        0x0 Output\obj\driver\driver_adv_timer.o
 .rela.text.cm_write16
                0x0000000010018474        0x0 Output\obj\driver\driver_adv_timer.o
 .rela.text.cm_write32
                0x0000000010018474        0x0 Output\obj\driver\driver_adv_timer.o
 .rela.text.cm_clear
                0x0000000010018474        0x0 Output\obj\driver\driver_adv_timer.o
 .rela.text.cm_init
                0x0000000010018474        0x0 Output\obj\driver\driver_adv_timer.o
 .rela.com_text.spiflash.id
                0x0000000010018474        0x0 Output\obj\driver\driver_adv_timer.o
 .rela.com_text.spiflash.dev_id
                0x0000000010018474        0x0 Output\obj\driver\driver_adv_timer.o
 .rela.com_text.spiflash.read
                0x0000000010018474        0x0 Output\obj\driver\driver_adv_timer.o
 .rela.com_text.spiflash.protect.weak
                0x0000000010018474        0x0 Output\obj\driver\driver_adv_timer.o
 .rela.com_text.spiflash.erase_2
                0x0000000010018474        0x0 Output\obj\driver\driver_adv_timer.o
 .rela.com_text.spiflash.erase_32k
                0x0000000010018474        0x0 Output\obj\driver\driver_adv_timer.o
 .rela.com_text.spiflash.erase_64k
                0x0000000010018474        0x0 Output\obj\driver\driver_adv_timer.o
 .rela.text.xcfg_init
                0x0000000010018474        0x0 Output\obj\driver\driver_adv_timer.o
 .rela.com_text.exception.hook
                0x0000000010018474        0x0 Output\obj\driver\driver_adv_timer.o
 .rela.com_text.exception
                0x0000000010018474        0x0 Output\obj\driver\driver_adv_timer.o
 .rela.com_text.delay
                0x0000000010018474        0x0 Output\obj\driver\driver_adv_timer.o
 .rela.text.platform_main
                0x0000000010018474        0x0 Output\obj\driver\driver_adv_timer.o
 .rela.text.main_startup
                0x0000000010018474        0x0 Output\obj\driver\driver_adv_timer.o
 .rela.text.compiler
                0x0000000010018474        0x0 Output\obj\driver\driver_adv_timer.o
 .rela.com_text.irq
                0x0000000010018474        0x0 Output\obj\driver\driver_adv_timer.o
 .rela.text.sys_irq_init
                0x0000000010018474        0x0 Output\obj\driver\driver_adv_timer.o
 .rela.text.soft_irq_init
                0x0000000010018474        0x0 Output\obj\driver\driver_adv_timer.o
 .rela.text.bthw_irq_init
                0x0000000010018474        0x0 Output\obj\driver\driver_adv_timer.o
 .rela.text.watch_point_set
                0x0000000010018474        0x0 Output\obj\driver\driver_adv_timer.o
 .rela.text.usb_irq_init
                0x0000000010018474        0x0 Output\obj\driver\driver_adv_timer.o
 .rela.text.sys_timer_init
                0x0000000010018474        0x0 Output\obj\driver\driver_adv_timer.o
 .rela.text.thread_driver_create
                0x0000000010018474        0x0 Output\obj\driver\driver_adv_timer.o
 .rela.text.thread_aupcm_create
                0x0000000010018474        0x0 Output\obj\driver\driver_adv_timer.o
 .rela.text.thread_btstack_create
                0x0000000010018474        0x0 Output\obj\driver\driver_adv_timer.o
 .rela.text.thread_main_entry
                0x0000000010018474        0x0 Output\obj\driver\driver_adv_timer.o
 .rela.text.startup.init
                0x0000000010018474        0x0 Output\obj\driver\driver_adv_timer.o
 .rela.com_text.thread.driver
                0x0000000010018474        0x0 Output\obj\driver\driver_adv_timer.o
 .rela.com_text.thread.aupcm
                0x0000000010018474        0x0 Output\obj\driver\driver_adv_timer.o
 .rela.com_text.thread.driver.usb
                0x0000000010018474        0x0 Output\obj\driver\driver_adv_timer.o
 .rela.com_text.thread.driver.vs
                0x0000000010018474        0x0 Output\obj\driver\driver_adv_timer.o
 .rela.text.thread.driver.usb
                0x0000000010018474        0x0 Output\obj\driver\driver_adv_timer.o
 .rela.text.thread.driver.vs
                0x0000000010018474        0x0 Output\obj\driver\driver_adv_timer.o
 .rela.com_text.thread.driver.enter
                0x0000000010018474        0x0 Output\obj\driver\driver_adv_timer.o
 .rela.text.pll0_vco_band_trimming
                0x0000000010018474        0x0 Output\obj\driver\driver_adv_timer.o
 .rela.text.pll0_init
                0x0000000010018474        0x0 Output\obj\driver\driver_adv_timer.o
 .rela.com_text.trim.vddio_get
                0x0000000010018474        0x0 Output\obj\driver\driver_adv_timer.o
 .rela.com_text.trim.vbg_get
                0x0000000010018474        0x0 Output\obj\driver\driver_adv_timer.o
 .rela.com_text.trim.vddio_set
                0x0000000010018474        0x0 Output\obj\driver\driver_adv_timer.o
 .rela.com_text.trim.core_get
                0x0000000010018474        0x0 Output\obj\driver\driver_adv_timer.o
 .rela.com_text.trim.core_set
                0x0000000010018474        0x0 Output\obj\driver\driver_adv_timer.o
 .rela.com_text.trim.lvd_get
                0x0000000010018474        0x0 Output\obj\driver\driver_adv_timer.o
 .rela.com_text.trim.lvd_set
                0x0000000010018474        0x0 Output\obj\driver\driver_adv_timer.o
 .rela.text.pmu_voltage_configure
                0x0000000010018474        0x0 Output\obj\driver\driver_adv_timer.o
 .rela.text.pmu_init
                0x0000000010018474        0x0 Output\obj\driver\driver_adv_timer.o
 .rela.reset    0x0000000010018474        0x0 Output\obj\driver\driver_adv_timer.o
 .rela.com_text.spiflash.erase
                0x0000000010018474        0x0 Output\obj\driver\driver_adv_timer.o
 .rela.com_text.spiflash.read_kick
                0x0000000010018474        0x0 Output\obj\driver\driver_adv_timer.o
 .rela.text.ota_pack
                0x0000000010018474        0x0 Output\obj\driver\driver_adv_timer.o
 .rela.text.lock_code_usbdev
                0x0000000010018474        0x0 Output\obj\driver\driver_adv_timer.o
 .rela.text.patch_init
                0x0000000010018474        0x0 Output\obj\driver\driver_adv_timer.o
 .rela.com_sleep.lp.sleep
                0x0000000010018474        0x0 Output\obj\driver\driver_adv_timer.o
 .rela.text.set_sys_clk_do
                0x0000000010018474        0x0 Output\obj\driver\driver_adv_timer.o
 .rela.text.sys_clk
                0x0000000010018474        0x0 Output\obj\driver\driver_adv_timer.o
 .rela.text.voltage.trim
                0x0000000010018474        0x0 Output\obj\driver\driver_adv_timer.o
 .rela.com_text.stack.api
                0x0000000010018474        0x0 Output\obj\driver\driver_adv_timer.o
 .rela.com_text.stack.run_loop
                0x0000000010018474        0x0 Output\obj\driver\driver_adv_timer.o
 .rela.text     0x0000000010018474        0x0 Output\obj\driver\driver_adv_timer.o
 .rela.text.sm.aes
                0x0000000010018474        0x0 Output\obj\driver\driver_adv_timer.o
 .rela.text.sm.get_handle
                0x0000000010018474        0x0 Output\obj\driver\driver_adv_timer.o
 .rela.text.sm.rau_run
                0x0000000010018474        0x0 Output\obj\driver\driver_adv_timer.o
 .rela.text.gap.rau.update
                0x0000000010018474        0x0 Output\obj\driver\driver_adv_timer.o
 .rela.text.sm.request
                0x0000000010018474        0x0 Output\obj\driver\driver_adv_timer.o
 .rela.text.sm.hdl
                0x0000000010018474        0x0 Output\obj\driver\driver_adv_timer.o
 .rela.text.stack.ble.sm
                0x0000000010018474        0x0 Output\obj\driver\driver_adv_timer.o
 .rela.text.sm.passkey.set
                0x0000000010018474        0x0 Output\obj\driver\driver_adv_timer.o
 .rela.text.sm.passkey.get
                0x0000000010018474        0x0 Output\obj\driver\driver_adv_timer.o
 .rela.text.sm.passkey.input
                0x0000000010018474        0x0 Output\obj\driver\driver_adv_timer.o
 .rela.text.gap.rau.mode
                0x0000000010018474        0x0 Output\obj\driver\driver_adv_timer.o
 .rela.text.sm.run
                0x0000000010018474        0x0 Output\obj\driver\driver_adv_timer.o
 .rela.text.sm.pdu
                0x0000000010018474        0x0 Output\obj\driver\driver_adv_timer.o
 .rela.text.sm.event
                0x0000000010018474        0x0 Output\obj\driver\driver_adv_timer.o
 .rela.text.gap.rau_set
                0x0000000010018474        0x0 Output\obj\driver\driver_adv_timer.o
 .rela.text.gap.adv
                0x0000000010018474        0x0 Output\obj\driver\driver_adv_timer.o
 .rela.text.sm.delete_bonding
                0x0000000010018474        0x0 Output\obj\driver\driver_adv_timer.o
 .rela.text.le.db.get
                0x0000000010018474        0x0 Output\obj\driver\driver_adv_timer.o
 .rela.text.le.db.set
                0x0000000010018474        0x0 Output\obj\driver\driver_adv_timer.o
 .rela.text.le.db.write
                0x0000000010018474        0x0 Output\obj\driver\driver_adv_timer.o
 .rela.text.le.db.read
                0x0000000010018474        0x0 Output\obj\driver\driver_adv_timer.o
 .rela.text.le.db.init
                0x0000000010018474        0x0 Output\obj\driver\driver_adv_timer.o
 .rela.text.le.db.remove
                0x0000000010018474        0x0 Output\obj\driver\driver_adv_timer.o
 .rela.text.le.db.remove_all
                0x0000000010018474        0x0 Output\obj\driver\driver_adv_timer.o
 .rela.text.le.db.add
                0x0000000010018474        0x0 Output\obj\driver\driver_adv_timer.o
 .rela.text.le.db
                0x0000000010018474        0x0 Output\obj\driver\driver_adv_timer.o
 .rela.text.le.db.dump
                0x0000000010018474        0x0 Output\obj\driver\driver_adv_timer.o
 .rela.text.stack.send.ntf_do
                0x0000000010018474        0x0 Output\obj\driver\driver_adv_timer.o
 .rela.text.stack.send.ntf
                0x0000000010018474        0x0 Output\obj\driver\driver_adv_timer.o
 .rela.text.ble.indicate
                0x0000000010018474        0x0 Output\obj\driver\driver_adv_timer.o
 .rela.text.stack.send.server
                0x0000000010018474        0x0 Output\obj\driver\driver_adv_timer.o
 .rela.com_text.server.send_req
                0x0000000010018474        0x0 Output\obj\driver\driver_adv_timer.o
 .rela.text.client.request_can_send
                0x0000000010018474        0x0 Output\obj\driver\driver_adv_timer.o
 .rela.text.client.write_req
                0x0000000010018474        0x0 Output\obj\driver\driver_adv_timer.o
 .rela.text.client.stop_listening
                0x0000000010018474        0x0 Output\obj\driver\driver_adv_timer.o
 .rela.text.sm.client
                0x0000000010018474        0x0 Output\obj\driver\driver_adv_timer.o
 .rela.text.client.deserialize_service
                0x0000000010018474        0x0 Output\obj\driver\driver_adv_timer.o
 .rela.text.client.deserialize_characteristic
                0x0000000010018474        0x0 Output\obj\driver\driver_adv_timer.o
 .rela.text.client.deserialize_characteristic_descriptor
                0x0000000010018474        0x0 Output\obj\driver\driver_adv_timer.o
 .rela.text.client.send
                0x0000000010018474        0x0 Output\obj\driver\driver_adv_timer.o
 .rela.text.client.find_services_uuid16
                0x0000000010018474        0x0 Output\obj\driver\driver_adv_timer.o
 .rela.text.client.find_character_uuid16
                0x0000000010018474        0x0 Output\obj\driver\driver_adv_timer.o
 .rela.text.client.read_value_uuid16
                0x0000000010018474        0x0 Output\obj\driver\driver_adv_timer.o
 .rela.text.sm.server
                0x0000000010018474        0x0 Output\obj\driver\driver_adv_timer.o
 .rela.text.server.register_service
                0x0000000010018474        0x0 Output\obj\driver\driver_adv_timer.o
 .rela.text.server.init
                0x0000000010018474        0x0 Output\obj\driver\driver_adv_timer.o
 .rela.com_text.server.req_can_send
                0x0000000010018474        0x0 Output\obj\driver\driver_adv_timer.o
 .rela.text.server.packet_handler
                0x0000000010018474        0x0 Output\obj\driver\driver_adv_timer.o
 .rela.text.att.event_handler
                0x0000000010018474        0x0 Output\obj\driver\driver_adv_timer.o
 .rela.text.server.indicate
                0x0000000010018474        0x0 Output\obj\driver\driver_adv_timer.o
 .rela.com_text.server.mtu_get
                0x0000000010018474        0x0 Output\obj\driver\driver_adv_timer.o
 .rela.text.att.register_client
                0x0000000010018474        0x0 Output\obj\driver\driver_adv_timer.o
 .rela.text.att.register_server
                0x0000000010018474        0x0 Output\obj\driver\driver_adv_timer.o
 .rela.text.att.dispatch
                0x0000000010018474        0x0 Output\obj\driver\driver_adv_timer.o
 .rela.text.att.dispatch_client
                0x0000000010018474        0x0 Output\obj\driver\driver_adv_timer.o
 .rela.com_text.att.dispatch_server
                0x0000000010018474        0x0 Output\obj\driver\driver_adv_timer.o
 .rela.text.att.dump
                0x0000000010018474        0x0 Output\obj\driver\driver_adv_timer.o
 .rela.text.att.mtu_request
                0x0000000010018474        0x0 Output\obj\driver\driver_adv_timer.o
 .rela.text.att_server.mtu_rsp
                0x0000000010018474        0x0 Output\obj\driver\driver_adv_timer.o
 .rela.text.gatt.get_client_config
                0x0000000010018474        0x0 Output\obj\driver\driver_adv_timer.o
 .rela.text.stack.sleep
                0x0000000010018474        0x0 Output\obj\driver\driver_adv_timer.o
 .rela.text.stack.api
                0x0000000010018474        0x0 Output\obj\driver\driver_adv_timer.o
 .rela.text.stack.setup
                0x0000000010018474        0x0 Output\obj\driver\driver_adv_timer.o
 .rela.text.ble.hci
                0x0000000010018474        0x0 Output\obj\driver\driver_adv_timer.o
 .rela.com_text.ret.bb.sleep
                0x0000000010018474        0x0 Output\obj\driver\driver_adv_timer.o
 .rela.rodata.stack.api
                0x0000000010018474        0x0 Output\obj\driver\driver_adv_timer.o
 .rela.com_text.bt.timer
                0x0000000010018474        0x0 Output\obj\driver\driver_adv_timer.o
 .rela.text.ble.api.max_mtu
                0x0000000010018474        0x0 Output\obj\driver\driver_adv_timer.o
 .rela.text.ble.api.adv_is_en
                0x0000000010018474        0x0 Output\obj\driver\driver_adv_timer.o
 .rela.text.ble.api.adv_data.set
                0x0000000010018474        0x0 Output\obj\driver\driver_adv_timer.o
 .rela.text.ble.api.scan
                0x0000000010018474        0x0 Output\obj\driver\driver_adv_timer.o
 .rela.text.ble.api.adv_interval.set
                0x0000000010018474        0x0 Output\obj\driver\driver_adv_timer.o
 .rela.text.ble.api.adv.adv_interval.get
                0x0000000010018474        0x0 Output\obj\driver\driver_adv_timer.o
 .rela.text.ble.api.conn_param.get
                0x0000000010018474        0x0 Output\obj\driver\driver_adv_timer.o
 .rela.text.ble.api.latency.dis
                0x0000000010018474        0x0 Output\obj\driver\driver_adv_timer.o
 .rela.text.ble.api.latency.en
                0x0000000010018474        0x0 Output\obj\driver\driver_adv_timer.o
 .rela.text.ble.api.adv_param.set
                0x0000000010018474        0x0 Output\obj\driver\driver_adv_timer.o
 .rela.text.ble.adv_param.get
                0x0000000010018474        0x0 Output\obj\driver\driver_adv_timer.o
 .rela.text.ble.api.regist
                0x0000000010018474        0x0 Output\obj\driver\driver_adv_timer.o
 .rela.com_sleep.bb
                0x0000000010018474        0x0 Output\obj\driver\driver_adv_timer.o
 .rela.text.rf.tx_tone
                0x0000000010018474        0x0 Output\obj\driver\driver_adv_timer.o
 .rela.com_text.ble.isr.con.end
                0x0000000010018474        0x0 Output\obj\driver\driver_adv_timer.o
 .rela.com_text.bb.isr.timer
                0x0000000010018474        0x0 Output\obj\driver\driver_adv_timer.o
 .rela.com_text.bb.isr
                0x0000000010018474        0x0 Output\obj\driver\driver_adv_timer.o
 .rela.com_text.bb.sleep
                0x0000000010018474        0x0 Output\obj\driver\driver_adv_timer.o
 .rela.text.bb.aes
                0x0000000010018474        0x0 Output\obj\driver\driver_adv_timer.o
 .rela.com_text.bb.run_loop
                0x0000000010018474        0x0 Output\obj\driver\driver_adv_timer.o
 .rela.rodata   0x0000000010018474        0x0 Output\obj\driver\driver_adv_timer.o
 .rela.text.stk.l2cap.txreq
                0x0000000010018474        0x0 Output\obj\driver\driver_adv_timer.o
 .rela.text.stack.l2cap
                0x0000000010018474        0x0 Output\obj\driver\driver_adv_timer.o
 .rela.text.stack.handler.l2cap
                0x0000000010018474        0x0 Output\obj\driver\driver_adv_timer.o
 .rela.text.stack.l2cap.gap
                0x0000000010018474        0x0 Output\obj\driver\driver_adv_timer.o
 .rela.com_text.stack.l2cap
                0x0000000010018474        0x0 Output\obj\driver\driver_adv_timer.o
 .rela.text.stack.send.l2cap
                0x0000000010018474        0x0 Output\obj\driver\driver_adv_timer.o
 .rela.text.stack.l2cap.connectionless
                0x0000000010018474        0x0 Output\obj\driver\driver_adv_timer.o
 .rela.text.stack.hci_init
                0x0000000010018474        0x0 Output\obj\driver\driver_adv_timer.o
 .rela.text.stack.hci
                0x0000000010018474        0x0 Output\obj\driver\driver_adv_timer.o
 .rela.text.stack.hci.conn
                0x0000000010018474        0x0 Output\obj\driver\driver_adv_timer.o
 .rela.com_text.stack.linked_list
                0x0000000010018474        0x0 Output\obj\driver\driver_adv_timer.o
 .rela.com_text.stack.hci
                0x0000000010018474        0x0 Output\obj\driver\driver_adv_timer.o
 .rela.text.stack.send.hci
                0x0000000010018474        0x0 Output\obj\driver\driver_adv_timer.o
 .rela.text.stack.hci_send
                0x0000000010018474        0x0 Output\obj\driver\driver_adv_timer.o
 .rela.com_text.stack.hci_recv
                0x0000000010018474        0x0 Output\obj\driver\driver_adv_timer.o
 .rela.text.stack.run_loop
                0x0000000010018474        0x0 Output\obj\driver\driver_adv_timer.o
 .rela.com_text.stack.hcic
                0x0000000010018474        0x0 Output\obj\driver\driver_adv_timer.o
 .rela.text.stack.h3c
                0x0000000010018474        0x0 Output\obj\driver\driver_adv_timer.o
 .rela.com_text.stack.h3c
                0x0000000010018474        0x0 Output\obj\driver\driver_adv_timer.o
 .rela.com_text.stack.util
                0x0000000010018474        0x0 Output\obj\driver\driver_adv_timer.o
 .rela.text.stack.ble.setup
                0x0000000010018474        0x0 Output\obj\driver\driver_adv_timer.o
 .rela.com_text.stack.uart_isr
                0x0000000010018474        0x0 Output\obj\driver\driver_adv_timer.o
 .rela.text.stack.hal
                0x0000000010018474        0x0 Output\obj\driver\driver_adv_timer.o
 .rela.com_text.bb.prog
                0x0000000010018474        0x0 Output\obj\driver\driver_adv_timer.o
 .rela.com_sleep.rfphy
                0x0000000010018474        0x0 Output\obj\driver\driver_adv_timer.o
 .rela.com_text.ble.isr
                0x0000000010018474        0x0 Output\obj\driver\driver_adv_timer.o
 .rela.text.le.mgr
                0x0000000010018474        0x0 Output\obj\driver\driver_adv_timer.o
 .rela.rodata.le.mgr_cntl.tbl
                0x0000000010018474        0x0 Output\obj\driver\driver_adv_timer.o
 .rela.text.le.ll_adv.con
                0x0000000010018474        0x0 Output\obj\driver\driver_adv_timer.o
 .rela.text.le.ll_adv
                0x0000000010018474        0x0 Output\obj\driver\driver_adv_timer.o
 .rela.text.le.ll_cntl.pdu
                0x0000000010018474        0x0 Output\obj\driver\driver_adv_timer.o
 .rela.com_text.ble.isr.con
                0x0000000010018474        0x0 Output\obj\driver\driver_adv_timer.o
 .rela.text.le.ll_cntl.send
                0x0000000010018474        0x0 Output\obj\driver\driver_adv_timer.o
 .rela.rodata.le.ll_cntl.tbl
                0x0000000010018474        0x0 Output\obj\driver\driver_adv_timer.o
 .rela.text.le.ll_cntl
                0x0000000010018474        0x0 Output\obj\driver\driver_adv_timer.o
 .rela.text.le.ll_cntl.start
                0x0000000010018474        0x0 Output\obj\driver\driver_adv_timer.o
 .rela.text.le.ll_cntl.state
                0x0000000010018474        0x0 Output\obj\driver\driver_adv_timer.o
 .rela.text.le.ll_cntl.stop
                0x0000000010018474        0x0 Output\obj\driver\driver_adv_timer.o
 .rela.text.ble.var.init
                0x0000000010018474        0x0 Output\obj\driver\driver_adv_timer.o
 .rela.text.bb.vs.fcc_ble.do
                0x0000000010018474        0x0 Output\obj\driver\driver_adv_timer.o
 .rela.text.bb.vs.fcc
                0x0000000010018474        0x0 Output\obj\driver\driver_adv_timer.o
 .rela.com_rodata.bb.tbl
                0x0000000010018474        0x0 Output\obj\driver\driver_adv_timer.o
 .rela.text.le.ll_proc.disc
                0x0000000010018474        0x0 Output\obj\driver\driver_adv_timer.o
 .rela.text.bb.ble.test.start
                0x0000000010018474        0x0 Output\obj\driver\driver_adv_timer.o
                0x0000000010018474        0x4 LONG 0x0
                0x0000000010018600                . = ALIGN (0x200)
 *fill*         0x0000000010018478      0x188 

.stack          0x0000000000010800      0x400
                0x0000000000010800                __irq_stack_start = .
                0x0000000000000400                . = 0x400
 *fill*         0x0000000000010800      0x400 
                0x0000000000010c00                __irq_stack = .
                0x0000000000000400                __irq_stack_size = (__irq_stack - __irq_stack_start)

.bss            0x0000000000013e00     0x18a8
                0x0000000000013e00                __heap_start = .
 *(.mem_heap)
 .mem_heap      0x0000000000013e00     0x11b4 Output\obj\project\ble_peripheral\strong_symbol.o
                0x0000000000013e00                mem_heap
                0x0000000000014fb4                __heap_end = .
                0x0000000000014fb4                __bss_start = .
 *(COMMON)
 COMMON         0x0000000000014fb4       0x20 Output\obj\project\ble_peripheral\app\func_lowpwr.o
                0x0000000000014fb4                sfr_user_backup
 COMMON         0x0000000000014fd4       0x21 Output\obj\project\ble_peripheral\ble\ble_fota_service.o
                0x0000000000014fd4                fot_var
 *fill*         0x0000000000014ff5        0x3 
 COMMON         0x0000000000014ff8       0x64 Output\obj\project\ble_peripheral\ble\ble_user_service.o
                0x0000000000014ff8                ble_user_cb
 COMMON         0x000000000001505c       0x38 Output\obj\project\ble_peripheral\bsp\bsp_sys.o
                0x000000000001505c                tmr5ms_cnt
                0x0000000000015060                xcfg_cb
 COMMON         0x0000000000015094        0x1 Output\obj\project\ble_peripheral\strong_symbol.o
                0x0000000000015094                cfg_bt_rf_def_txpwr
 *(.bss*)
 *fill*         0x0000000000015095        0x3 
 .bss.charge_ctrl
                0x0000000000015098       0x10 Output\obj\driver\driver_charge.o
 .bss.sfr_backup
                0x00000000000150a8       0x60 Output\obj\driver\driver_lowpwr.o
 .bss.fota_service
                0x0000000000015108       0x14 Output\obj\project\ble_peripheral\ble\ble_fota_service.o
 .bss.ff20_service
                0x000000000001511c       0x14 Output\obj\project\ble_peripheral\ble\ble_user_service.o
 .bss.filter_buf.4832
                0x0000000000015130       0x14 Output\obj\project\ble_peripheral\bsp\bsp_saradc_vbat.o
 .bss.cpu_gprs  0x0000000000015144       0x80 ..\..\libs\cpu\libplatform.a(main.o)
                0x0000000000015144                cpu_gprs
 .bss.sys       0x00000000000151c4       0x18 ..\..\libs\cpu\libplatform.a(main.o)
                0x00000000000151c4                sys
 .bss.irq_tbl   0x00000000000151dc       0x84 ..\..\libs\cpu\libplatform.a(interrupt.o)
                0x00000000000151dc                tbl_irq_vector
                0x000000000001525c                irq_mask
 .bss.soft_timer
                0x0000000000015260       0x28 ..\..\libs\cpu\libplatform.a(startup.o)
 .bss.thread.btstack
                0x0000000000015288        0x8 ..\..\libs\cpu\libplatform.a(startup.o)
                0x0000000000015288                psem_btstack
                0x000000000001528c                pmq_btstack
 .bss.lock_cb   0x0000000000015290       0x10 ..\..\libs\cpu\libplatform.a(lock.o)
 .bss.fix_buf   0x00000000000152a0        0xc ..\..\libs\cpu\libplatform.a(sleep.o)
                0x00000000000152a0                fix_buf
 .bss.sys_trim  0x00000000000152ac       0x10 ..\..\libs\cpu\libplatform.a(voltage_trim.o)
                0x00000000000152ac                sys_trim
 .bss           0x00000000000152bc       0x30 ..\..\libs\ble\libbtstack.a(sm.o)
 .bss           0x00000000000152ec      0x128 ..\..\libs\ble\libbtstack.a(bb_sche.o)
 .bss           0x0000000000015414        0xc ..\..\libs\ble\libbtstack.a(aes.o)
                0x0000000000015414                aes_env
 .bss           0x0000000000015420       0x1c ..\..\libs\ble\libbtstack.a(hct_tl.o)
 .bss           0x000000000001543c       0x28 ..\..\libs\ble\libbtstack.a(ll_tbox_freq_cal.o)
 .bss           0x0000000000015464       0xc0 ..\..\libs\ble\libbtstack.a(ble_buf.o)
 *(.sbss*)
 .sbss.charge_status
                0x0000000000015524        0x7 Output\obj\driver\driver_charge.o
 *fill*         0x000000000001552b        0x1 
 .sbss.wkupedg_bak
                0x000000000001552c        0x4 Output\obj\driver\driver_lowpwr.o
 .sbss.fota_client_config
                0x0000000000015530        0x2 Output\obj\project\ble_peripheral\ble\ble_fota_service.o
 *fill*         0x0000000000015532        0x2 
 .sbss.cfg_bt_work_mode
                0x0000000000015534        0x4 Output\obj\project\ble_peripheral\ble\ble_init.o
                0x0000000000015534                cfg_bt_work_mode
 .sbss.ble_param
                0x0000000000015538        0x8 Output\obj\project\ble_peripheral\ble\ble_proc.o
 .sbss.ff22_client_config
                0x0000000000015540        0x2 Output\obj\project\ble_peripheral\ble\ble_user_service.o
 *fill*         0x0000000000015542        0x2 
 .sbss.delay_cnt1.4757
                0x0000000000015544        0x4 Output\obj\project\ble_peripheral\bsp\bsp_charge.o
 .sbss.delay_cnt2.4758
                0x0000000000015548        0x4 Output\obj\project\ble_peripheral\bsp\bsp_charge.o
 .sbss.key_status
                0x000000000001554c        0x6 Output\obj\project\ble_peripheral\bsp\bsp_key.o
 *fill*         0x0000000000015552        0x2 
 .sbss.tick.4671
                0x0000000000015554        0x4 Output\obj\project\ble_peripheral\bsp\bsp_saradc.o
 .sbss.auto_off_count.4842
                0x0000000000015558        0x1 Output\obj\project\ble_peripheral\bsp\bsp_saradc_vbat.o
 .sbss.index.4831
                0x0000000000015559        0x1 Output\obj\project\ble_peripheral\bsp\bsp_saradc_vbat.o
 *fill*         0x000000000001555a        0x2 
 .sbss.vbat_voltage
                0x000000000001555c        0x4 Output\obj\project\ble_peripheral\bsp\bsp_saradc_vbat.o
 .sbss.cfg_bt_hsec_wakeup_en
                0x0000000000015560        0x1 Output\obj\project\ble_peripheral\strong_symbol.o
                0x0000000000015560                cfg_bt_hsec_wakeup_en
 *fill*         0x0000000000015561        0x3 
 .sbss.spi_baud_r
                0x0000000000015564        0x4 ..\..\libs\cpu\libplatform.a(os_flash.o)
                0x0000000000015564                spi_baud_r
 .sbss.spi_baud_w
                0x0000000000015568        0x4 ..\..\libs\cpu\libplatform.a(os_flash.o)
                0x0000000000015568                spi_baud_w
 .sbss.ms_tick  0x000000000001556c        0x4 ..\..\libs\cpu\libplatform.a(interrupt.o)
                0x000000000001556c                ms_tick
 .sbss.os_tick_cnt
                0x0000000000015570        0x4 ..\..\libs\cpu\libplatform.a(interrupt.o)
                0x0000000000015570                os_tick_cnt
 .sbss.p_thread_cfg_cb
                0x0000000000015574        0x4 ..\..\libs\cpu\libplatform.a(startup.o)
                0x0000000000015574                p_thread_cfg_cb
 .sbss.pmutex_clk
                0x0000000000015578        0x4 ..\..\libs\cpu\libplatform.a(startup.o)
                0x0000000000015578                pmutex_clk
 .sbss.pmutex_cm
                0x000000000001557c        0x4 ..\..\libs\cpu\libplatform.a(startup.o)
                0x000000000001557c                pmutex_cm
 .sbss.soft_timer_isr_en
                0x0000000000015580        0x4 ..\..\libs\cpu\libplatform.a(startup.o)
                0x0000000000015580                soft_timer_isr_en
 .sbss.flash_manufacturer_id
                0x0000000000015584        0x1 ..\..\libs\cpu\libplatform.a(spiflash.o)
                0x0000000000015584                flash_manufacturer_id
 .sbss.fot_update_init
                0x0000000000015585        0x1 ..\..\libs\cpu\libplatform.a(fot_pack.o)
 .sbss.fot_update_success
                0x0000000000015586        0x1 ..\..\libs\cpu\libplatform.a(fot_pack.o)
 .sbss.spiflash_protect_dis
                0x0000000000015587        0x1 ..\..\libs\cpu\libplatform.a(fot_pack.o)
 .sbss.tbl_double_key
                0x0000000000015588        0x4 ..\..\libs\cpu\libplatform.a(key.o)
 .sbss.tbl_double_key_cnt
                0x000000000001558c        0x1 ..\..\libs\cpu\libplatform.a(key.o)
 *fill*         0x000000000001558d        0x3 
 .sbss.lowpwr_sfr_save
                0x0000000000015590        0x8 ..\..\libs\cpu\libplatform.a(sleep.o)
 .sbss.bt_thread_res
                0x0000000000015598        0x4 ..\..\libs\cpu\libplatform.a(bt.o)
                0x0000000000015598                bt_thread_res
 .sbss          0x000000000001559c       0x10 ..\..\libs\ble\libbtstack.a(sm.o)
 .sbss          0x00000000000155ac        0xc ..\..\libs\ble\libbtstack.a(att_server.o)
 .sbss          0x00000000000155b8        0xc ..\..\libs\ble\libbtstack.a(att_dispatch.o)
 .sbss          0x00000000000155c4       0x10 ..\..\libs\ble\libbtstack.a(att_db.o)
 .sbss          0x00000000000155d4       0x1c ..\..\libs\ble\libbtstack.a(btstack_api.o)
                0x00000000000155d4                fcc_cfg_cb
                0x00000000000155dc                random_static_addr
                0x00000000000155e4                btstack_cb
                0x00000000000155e8                conn_param
 .sbss          0x00000000000155f0        0x2 ..\..\libs\ble\libbtstack.a(bb.o)
 .sbss          0x00000000000155f2        0x2 ..\..\libs\ble\libbtstack.a(l2cap.o)
 .sbss          0x00000000000155f4        0x4 ..\..\libs\ble\libbtstack.a(hci.o)
 .sbss          0x00000000000155f8        0x4 ..\..\libs\ble\libbtstack.a(hci_transport_hcic.o)
 .sbss          0x00000000000155fc       0x10 ..\..\libs\ble\libbtstack.a(btstack_main.o)
 .sbss          0x000000000001560c        0x8 ..\..\libs\ble\libbtstack.a(bb_sche.o)
                0x000000000001560c                ss_params
 .sbss          0x0000000000015614        0x8 ..\..\libs\ble\libbtstack.a(rf_xbox.o)
                0x0000000000015614                q_sum
                0x0000000000015618                i_sum
 .sbss          0x000000000001561c        0x1 ..\..\libs\ble\libbtstack.a(mgr_proc.o)
 *fill*         0x000000000001561d        0x3 
 .sbss          0x0000000000015620        0x5 ..\..\libs\ble\libbtstack.a(ll_tbox_prod_test.o)
 *fill*         0x0000000000015625        0x3 
 .sbss          0x0000000000015628        0x2 ..\..\libs\ble\libbtstack.a(ll_proc.o)
 *(.buf*)
 *fill*         0x000000000001562a        0x2 
 .buf.func_cb   0x000000000001562c        0x2 Output\obj\project\ble_peripheral\app\func.o
                0x000000000001562c                func_cb
 *fill*         0x000000000001562e        0x2 
 .buf.bsp.sys_cb
                0x0000000000015630       0x14 Output\obj\project\ble_peripheral\bsp\bsp_sys.o
                0x0000000000015630                sys_cb
 .buf.key.cb    0x0000000000015644       0x10 ..\..\libs\cpu\libplatform.a(key.o)
 *(.btmem.stack.l2cap)
 .btmem.stack.l2cap
                0x0000000000015654       0x54 ..\..\libs\ble\libbtstack.a(l2cap.o)
                0x00000000000156a8                __bss_end = .
                0x00000000000006f4                __bss_size = (__bss_end - __bss_start)
                0x00000000000011b4                __heap_size = (__heap_end - __heap_start)

.bram           0x0000000000018000     0x3588
                0x0000000000018000                __bram_start = .
 *(.btmem.bthw)
 .btmem.bthw    0x0000000000018000     0x1718 ..\..\libs\ble\libbtstack.a(bb.o)
                0x0000000000018000                bthw_mem
 *(.btmem*)
 .btmem.spi     0x0000000000019718      0x28c ..\..\libs\cpu\libplatform.a(cm.o)
 .btmem.rf.dc   0x00000000000199a4       0x48 ..\..\libs\ble\libbtstack.a(rf.o)
                0x00000000000199a4                rf_dc_trim
 .btmem.ble.con
                0x00000000000199ec        0x8 ..\..\libs\ble\libbtstack.a(ble_con.o)
                0x00000000000199ec                ble_con_env
 .btmem.bb.env  0x00000000000199f4       0x68 ..\..\libs\ble\libbtstack.a(bb_int.o)
                0x00000000000199f4                bb_env
 .btmem.alloc.bb.buf
                0x0000000000019a5c      0x698 ..\..\libs\ble\libbtstack.a(bb.o)
 .btmem.bb.buf  0x000000000001a0f4      0x1f0 ..\..\libs\ble\libbtstack.a(bb.o)
 .btmem.bb.rf   0x000000000001a2e4        0x6 ..\..\libs\ble\libbtstack.a(bb.o)
                0x000000000001a2e4                rf_api
 *fill*         0x000000000001a2ea        0x2 
 .btmem.cache.stack.hci
                0x000000000001a2ec      0x41d ..\..\libs\ble\libbtstack.a(hci.o)
 *fill*         0x000000000001a709        0x3 
 .btmem.stack.hci_buf
                0x000000000001a70c      0x318 ..\..\libs\ble\libbtstack.a(hci.o)
 .btmem.stack.util
                0x000000000001aa24       0x12 ..\..\libs\ble\libbtstack.a(btstack_util.o)
 *fill*         0x000000000001aa36        0x2 
 .btmem.stack   0x000000000001aa38       0x14 ..\..\libs\ble\libbtstack.a(btstack_run_loop.o)
 .btmem.hci.transport
                0x000000000001aa4c       0x24 ..\..\libs\ble\libbtstack.a(hci_transport_hcic.o)
                0x000000000001aa6c                p_hci_transport
 .btmem.bb.buf  0x000000000001aa70       0x2c ..\..\libs\ble\libbtstack.a(nanos.o)
 .btmem.bb.rf   0x000000000001aa9c        0x7 ..\..\libs\ble\libbtstack.a(rf_xbox.o)
 *fill*         0x000000000001aaa3        0x1 
 .btmem.bb.hci  0x000000000001aaa4        0x2 ..\..\libs\ble\libbtstack.a(hct.o)
                0x000000000001aaa4                hci_env
 *fill*         0x000000000001aaa6        0x2 
 .btmem.ble.lm  0x000000000001aaa8       0xe8 ..\..\libs\ble\libbtstack.a(mgr.o)
                0x000000000001aaa8                mgr_env
 .btmem.ble.lc  0x000000000001ab90        0x8 ..\..\libs\ble\libbtstack.a(ll.o)
                0x000000000001ab90                ll_env
 .btmem.ble.hal
                0x000000000001ab98      0x124 ..\..\libs\ble\libbtstack.a(ble_hal.o)
                0x000000000001ab98                ble_env
                0x000000000001acb4                ble_exp_sync_pos_tab
 .btmem.ble.adv
                0x000000000001acbc        0x8 ..\..\libs\ble\libbtstack.a(ble_adv.o)
 .btmem.ble.buf
                0x000000000001acc4       0x30 ..\..\libs\ble\libbtstack.a(ble_buf.o)
 .btmem.bb.ble.tbl
                0x000000000001acf4       0x10 ..\..\libs\ble\libbtstack.a(ble.o)
 .btmem.bb.vs   0x000000000001ad04        0xd ..\..\libs\ble\libbtstack.a(vs_proc.o)
                0x000000000001ad04                vs_env
 *fill*         0x000000000001ad11        0x3 
 .btmem.ble.test
                0x000000000001ad14        0x4 ..\..\libs\ble\libbtstack.a(ble_test.o)
 *(.ble_cache*)
 .ble_cache.att
                0x000000000001ad18      0x460 Output\obj\project\ble_peripheral\ble\ble_init.o
                0x000000000001ad18                ble_tx_pool
 .ble_cache.att
                0x000000000001b178       0x10 ..\..\libs\ble\libbtstack.a(txpkt.o)
                0x000000000001b178                ble_tx
 .ble_cache.sm.addr
                0x000000000001b188        0x6 ..\..\libs\ble\libbtstack.a(sm.o)
 *fill*         0x000000000001b18e        0x2 
 .ble_cache.sm.aes
                0x000000000001b190        0x8 ..\..\libs\ble\libbtstack.a(sm.o)
 .ble_cache.sm.irk
                0x000000000001b198       0x10 ..\..\libs\ble\libbtstack.a(sm.o)
 .ble_cache.sm.rand
                0x000000000001b1a8        0x4 ..\..\libs\ble\libbtstack.a(sm.o)
 .ble_cache.sm.sta
                0x000000000001b1ac        0x8 ..\..\libs\ble\libbtstack.a(sm.o)
 .ble_cache.att
                0x000000000001b1b4       0x50 ..\..\libs\ble\libbtstack.a(ad_parser.o)
                0x000000000001b1b4                ad_param
 *(.ble_buf*)
 .ble_buf.var   0x000000000001b204        0x2 Output\obj\project\ble_peripheral\ble\ble_init.o
                0x000000000001b204                ble_cb
 *fill*         0x000000000001b206        0x2 
 .ble_buf.att   0x000000000001b208       0xe0 ..\..\libs\ble\libbtstack.a(le_device_db_memory.o)
                0x000000000001b208                le_devices
 .ble_buf.att   0x000000000001b2e8       0x28 ..\..\libs\ble\libbtstack.a(gatt_client.o)
 .ble_buf.att   0x000000000001b310       0x10 ..\..\libs\ble\libbtstack.a(att_server.o)
 *(.codec*)
 *(.fot_data.*)
 .fot_data.buf  0x000000000001b320      0x200 Output\obj\project\ble_peripheral\ble\ble_fota_service.o
 .fot_data.com.pack
                0x000000000001b520       0x68 ..\..\libs\cpu\libplatform.a(fot_pack.o)
 *(.tbox.*)
 *(.dut.huart_buf)
 *(.hci.h3*)
 *(.prod_test*)
                0x000000000001b588                __bram_end = .
                0x0000000000003588                __bram_size = (__bram_end - __bram_start)
                0x0000000000015200                __bank_size = SIZEOF (.flash)
                0x0000000010000200                __comm_lma = LOADADDR (.comm)
                0x0000000000003200                __comm_size = SIZEOF (.comm)
LOAD ..\..\libs\cpu\libplatform.a
LOAD ..\..\libs\cpu\libm.a
LOAD ..\..\libs\cpu\libc.a
LOAD ..\..\libs\cpu\libgcc.a
LOAD ..\..\libs\ble\libbtstack.a
OUTPUT(Output\bin\app.rv32 elf32-littleriscv)

.comment        0x0000000000000000       0x23
 .comment       0x0000000000000000       0x11 Output\obj\driver\driver_charge.o
                                         0x12 (size before relaxing)
 .comment       0x0000000000000011       0x12 Output\obj\driver\driver_clk.o
 .comment       0x0000000000000011       0x12 Output\obj\driver\driver_gpio.o
 .comment       0x0000000000000011       0x12 Output\obj\driver\driver_lowpwr.o
 .comment       0x0000000000000011       0x12 Output\obj\driver\driver_saradc.o
 .comment       0x0000000000000011       0x12 Output\obj\driver\driver_uart.o
 .comment       0x0000000000000011       0x12 Output\obj\project\ble_peripheral\app\func.o
 .comment       0x0000000000000011       0x12 Output\obj\project\ble_peripheral\app\func_bt.o
 .comment       0x0000000000000011       0x12 Output\obj\project\ble_peripheral\app\func_idle.o
 .comment       0x0000000000000011       0x12 Output\obj\project\ble_peripheral\app\func_lowpwr.o
 .comment       0x0000000000000011       0x12 Output\obj\project\ble_peripheral\app\msg_bt.o
 .comment       0x0000000000000011       0x12 Output\obj\project\ble_peripheral\app\msg_idle.o
 .comment       0x0000000000000011       0x12 Output\obj\project\ble_peripheral\ble\ble_fota_service.o
 .comment       0x0000000000000011       0x12 Output\obj\project\ble_peripheral\ble\ble_init.o
 .comment       0x0000000000000011       0x12 Output\obj\project\ble_peripheral\ble\ble_proc.o
 .comment       0x0000000000000011       0x12 Output\obj\project\ble_peripheral\ble\ble_service.o
 .comment       0x0000000000000011       0x12 Output\obj\project\ble_peripheral\ble\ble_user_service.o
 .comment       0x0000000000000011       0x12 Output\obj\project\ble_peripheral\bsp\bsp_charge.o
 .comment       0x0000000000000011       0x12 Output\obj\project\ble_peripheral\bsp\bsp_io_key.o
 .comment       0x0000000000000011       0x12 Output\obj\project\ble_peripheral\bsp\bsp_key.o
 .comment       0x0000000000000011       0x12 Output\obj\project\ble_peripheral\bsp\bsp_param.o
 .comment       0x0000000000000011       0x12 Output\obj\project\ble_peripheral\bsp\bsp_saradc.o
 .comment       0x0000000000000011       0x12 Output\obj\project\ble_peripheral\bsp\bsp_saradc_vbat.o
 .comment       0x0000000000000011       0x12 Output\obj\project\ble_peripheral\bsp\bsp_sys.o
 .comment       0x0000000000000011       0x12 Output\obj\project\ble_peripheral\bsp\bsp_uart_debug.o
 .comment       0x0000000000000011       0x12 Output\obj\project\ble_peripheral\main.o
 .comment       0x0000000000000011       0x12 Output\obj\project\ble_peripheral\production_test\prod_test.o
 .comment       0x0000000000000011       0x12 Output\obj\project\ble_peripheral\strong_symbol.o
 .comment       0x0000000000000011       0x12 ..\..\libs\cpu\libplatform.a(cm.o)
                                         0x13 (size before relaxing)
 .comment       0x0000000000000023       0x13 ..\..\libs\cpu\libplatform.a(os_flash.o)
 .comment       0x0000000000000023       0x13 ..\..\libs\cpu\libplatform.a(xcfg.o)
 .comment       0x0000000000000023       0x13 ..\..\libs\cpu\libplatform.a(main.o)
 .comment       0x0000000000000023       0x13 ..\..\libs\cpu\libplatform.a(interrupt.o)
 .comment       0x0000000000000023       0x13 ..\..\libs\cpu\libplatform.a(startup.o)
 .comment       0x0000000000000023       0x13 ..\..\libs\cpu\libplatform.a(sys_hook.o)
 .comment       0x0000000000000023       0x13 ..\..\libs\cpu\libplatform.a(pll.o)
 .comment       0x0000000000000023       0x13 ..\..\libs\cpu\libplatform.a(pmu.o)
 .comment       0x0000000000000023       0x13 ..\..\libs\cpu\libplatform.a(rc.o)
 .comment       0x0000000000000023       0x13 ..\..\libs\cpu\libplatform.a(spiflash.o)
 .comment       0x0000000000000023       0x13 ..\..\libs\cpu\libplatform.a(debug.o)
 .comment       0x0000000000000023       0x13 ..\..\libs\cpu\libplatform.a(fot_pack.o)
 .comment       0x0000000000000023       0x13 ..\..\libs\cpu\libplatform.a(key.o)
 .comment       0x0000000000000023       0x13 ..\..\libs\cpu\libplatform.a(lock.o)
 .comment       0x0000000000000023       0x13 ..\..\libs\cpu\libplatform.a(patch.o)
 .comment       0x0000000000000023       0x13 ..\..\libs\cpu\libplatform.a(sleep.o)
 .comment       0x0000000000000023       0x13 ..\..\libs\cpu\libplatform.a(sys.o)
 .comment       0x0000000000000023       0x13 ..\..\libs\cpu\libplatform.a(sys_clk.o)
 .comment       0x0000000000000023       0x13 ..\..\libs\cpu\libplatform.a(voltage_trim.o)
 .comment       0x0000000000000023       0x13 ..\..\libs\cpu\libplatform.a(weak_symbol.o)
 .comment       0x0000000000000023       0x13 ..\..\libs\cpu\libplatform.a(bt.o)
 .comment       0x0000000000000023       0x13 ..\..\libs\cpu\libplatform.a(crc.o)
 .comment       0x0000000000000023       0x13 ..\..\libs\ble\libbtstack.a(txpkt.o)
 .comment       0x0000000000000023       0x13 ..\..\libs\ble\libbtstack.a(sm.o)
 .comment       0x0000000000000023       0x13 ..\..\libs\ble\libbtstack.a(le_device_db_memory.o)
 .comment       0x0000000000000023       0x13 ..\..\libs\ble\libbtstack.a(gatt_server.o)
 .comment       0x0000000000000023       0x13 ..\..\libs\ble\libbtstack.a(gatt_client.o)
 .comment       0x0000000000000023       0x13 ..\..\libs\ble\libbtstack.a(att_server.o)
 .comment       0x0000000000000023       0x13 ..\..\libs\ble\libbtstack.a(att_dispatch.o)
 .comment       0x0000000000000023       0x13 ..\..\libs\ble\libbtstack.a(att_db.o)
 .comment       0x0000000000000023       0x13 ..\..\libs\ble\libbtstack.a(btstack_api.o)
 .comment       0x0000000000000023       0x13 ..\..\libs\ble\libbtstack.a(bt_api.o)
 .comment       0x0000000000000023       0x13 ..\..\libs\ble\libbtstack.a(ble_api.o)
 .comment       0x0000000000000023       0x13 ..\..\libs\ble\libbtstack.a(rf.o)
 .comment       0x0000000000000023       0x13 ..\..\libs\ble\libbtstack.a(ble_con.o)
 .comment       0x0000000000000023       0x13 ..\..\libs\ble\libbtstack.a(bb_utils.o)
 .comment       0x0000000000000023       0x13 ..\..\libs\ble\libbtstack.a(bb_int.o)
 .comment       0x0000000000000023       0x13 ..\..\libs\ble\libbtstack.a(bb.o)
 .comment       0x0000000000000023       0x13 ..\..\libs\ble\libbtstack.a(platform.o)
 .comment       0x0000000000000023       0x13 ..\..\libs\ble\libbtstack.a(extern_ble.o)
 .comment       0x0000000000000023       0x13 ..\..\libs\ble\libbtstack.a(extern.o)
 .comment       0x0000000000000023       0x13 ..\..\libs\ble\libbtstack.a(l2cap.o)
 .comment       0x0000000000000023       0x13 ..\..\libs\ble\libbtstack.a(hci_dump.o)
 .comment       0x0000000000000023       0x13 ..\..\libs\ble\libbtstack.a(hci_cmd.o)
 .comment       0x0000000000000023       0x13 ..\..\libs\ble\libbtstack.a(hci.o)
 .comment       0x0000000000000023       0x13 ..\..\libs\ble\libbtstack.a(btstack_util.o)
 .comment       0x0000000000000023       0x13 ..\..\libs\ble\libbtstack.a(btstack_run_loop.o)
 .comment       0x0000000000000023       0x13 ..\..\libs\ble\libbtstack.a(btstack_memory.o)
 .comment       0x0000000000000023       0x13 ..\..\libs\ble\libbtstack.a(btstack_linked_list.o)
 .comment       0x0000000000000023       0x13 ..\..\libs\ble\libbtstack.a(ad_parser.o)
 .comment       0x0000000000000023       0x13 ..\..\libs\ble\libbtstack.a(hci_transport_hcic.o)
 .comment       0x0000000000000023       0x13 ..\..\libs\ble\libbtstack.a(hci_transport_h3_controller.o)
 .comment       0x0000000000000023       0x13 ..\..\libs\ble\libbtstack.a(hci_transport_dummy.o)
 .comment       0x0000000000000023       0x13 ..\..\libs\ble\libbtstack.a(btstack_main.o)
 .comment       0x0000000000000023       0x13 ..\..\libs\ble\libbtstack.a(btstack_hal.o)
 .comment       0x0000000000000023       0x13 ..\..\libs\ble\libbtstack.a(nanos.o)
 .comment       0x0000000000000023       0x13 ..\..\libs\ble\libbtstack.a(bb_sche.o)
 .comment       0x0000000000000023       0x13 ..\..\libs\ble\libbtstack.a(patch.o)
 .comment       0x0000000000000023       0x13 ..\..\libs\ble\libbtstack.a(bb_dbg.o)
 .comment       0x0000000000000023       0x13 ..\..\libs\ble\libbtstack.a(bb_clk.o)
 .comment       0x0000000000000023       0x13 ..\..\libs\ble\libbtstack.a(aes.o)
 .comment       0x0000000000000023       0x13 ..\..\libs\ble\libbtstack.a(extern.o)
 .comment       0x0000000000000023       0x13 ..\..\libs\ble\libbtstack.a(vs.o)
 .comment       0x0000000000000023       0x13 ..\..\libs\ble\libbtstack.a(rf_xbox.o)
 .comment       0x0000000000000023       0x13 ..\..\libs\ble\libbtstack.a(complex.o)
 .comment       0x0000000000000023       0x13 ..\..\libs\ble\libbtstack.a(ble_hook.o)
 .comment       0x0000000000000023       0x13 ..\..\libs\ble\libbtstack.a(hct_tl.o)
 .comment       0x0000000000000023       0x13 ..\..\libs\ble\libbtstack.a(hct_msg.o)
 .comment       0x0000000000000023       0x13 ..\..\libs\ble\libbtstack.a(hct.o)
 .comment       0x0000000000000023       0x13 ..\..\libs\ble\libbtstack.a(mgr_hci.o)
 .comment       0x0000000000000023       0x13 ..\..\libs\ble\libbtstack.a(mgr.o)
 .comment       0x0000000000000023       0x13 ..\..\libs\ble\libbtstack.a(ll_adv.o)
 .comment       0x0000000000000023       0x13 ..\..\libs\ble\libbtstack.a(ll_tbox_freq_cal.o)
 .comment       0x0000000000000023       0x13 ..\..\libs\ble\libbtstack.a(ll_con_upd.o)
 .comment       0x0000000000000023       0x13 ..\..\libs\ble\libbtstack.a(ll_cntl.o)
 .comment       0x0000000000000023       0x13 ..\..\libs\ble\libbtstack.a(ll_clk_acc.o)
 .comment       0x0000000000000023       0x13 ..\..\libs\ble\libbtstack.a(ll_chmap_upd.o)
 .comment       0x0000000000000023       0x13 ..\..\libs\ble\libbtstack.a(ll.o)
 .comment       0x0000000000000023       0x13 ..\..\libs\ble\libbtstack.a(ble_hal.o)
 .comment       0x0000000000000023       0x13 ..\..\libs\ble\libbtstack.a(ble_adv.o)
 .comment       0x0000000000000023       0x13 ..\..\libs\ble\libbtstack.a(ble_buf.o)
 .comment       0x0000000000000023       0x13 ..\..\libs\ble\libbtstack.a(ble.o)
 .comment       0x0000000000000023       0x13 ..\..\libs\ble\libbtstack.a(bb_sleep.o)
 .comment       0x0000000000000023       0x13 ..\..\libs\ble\libbtstack.a(l2cap_signaling.o)
 .comment       0x0000000000000023       0x13 ..\..\libs\ble\libbtstack.a(platform.o)
 .comment       0x0000000000000023       0x13 ..\..\libs\ble\libbtstack.a(vs_proc.o)
 .comment       0x0000000000000023       0x13 ..\..\libs\ble\libbtstack.a(vs_fcc.o)
 .comment       0x0000000000000023       0x13 ..\..\libs\ble\libbtstack.a(adv_hook.o)
 .comment       0x0000000000000023       0x13 ..\..\libs\ble\libbtstack.a(mgr_test.o)
 .comment       0x0000000000000023       0x13 ..\..\libs\ble\libbtstack.a(mgr_proc.o)
 .comment       0x0000000000000023       0x13 ..\..\libs\ble\libbtstack.a(ll_version.o)
 .comment       0x0000000000000023       0x13 ..\..\libs\ble\libbtstack.a(ll_tbox_prod_test.o)
 .comment       0x0000000000000023       0x13 ..\..\libs\ble\libbtstack.a(ll_tbox_feature.o)
 .comment       0x0000000000000023       0x13 ..\..\libs\ble\libbtstack.a(ll_proc.o)
 .comment       0x0000000000000023       0x13 ..\..\libs\ble\libbtstack.a(ll_ping.o)
 .comment       0x0000000000000023       0x13 ..\..\libs\ble\libbtstack.a(ll_phy_upd.o)
 .comment       0x0000000000000023       0x13 ..\..\libs\ble\libbtstack.a(ll_length.o)
 .comment       0x0000000000000023       0x13 ..\..\libs\ble\libbtstack.a(ll_feature.o)
 .comment       0x0000000000000023       0x13 ..\..\libs\ble\libbtstack.a(ll_encrypt.o)
 .comment       0x0000000000000023       0x13 ..\..\libs\ble\libbtstack.a(ll_disconnect.o)
 .comment       0x0000000000000023       0x13 ..\..\libs\ble\libbtstack.a(ble_test.o)
 .comment       0x0000000000000023       0x13 ..\..\libs\ble\libbtstack.a(ble_sync.o)
 .comment       0x0000000000000023       0x13 ..\..\libs\ble\libbtstack.a(ble_scan.o)
 .comment       0x0000000000000023       0x13 ..\..\libs\ble\libbtstack.a(ble_init.o)

.riscv.attributes
                0x0000000000000000     0x1516
 .riscv.attributes
                0x0000000000000000       0x32 ..\..\libs\cpu\libplatform.a(cm.o)
 .riscv.attributes
                0x0000000000000032       0x32 ..\..\libs\cpu\libplatform.a(os_flash.o)
 .riscv.attributes
                0x0000000000000064       0x32 ..\..\libs\cpu\libplatform.a(xcfg.o)
 .riscv.attributes
                0x0000000000000096       0x32 ..\..\libs\cpu\libplatform.a(main.o)
 .riscv.attributes
                0x00000000000000c8       0x32 ..\..\libs\cpu\libplatform.a(interrupt.o)
 .riscv.attributes
                0x00000000000000fa       0x32 ..\..\libs\cpu\libplatform.a(startup.o)
 .riscv.attributes
                0x000000000000012c       0x32 ..\..\libs\cpu\libplatform.a(sys_hook.o)
 .riscv.attributes
                0x000000000000015e       0x32 ..\..\libs\cpu\libplatform.a(pll.o)
 .riscv.attributes
                0x0000000000000190       0x32 ..\..\libs\cpu\libplatform.a(pmu.o)
 .riscv.attributes
                0x00000000000001c2       0x32 ..\..\libs\cpu\libplatform.a(rc.o)
 .riscv.attributes
                0x00000000000001f4       0x34 ..\..\libs\cpu\libplatform.a(reset.o)
 .riscv.attributes
                0x0000000000000228       0x32 ..\..\libs\cpu\libplatform.a(spiflash.o)
 .riscv.attributes
                0x000000000000025a       0x32 ..\..\libs\cpu\libplatform.a(debug.o)
 .riscv.attributes
                0x000000000000028c       0x32 ..\..\libs\cpu\libplatform.a(fot_pack.o)
 .riscv.attributes
                0x00000000000002be       0x32 ..\..\libs\cpu\libplatform.a(key.o)
 .riscv.attributes
                0x00000000000002f0       0x32 ..\..\libs\cpu\libplatform.a(lock.o)
 .riscv.attributes
                0x0000000000000322       0x32 ..\..\libs\cpu\libplatform.a(patch.o)
 .riscv.attributes
                0x0000000000000354       0x30 ..\..\libs\cpu\libplatform.a(s_sys.o)
 .riscv.attributes
                0x0000000000000384       0x32 ..\..\libs\cpu\libplatform.a(sleep.o)
 .riscv.attributes
                0x00000000000003b6       0x32 ..\..\libs\cpu\libplatform.a(sys.o)
 .riscv.attributes
                0x00000000000003e8       0x32 ..\..\libs\cpu\libplatform.a(sys_clk.o)
 .riscv.attributes
                0x000000000000041a       0x32 ..\..\libs\cpu\libplatform.a(voltage_trim.o)
 .riscv.attributes
                0x000000000000044c       0x32 ..\..\libs\cpu\libplatform.a(weak_symbol.o)
 .riscv.attributes
                0x000000000000047e       0x32 ..\..\libs\cpu\libplatform.a(bt.o)
 .riscv.attributes
                0x00000000000004b0       0x32 ..\..\libs\cpu\libplatform.a(crc.o)
 .riscv.attributes
                0x00000000000004e2       0x32 ..\..\libs\ble\libbtstack.a(txpkt.o)
 .riscv.attributes
                0x0000000000000514       0x32 ..\..\libs\ble\libbtstack.a(sm.o)
 .riscv.attributes
                0x0000000000000546       0x32 ..\..\libs\ble\libbtstack.a(le_device_db_memory.o)
 .riscv.attributes
                0x0000000000000578       0x32 ..\..\libs\ble\libbtstack.a(gatt_server.o)
 .riscv.attributes
                0x00000000000005aa       0x32 ..\..\libs\ble\libbtstack.a(gatt_client.o)
 .riscv.attributes
                0x00000000000005dc       0x32 ..\..\libs\ble\libbtstack.a(att_server.o)
 .riscv.attributes
                0x000000000000060e       0x32 ..\..\libs\ble\libbtstack.a(att_dispatch.o)
 .riscv.attributes
                0x0000000000000640       0x32 ..\..\libs\ble\libbtstack.a(att_db.o)
 .riscv.attributes
                0x0000000000000672       0x32 ..\..\libs\ble\libbtstack.a(btstack_api.o)
 .riscv.attributes
                0x00000000000006a4       0x32 ..\..\libs\ble\libbtstack.a(bt_api.o)
 .riscv.attributes
                0x00000000000006d6       0x32 ..\..\libs\ble\libbtstack.a(ble_api.o)
 .riscv.attributes
                0x0000000000000708       0x32 ..\..\libs\ble\libbtstack.a(rf.o)
 .riscv.attributes
                0x000000000000073a       0x32 ..\..\libs\ble\libbtstack.a(ble_con.o)
 .riscv.attributes
                0x000000000000076c       0x32 ..\..\libs\ble\libbtstack.a(bb_utils.o)
 .riscv.attributes
                0x000000000000079e       0x32 ..\..\libs\ble\libbtstack.a(bb_int.o)
 .riscv.attributes
                0x00000000000007d0       0x32 ..\..\libs\ble\libbtstack.a(bb.o)
 .riscv.attributes
                0x0000000000000802       0x32 ..\..\libs\ble\libbtstack.a(platform.o)
 .riscv.attributes
                0x0000000000000834       0x32 ..\..\libs\ble\libbtstack.a(extern_ble.o)
 .riscv.attributes
                0x0000000000000866       0x32 ..\..\libs\ble\libbtstack.a(extern.o)
 .riscv.attributes
                0x0000000000000898       0x32 ..\..\libs\ble\libbtstack.a(l2cap.o)
 .riscv.attributes
                0x00000000000008ca       0x32 ..\..\libs\ble\libbtstack.a(hci_dump.o)
 .riscv.attributes
                0x00000000000008fc       0x32 ..\..\libs\ble\libbtstack.a(hci_cmd.o)
 .riscv.attributes
                0x000000000000092e       0x32 ..\..\libs\ble\libbtstack.a(hci.o)
 .riscv.attributes
                0x0000000000000960       0x32 ..\..\libs\ble\libbtstack.a(btstack_util.o)
 .riscv.attributes
                0x0000000000000992       0x32 ..\..\libs\ble\libbtstack.a(btstack_run_loop.o)
 .riscv.attributes
                0x00000000000009c4       0x32 ..\..\libs\ble\libbtstack.a(btstack_memory.o)
 .riscv.attributes
                0x00000000000009f6       0x32 ..\..\libs\ble\libbtstack.a(btstack_linked_list.o)
 .riscv.attributes
                0x0000000000000a28       0x32 ..\..\libs\ble\libbtstack.a(ad_parser.o)
 .riscv.attributes
                0x0000000000000a5a       0x32 ..\..\libs\ble\libbtstack.a(hci_transport_hcic.o)
 .riscv.attributes
                0x0000000000000a8c       0x32 ..\..\libs\ble\libbtstack.a(hci_transport_h3_controller.o)
 .riscv.attributes
                0x0000000000000abe       0x32 ..\..\libs\ble\libbtstack.a(hci_transport_dummy.o)
 .riscv.attributes
                0x0000000000000af0       0x32 ..\..\libs\ble\libbtstack.a(btstack_main.o)
 .riscv.attributes
                0x0000000000000b22       0x32 ..\..\libs\ble\libbtstack.a(btstack_hal.o)
 .riscv.attributes
                0x0000000000000b54       0x32 ..\..\libs\ble\libbtstack.a(nanos.o)
 .riscv.attributes
                0x0000000000000b86       0x32 ..\..\libs\ble\libbtstack.a(bb_sche.o)
 .riscv.attributes
                0x0000000000000bb8       0x32 ..\..\libs\ble\libbtstack.a(patch.o)
 .riscv.attributes
                0x0000000000000bea       0x32 ..\..\libs\ble\libbtstack.a(bb_dbg.o)
 .riscv.attributes
                0x0000000000000c1c       0x32 ..\..\libs\ble\libbtstack.a(bb_clk.o)
 .riscv.attributes
                0x0000000000000c4e       0x32 ..\..\libs\ble\libbtstack.a(aes.o)
 .riscv.attributes
                0x0000000000000c80       0x32 ..\..\libs\ble\libbtstack.a(extern.o)
 .riscv.attributes
                0x0000000000000cb2       0x32 ..\..\libs\ble\libbtstack.a(vs.o)
 .riscv.attributes
                0x0000000000000ce4       0x32 ..\..\libs\ble\libbtstack.a(rf_xbox.o)
 .riscv.attributes
                0x0000000000000d16       0x32 ..\..\libs\ble\libbtstack.a(complex.o)
 .riscv.attributes
                0x0000000000000d48       0x32 ..\..\libs\ble\libbtstack.a(ble_hook.o)
 .riscv.attributes
                0x0000000000000d7a       0x32 ..\..\libs\ble\libbtstack.a(hct_tl.o)
 .riscv.attributes
                0x0000000000000dac       0x32 ..\..\libs\ble\libbtstack.a(hct_msg.o)
 .riscv.attributes
                0x0000000000000dde       0x32 ..\..\libs\ble\libbtstack.a(hct.o)
 .riscv.attributes
                0x0000000000000e10       0x32 ..\..\libs\ble\libbtstack.a(mgr_hci.o)
 .riscv.attributes
                0x0000000000000e42       0x32 ..\..\libs\ble\libbtstack.a(mgr.o)
 .riscv.attributes
                0x0000000000000e74       0x32 ..\..\libs\ble\libbtstack.a(ll_adv.o)
 .riscv.attributes
                0x0000000000000ea6       0x32 ..\..\libs\ble\libbtstack.a(ll_tbox_freq_cal.o)
 .riscv.attributes
                0x0000000000000ed8       0x32 ..\..\libs\ble\libbtstack.a(ll_con_upd.o)
 .riscv.attributes
                0x0000000000000f0a       0x32 ..\..\libs\ble\libbtstack.a(ll_cntl.o)
 .riscv.attributes
                0x0000000000000f3c       0x32 ..\..\libs\ble\libbtstack.a(ll_clk_acc.o)
 .riscv.attributes
                0x0000000000000f6e       0x32 ..\..\libs\ble\libbtstack.a(ll_chmap_upd.o)
 .riscv.attributes
                0x0000000000000fa0       0x32 ..\..\libs\ble\libbtstack.a(ll.o)
 .riscv.attributes
                0x0000000000000fd2       0x32 ..\..\libs\ble\libbtstack.a(ble_hal.o)
 .riscv.attributes
                0x0000000000001004       0x32 ..\..\libs\ble\libbtstack.a(ble_adv.o)
 .riscv.attributes
                0x0000000000001036       0x32 ..\..\libs\ble\libbtstack.a(ble_buf.o)
 .riscv.attributes
                0x0000000000001068       0x32 ..\..\libs\ble\libbtstack.a(ble.o)
 .riscv.attributes
                0x000000000000109a       0x32 ..\..\libs\ble\libbtstack.a(bb_sleep.o)
 .riscv.attributes
                0x00000000000010cc       0x32 ..\..\libs\ble\libbtstack.a(l2cap_signaling.o)
 .riscv.attributes
                0x00000000000010fe       0x30 ..\..\libs\ble\libbtstack.a(patch_asm.o)
 .riscv.attributes
                0x000000000000112e       0x32 ..\..\libs\ble\libbtstack.a(platform.o)
 .riscv.attributes
                0x0000000000001160       0x32 ..\..\libs\ble\libbtstack.a(vs_proc.o)
 .riscv.attributes
                0x0000000000001192       0x32 ..\..\libs\ble\libbtstack.a(vs_fcc.o)
 .riscv.attributes
                0x00000000000011c4       0x32 ..\..\libs\ble\libbtstack.a(adv_hook.o)
 .riscv.attributes
                0x00000000000011f6       0x32 ..\..\libs\ble\libbtstack.a(mgr_test.o)
 .riscv.attributes
                0x0000000000001228       0x32 ..\..\libs\ble\libbtstack.a(mgr_proc.o)
 .riscv.attributes
                0x000000000000125a       0x32 ..\..\libs\ble\libbtstack.a(ll_version.o)
 .riscv.attributes
                0x000000000000128c       0x32 ..\..\libs\ble\libbtstack.a(ll_tbox_prod_test.o)
 .riscv.attributes
                0x00000000000012be       0x32 ..\..\libs\ble\libbtstack.a(ll_tbox_feature.o)
 .riscv.attributes
                0x00000000000012f0       0x32 ..\..\libs\ble\libbtstack.a(ll_proc.o)
 .riscv.attributes
                0x0000000000001322       0x32 ..\..\libs\ble\libbtstack.a(ll_ping.o)
 .riscv.attributes
                0x0000000000001354       0x32 ..\..\libs\ble\libbtstack.a(ll_phy_upd.o)
 .riscv.attributes
                0x0000000000001386       0x32 ..\..\libs\ble\libbtstack.a(ll_length.o)
 .riscv.attributes
                0x00000000000013b8       0x32 ..\..\libs\ble\libbtstack.a(ll_feature.o)
 .riscv.attributes
                0x00000000000013ea       0x32 ..\..\libs\ble\libbtstack.a(ll_encrypt.o)
 .riscv.attributes
                0x000000000000141c       0x32 ..\..\libs\ble\libbtstack.a(ll_disconnect.o)
 .riscv.attributes
                0x000000000000144e       0x32 ..\..\libs\ble\libbtstack.a(ble_test.o)
 .riscv.attributes
                0x0000000000001480       0x32 ..\..\libs\ble\libbtstack.a(ble_sync.o)
 .riscv.attributes
                0x00000000000014b2       0x32 ..\..\libs\ble\libbtstack.a(ble_scan.o)
 .riscv.attributes
                0x00000000000014e4       0x32 ..\..\libs\ble\libbtstack.a(ble_init.o)
