Archive member included to satisfy reference by file (symbol)

..\..\..\libs\cpu\libplatform.a(cm.o)
                              Output\obj\project\solution\ble_hid_composite\bsp\bsp_param.o (cm_sync)
..\..\..\libs\cpu\libplatform.a(os_flash.o)
                              ..\..\..\libs\cpu\libplatform.a(cm.o) (os_spiflash_read)
..\..\..\libs\cpu\libplatform.a(xcfg.o)
                              Output\obj\project\solution\ble_hid_composite\bsp\bsp_sys.o (xcfg_init)
..\..\..\libs\cpu\libplatform.a(main.o)
                              Output\obj\project\solution\ble_hid_composite\app\func_lowpwr.o (delay_5ms)
..\..\..\libs\cpu\libplatform.a(interrupt.o)
                              Output\obj\driver\driver_gpio.o (sys_irq_init)
..\..\..\libs\cpu\libplatform.a(startup.o)
                              Output\obj\project\solution\ble_hid_composite\strong_symbol.o (thread_btstack_create)
..\..\..\libs\cpu\libplatform.a(sys_hook.o)
                              ..\..\..\libs\cpu\libplatform.a(startup.o) (sys_hook_init)
..\..\..\libs\cpu\libplatform.a(thread_aupcm.o)
                              ..\..\..\libs\cpu\libplatform.a(startup.o) (thread_aupcm_entry)
..\..\..\libs\cpu\libplatform.a(thread_driver.o)
                              ..\..\..\libs\cpu\libplatform.a(startup.o) (thread_driver_entry)
..\..\..\libs\cpu\libplatform.a(pll.o)
                              ..\..\..\libs\cpu\libplatform.a(main.o) (pll0_disable)
..\..\..\libs\cpu\libplatform.a(pmu.o)
                              Output\obj\driver\driver_lowpwr.o (pmu_get_vddcore)
..\..\..\libs\cpu\libplatform.a(rc.o)
                              ..\..\..\libs\cpu\libplatform.a(main.o) (rc_compile)
..\..\..\libs\cpu\libplatform.a(reset.o)
                              (_start)
..\..\..\libs\cpu\libplatform.a(spiflash.o)
                              ..\..\..\libs\cpu\libplatform.a(os_flash.o) (spi_delay)
..\..\..\libs\cpu\libplatform.a(debug.o)
                              ..\..\..\libs\cpu\libplatform.a(main.o) (debug_set)
..\..\..\libs\cpu\libplatform.a(fot_pack.o)
                              Output\obj\project\solution\ble_hid_composite\ble\ble_fota_service.o (ota_pack_init)
..\..\..\libs\cpu\libplatform.a(key.o)
                              Output\obj\project\solution\ble_hid_composite\bsp\bsp_key.o (multiple_key_init)
..\..\..\libs\cpu\libplatform.a(lock.o)
                              ..\..\..\libs\cpu\libplatform.a(main.o) (lock_init)
..\..\..\libs\cpu\libplatform.a(patch.o)
                              ..\..\..\libs\cpu\libplatform.a(main.o) (patch_init)
..\..\..\libs\cpu\libplatform.a(s_sys.o)
                              ..\..\..\libs\cpu\libplatform.a(startup.o) (dummy_func)
..\..\..\libs\cpu\libplatform.a(sleep.o)
                              Output\obj\driver\driver_lowpwr.o (lowpwr_sleep_sfr_save)
..\..\..\libs\cpu\libplatform.a(sys.o)
                              Output\obj\project\solution\ble_hid_composite\main.o (sys_rst_init)
..\..\..\libs\cpu\libplatform.a(sys_clk.o)
                              Output\obj\driver\driver_uart.o (sys_clk_nhz_get)
..\..\..\libs\cpu\libplatform.a(voltage_trim.o)
                              Output\obj\driver\driver_charge.o (charge_const_curr_trim)
..\..\..\libs\cpu\libplatform.a(weak_symbol.o)
                              ..\..\..\libs\cpu\libplatform.a(main.o) (xosc_24m_div_get)
..\..\..\libs\cpu\libplatform.a(sdadc.o)
                              ..\..\..\libs\cpu\libplatform.a(thread_aupcm.o) (sdadc_dma_done_do)
..\..\..\libs\cpu\libplatform.a(sddac.o)
                              ..\..\..\libs\cpu\libplatform.a(thread_aupcm.o) (sddac_dma_done_do)
..\..\..\libs\cpu\libplatform.a(bt.o)
                              ..\..\..\libs\cpu\libplatform.a(startup.o) (thread_btstack_entry)
..\..\..\libs\cpu\libplatform.a(crc.o)
                              ..\..\..\libs\cpu\libplatform.a(fot_pack.o) (calc_crc32)
..\..\..\libs\ble\libbtstack.a(txpkt.o)
                              Output\obj\project\solution\ble_hid_composite\ble\ble_init.o (txpkt_init)
..\..\..\libs\ble\libbtstack.a(sm.o)
                              Output\obj\project\solution\ble_hid_composite\ble\ble_init.o (ble_sm_init)
..\..\..\libs\ble\libbtstack.a(le_device_db_memory.o)
                              ..\..\..\libs\ble\libbtstack.a(sm.o) (ble_bonding_info_max_count)
..\..\..\libs\ble\libbtstack.a(gatt_server.o)
                              Output\obj\project\solution\ble_hid_composite\ble\ble_battery_service.o (ble_notify_for_handle)
..\..\..\libs\ble\libbtstack.a(gatt_client.o)
                              Output\obj\project\solution\ble_hid_composite\ble\ble_client.o (att_client_register_handler)
..\..\..\libs\ble\libbtstack.a(att_server.o)
                              Output\obj\project\solution\ble_hid_composite\ble\ble_battery_service.o (att_server_register_service_handler)
..\..\..\libs\ble\libbtstack.a(att_dispatch.o)
                              ..\..\..\libs\ble\libbtstack.a(gatt_client.o) (att_dispatch_register_client)
..\..\..\libs\ble\libbtstack.a(att_db.o)
                              ..\..\..\libs\ble\libbtstack.a(att_server.o) (att_set_db)
..\..\..\libs\ble\libbtstack.a(btstack_api.o)
                              Output\obj\project\solution\ble_hid_composite\ble\ble_init.o (bt_init)
..\..\..\libs\ble\libbtstack.a(bt_api.o)
                              Output\obj\project\solution\ble_hid_composite\app\func_bt.o (bt_off)
..\..\..\libs\ble\libbtstack.a(ble_api.o)
                              Output\obj\project\solution\ble_hid_composite\ble\ble_proc.o (ble_set_adv_interval)
..\..\..\libs\ble\libbtstack.a(rf.o)
                              ..\..\..\libs\ble\libbtstack.a(btstack_api.o) (rf_single_tone_enter)
..\..\..\libs\ble\libbtstack.a(ble_con.o)
                              ..\..\..\libs\ble\libbtstack.a(btstack_api.o) (ble_get_con_rssi)
..\..\..\libs\ble\libbtstack.a(bb_utils.o)
                              ..\..\..\libs\ble\libbtstack.a(ble_con.o) (bb_sca2ppm)
..\..\..\libs\ble\libbtstack.a(bb_int.o)
                              ..\..\..\libs\ble\libbtstack.a(bt_api.o) (bb_timer_init)
..\..\..\libs\ble\libbtstack.a(bb.o)
                              ..\..\..\libs\ble\libbtstack.a(btstack_api.o) (bb_var_init)
..\..\..\libs\ble\libbtstack.a(platform.o)
                              ..\..\..\libs\ble\libbtstack.a(bb.o) (dummy_void)
..\..\..\libs\ble\libbtstack.a(extern_ble.o)
                              ..\..\..\libs\ble\libbtstack.a(att_server.o) (att_user_read_callback)
..\..\..\libs\ble\libbtstack.a(extern.o)
                              ..\..\..\libs\ble\libbtstack.a(bb_int.o) (sys_sleep_check)
..\..\..\libs\ble\libbtstack.a(l2cap.o)
                              ..\..\..\libs\ble\libbtstack.a(btstack_api.o) (gap_request_connection_parameter_update)
..\..\..\libs\ble\libbtstack.a(hci_dump.o)
                              ..\..\..\libs\ble\libbtstack.a(btstack_api.o) (hci_dump_open)
..\..\..\libs\ble\libbtstack.a(hci_cmd.o)
                              ..\..\..\libs\ble\libbtstack.a(sm.o) (hci_le_long_term_key_negative_reply)
..\..\..\libs\ble\libbtstack.a(hci.o)
                              ..\..\..\libs\ble\libbtstack.a(sm.o) (hci_get_state)
..\..\..\libs\ble\libbtstack.a(btstack_util.o)
                              ..\..\..\libs\ble\libbtstack.a(hci.o) (bd_addr_copy)
..\..\..\libs\ble\libbtstack.a(btstack_run_loop.o)
                              ..\..\..\libs\ble\libbtstack.a(sm.o) (btstack_run_loop_set_timer_handler)
..\..\..\libs\ble\libbtstack.a(btstack_memory.o)
                              ..\..\..\libs\ble\libbtstack.a(gatt_client.o) (btstack_memory_gatt_client_get)
..\..\..\libs\ble\libbtstack.a(btstack_linked_list.o)
                              ..\..\..\libs\ble\libbtstack.a(gatt_client.o) (btstack_linked_list_add)
..\..\..\libs\ble\libbtstack.a(ad_parser.o)
                              ..\..\..\libs\ble\libbtstack.a(btstack_api.o) (ad_param)
..\..\..\libs\ble\libbtstack.a(hci_transport_hcic.o)
                              ..\..\..\libs\ble\libbtstack.a(hci.o) (hcic_rx_flush)
..\..\..\libs\ble\libbtstack.a(hci_transport_h3_controller.o)
                              ..\..\..\libs\ble\libbtstack.a(btstack_run_loop.o) (hci_is_sleep)
..\..\..\libs\ble\libbtstack.a(hci_transport_dummy.o)
                              ..\..\..\libs\ble\libbtstack.a(btstack_api.o) (hci_iodm_init)
..\..\..\libs\ble\libbtstack.a(btstack_main.o)
                              ..\..\..\libs\ble\libbtstack.a(ble_api.o) (btstack_ble_set_init_callback)
..\..\..\libs\ble\libbtstack.a(btstack_hal.o)
                              ..\..\..\libs\ble\libbtstack.a(btstack_run_loop.o) (hal_tick_init)
..\..\..\libs\ble\libbtstack.a(nanos.o)
                              ..\..\..\libs\ble\libbtstack.a(bb_int.o) (nanos_event_set)
..\..\..\libs\ble\libbtstack.a(bb_sche.o)
                              ..\..\..\libs\ble\libbtstack.a(bb.o) (bb_sche_init)
..\..\..\libs\ble\libbtstack.a(patch.o)
                              ..\..\..\libs\ble\libbtstack.a(bb.o) (bb_patch_dummy)
..\..\..\libs\ble\libbtstack.a(bb_dbg.o)
                              ..\..\..\libs\ble\libbtstack.a(bb.o) (bb_dbg_init)
..\..\..\libs\ble\libbtstack.a(bb_clk.o)
                              ..\..\..\libs\ble\libbtstack.a(bb.o) (bb_clk_init)
..\..\..\libs\ble\libbtstack.a(aes.o)
                              ..\..\..\libs\ble\libbtstack.a(bb.o) (aes_init)
..\..\..\libs\ble\libbtstack.a(extern.o)
                              ..\..\..\libs\ble\libbtstack.a(bb_int.o) (ble_sleep_duration_max_get)
..\..\..\libs\ble\libbtstack.a(vs.o)
                              ..\..\..\libs\ble\libbtstack.a(bb.o) (vs_init)
..\..\..\libs\ble\libbtstack.a(rf_xbox.o)
                              ..\..\..\libs\ble\libbtstack.a(rf.o) (rfphy_deep_sleep)
..\..\..\libs\ble\libbtstack.a(complex.o)
                              ..\..\..\libs\ble\libbtstack.a(rf_xbox.o) (complexSubtract)
..\..\..\libs\ble\libbtstack.a(ble_hook.o)
                              ..\..\..\libs\ble\libbtstack.a(bb.o) (ble_isr_hook)
..\..\..\libs\ble\libbtstack.a(hct_tl.o)
                              ..\..\..\libs\ble\libbtstack.a(hci_transport_hcic.o) (hci_tx_done)
..\..\..\libs\ble\libbtstack.a(hct_msg.o)
                              ..\..\..\libs\ble\libbtstack.a(hct_tl.o) (hci_look_for_cmd_desc)
..\..\..\libs\ble\libbtstack.a(hct.o)
                              ..\..\..\libs\ble\libbtstack.a(bb.o) (hct_init)
..\..\..\libs\ble\libbtstack.a(mgr_hci.o)
                              ..\..\..\libs\ble\libbtstack.a(hci.o) (hci_le_rd_buff_size)
..\..\..\libs\ble\libbtstack.a(mgr.o)
                              ..\..\..\libs\ble\libbtstack.a(mgr_hci.o) (mgr_cmd_cmp_send)
..\..\..\libs\ble\libbtstack.a(ll_adv.o)
                              ..\..\..\libs\ble\libbtstack.a(mgr_hci.o) (hci_le_set_adv_param_cmd_func)
..\..\..\libs\ble\libbtstack.a(ll_tbox_freq_cal.o)
                              ..\..\..\libs\ble\libbtstack.a(patch.o) (ll_tbox_freq_cal_patch)
..\..\..\libs\ble\libbtstack.a(ll_con_upd.o)
                              ..\..\..\libs\ble\libbtstack.a(ll_adv.o) (ll_con_move_cb)
..\..\..\libs\ble\libbtstack.a(ll_cntl.o)
                              ..\..\..\libs\ble\libbtstack.a(ll_tbox_freq_cal.o) (ll_cntl_send)
..\..\..\libs\ble\libbtstack.a(ll_clk_acc.o)
                              ..\..\..\libs\ble\libbtstack.a(ll_cntl.o) (ll_clk_acc_req_func)
..\..\..\libs\ble\libbtstack.a(ll_chmap_upd.o)
                              ..\..\..\libs\ble\libbtstack.a(ll_cntl.o) (ll_channel_map_ind_func)
..\..\..\libs\ble\libbtstack.a(ll.o)
                              ..\..\..\libs\ble\libbtstack.a(ll_adv.o) (ll_start)
..\..\..\libs\ble\libbtstack.a(ble_hal.o)
                              ..\..\..\libs\ble\libbtstack.a(ble_con.o) (ble_channel_assess)
..\..\..\libs\ble\libbtstack.a(ble_adv.o)
                              ..\..\..\libs\ble\libbtstack.a(ll_adv.o) (ble_adv_start)
..\..\..\libs\ble\libbtstack.a(ble_buf.o)
                              ..\..\..\libs\ble\libbtstack.a(hct_tl.o) (ble_buf_rx_free)
..\..\..\libs\ble\libbtstack.a(ble.o)
                              ..\..\..\libs\ble\libbtstack.a(bb.o) (ble_var_init)
..\..\..\libs\ble\libbtstack.a(bb_sleep.o)
                              ..\..\..\libs\ble\libbtstack.a(bb_int.o) (bb_sleep_suspend)
..\..\..\libs\ble\libbtstack.a(periph.o)
                              ..\..\..\libs\ble\libbtstack.a(btstack_hal.o) (bt_uart_init)
..\..\..\libs\ble\libbtstack.a(l2cap_signaling.o)
                              ..\..\..\libs\ble\libbtstack.a(l2cap.o) (l2cap_create_signaling_le)
..\..\..\libs\ble\libbtstack.a(btstack_memory_pool.o)
                              ..\..\..\libs\ble\libbtstack.a(btstack_memory.o) (btstack_memory_pool_get)
..\..\..\libs\ble\libbtstack.a(patch_asm.o)
                              ..\..\..\libs\ble\libbtstack.a(patch.o) (bb_v1_patch0)
..\..\..\libs\ble\libbtstack.a(platform.o)
                              ..\..\..\libs\ble\libbtstack.a(ll_cntl.o) (bb_ll_tx_cb)
..\..\..\libs\ble\libbtstack.a(vs_proc.o)
                              ..\..\..\libs\ble\libbtstack.a(vs.o) (vs_env)
..\..\..\libs\ble\libbtstack.a(vs_fcc.o)
                              ..\..\..\libs\ble\libbtstack.a(vs_proc.o) (vs_fcc_test_cmd)
..\..\..\libs\ble\libbtstack.a(adv_hook.o)
                              ..\..\..\libs\ble\libbtstack.a(ll_adv.o) (ble_adv_end_ind_hook)
..\..\..\libs\ble\libbtstack.a(mgr_test.o)
                              ..\..\..\libs\ble\libbtstack.a(mgr_hci.o) (hci_le_rx_test_v1_cmd_func)
..\..\..\libs\ble\libbtstack.a(mgr_proc.o)
                              ..\..\..\libs\ble\libbtstack.a(mgr.o) (mgr_msg_env)
..\..\..\libs\ble\libbtstack.a(ll_version.o)
                              ..\..\..\libs\ble\libbtstack.a(ll_cntl.o) (ll_version_ind_func)
..\..\..\libs\ble\libbtstack.a(ll_tbox_prod_test.o)
                              ..\..\..\libs\ble\libbtstack.a(ll_cntl.o) (ll_tbox_prod_test_req_func)
..\..\..\libs\ble\libbtstack.a(ll_tbox_feature.o)
                              ..\..\..\libs\ble\libbtstack.a(ll_cntl.o) (ll_tbox_feat_req_func)
..\..\..\libs\ble\libbtstack.a(ll_proc.o)
                              ..\..\..\libs\ble\libbtstack.a(ll_con_upd.o) (ll_cmd_stat_send)
..\..\..\libs\ble\libbtstack.a(ll_ping.o)
                              ..\..\..\libs\ble\libbtstack.a(ll_cntl.o) (ll_ping_req_func)
..\..\..\libs\ble\libbtstack.a(ll_phy_upd.o)
                              ..\..\..\libs\ble\libbtstack.a(ll_cntl.o) (ll_phy_req_func)
..\..\..\libs\ble\libbtstack.a(ll_length.o)
                              ..\..\..\libs\ble\libbtstack.a(ll_cntl.o) (ll_length_req_func)
..\..\..\libs\ble\libbtstack.a(ll_feature.o)
                              ..\..\..\libs\ble\libbtstack.a(ll_cntl.o) (ll_feature_req_func)
..\..\..\libs\ble\libbtstack.a(ll_encrypt.o)
                              ..\..\..\libs\ble\libbtstack.a(ll_cntl.o) (ll_pause_enc_req_func)
..\..\..\libs\ble\libbtstack.a(ll_disconnect.o)
                              ..\..\..\libs\ble\libbtstack.a(ll_proc.o) (ble_disc_ind_func)
..\..\..\libs\ble\libbtstack.a(ble_test.o)
                              ..\..\..\libs\ble\libbtstack.a(vs_fcc.o) (ble_test_start)
..\..\..\libs\ble\libbtstack.a(ble_sync.o)
                              ..\..\..\libs\ble\libbtstack.a(ble.o) (ble_get_sync_var)
..\..\..\libs\ble\libbtstack.a(ble_scan.o)
                              ..\..\..\libs\ble\libbtstack.a(ble.o) (ble_get_scan_var)
..\..\..\libs\ble\libbtstack.a(ble_init.o)
                              ..\..\..\libs\ble\libbtstack.a(ble.o) (ble_get_init_var)

Allocating common symbols
Common symbol       size              file

tmr5ms_cnt          0x2               Output\obj\project\solution\ble_hid_composite\bsp\bsp_sys.o
fot_var             0x21              Output\obj\project\solution\ble_hid_composite\ble\ble_fota_service.o
ble_user_cb         0x62              Output\obj\project\solution\ble_hid_composite\ble\ble_user_service.o
cfg_bt_rf_def_txpwr
                    0x1               Output\obj\project\solution\ble_hid_composite\strong_symbol.o
sfr_user_backup     0x20              Output\obj\project\solution\ble_hid_composite\app\func_lowpwr.o
xcfg_cb             0x34              Output\obj\project\solution\ble_hid_composite\bsp\bsp_sys.o

Discarded input sections

 .text          0x0000000000000000        0x0 Output\obj\driver\driver_charge.o
 .data          0x0000000000000000        0x0 Output\obj\driver\driver_charge.o
 .bss           0x0000000000000000        0x0 Output\obj\driver\driver_charge.o
 .text.charge_deinit
                0x0000000000000000       0x24 Output\obj\driver\driver_charge.o
 .text.charge_change_mode
                0x0000000000000000       0x10 Output\obj\driver\driver_charge.o
 .text.charge_get_mode
                0x0000000000000000        0xa Output\obj\driver\driver_charge.o
 .text.charge_cutoff_cur_condition
                0x0000000000000000        0xa Output\obj\driver\driver_charge.o
 .text.charge_cutoff_vol_condition
                0x0000000000000000        0xa Output\obj\driver\driver_charge.o
 .text.charge_trickle_vol_condition
                0x0000000000000000        0xa Output\obj\driver\driver_charge.o
 .text.charge_cutoff_vol_to_stop_time_set
                0x0000000000000000        0xa Output\obj\driver\driver_charge.o
 .text.charge_pwrup_charge_cur_sel
                0x0000000000000000       0x12 Output\obj\driver\driver_charge.o
 .text.charge_cutoff_vol_triming
                0x0000000000000000       0x2e Output\obj\driver\driver_charge.o
 .text          0x0000000000000000        0x0 Output\obj\driver\driver_clk.o
 .data          0x0000000000000000        0x0 Output\obj\driver\driver_clk.o
 .bss           0x0000000000000000        0x0 Output\obj\driver\driver_clk.o
 .text.clk_gate1_cmd
                0x0000000000000000       0x16 Output\obj\driver\driver_clk.o
 .text.clk_gate2_cmd
                0x0000000000000000       0x16 Output\obj\driver\driver_clk.o
 .text.clk_clkout_set
                0x0000000000000000       0x4e Output\obj\driver\driver_clk.o
 .text.clk_clk32k_rtc_set
                0x0000000000000000       0x28 Output\obj\driver\driver_clk.o
 .text.clk_clk32k_rtc_get
                0x0000000000000000       0x46 Output\obj\driver\driver_clk.o
 .text.clk_hsut0_clk_set
                0x0000000000000000       0x4a Output\obj\driver\driver_clk.o
 .text.clk_saradc_clk_set
                0x0000000000000000       0x18 Output\obj\driver\driver_clk.o
 .text.clk_udet_clk_set
                0x0000000000000000       0x18 Output\obj\driver\driver_clk.o
 .text.clk_hsut0_clk_get
                0x0000000000000000       0x6c Output\obj\driver\driver_clk.o
 .text.clk_tmr_inc_set
                0x0000000000000000       0x18 Output\obj\driver\driver_clk.o
 .text.clk_tmr_inc_get
                0x0000000000000000       0x60 Output\obj\driver\driver_clk.o
 .text.clk_uart_inc_set
                0x0000000000000000       0x16 Output\obj\driver\driver_clk.o
 .text.clk_clk2m_ks_set
                0x0000000000000000       0x18 Output\obj\driver\driver_clk.o
 .text.clk_clk2m_ks_get
                0x0000000000000000       0x3a Output\obj\driver\driver_clk.o
 .text.clk_sdadda_clk_set
                0x0000000000000000       0x40 Output\obj\driver\driver_clk.o
 .text.clk_sdadda_clk_get
                0x0000000000000000       0x54 Output\obj\driver\driver_clk.o
 .text.clk_ledc_clk_set
                0x0000000000000000       0x18 Output\obj\driver\driver_clk.o
 .text.clk_ledc_clk_get
                0x0000000000000000       0x24 Output\obj\driver\driver_clk.o
 .text.clk_touch_key_clk_set
                0x0000000000000000       0x54 Output\obj\driver\driver_clk.o
 .text.clk_touch_key_clk_get
                0x0000000000000000       0x34 Output\obj\driver\driver_clk.o
 .text.clk_ttmr_inc_set
                0x0000000000000000       0x16 Output\obj\driver\driver_clk.o
 .text.clk_ttmr_inc_get
                0x0000000000000000       0x60 Output\obj\driver\driver_clk.o
 .text.clk_qdec_set
                0x0000000000000000       0x16 Output\obj\driver\driver_clk.o
 .text          0x0000000000000000        0x0 Output\obj\driver\driver_gpio.o
 .data          0x0000000000000000        0x0 Output\obj\driver\driver_gpio.o
 .bss           0x0000000000000000        0x0 Output\obj\driver\driver_gpio.o
 .text.gpio_deinit
                0x0000000000000000       0x1c Output\obj\driver\driver_gpio.o
 .com_periph.gpio.set
                0x0000000000000000        0x4 Output\obj\driver\driver_gpio.o
 .com_periph.gpio.reset
                0x0000000000000000        0x4 Output\obj\driver\driver_gpio.o
 .com_periph.gpio.write
                0x0000000000000000        0x4 Output\obj\driver\driver_gpio.o
 .com_periph.gpio.toggle
                0x0000000000000000        0x8 Output\obj\driver\driver_gpio.o
 .com_periph.gpio.read_data
                0x0000000000000000        0x8 Output\obj\driver\driver_gpio.o
 .text.gpio_func_mapping_clear
                0x0000000000000000       0x84 Output\obj\driver\driver_gpio.o
 .com_periph.wk0.read_bit
                0x0000000000000000        0xa Output\obj\driver\driver_gpio.o
 .com_periph.gpio.pending_clr
                0x0000000000000000        0xc Output\obj\driver\driver_gpio.o
 .com_periph.gpio.pending_is
                0x0000000000000000       0x12 Output\obj\driver\driver_gpio.o
 .text.gpio_edge_pic_disable
                0x0000000000000000       0x1c Output\obj\driver\driver_gpio.o
 .text.gpio_reset_init
                0x0000000000000000       0x84 Output\obj\driver\driver_gpio.o
 .text.gpio_reset_10s_sel
                0x0000000000000000       0x3a Output\obj\driver\driver_gpio.o
 .text          0x0000000000000000        0x0 Output\obj\driver\driver_hsuart.o
 .data          0x0000000000000000        0x0 Output\obj\driver\driver_hsuart.o
 .bss           0x0000000000000000        0x0 Output\obj\driver\driver_hsuart.o
 .text.hsuart_init
                0x0000000000000000       0x92 Output\obj\driver\driver_hsuart.o
 .text.hsuart_deinit
                0x0000000000000000       0x14 Output\obj\driver\driver_hsuart.o
 .text.hsuart_cmd
                0x0000000000000000       0x16 Output\obj\driver\driver_hsuart.o
 .com_periph.hsuart.send
                0x0000000000000000       0x1a Output\obj\driver\driver_hsuart.o
 .com_periph.hsuart.recv
                0x0000000000000000        0xa Output\obj\driver\driver_hsuart.o
 .com_periph.hsuart.receive_data
                0x0000000000000000       0x44 Output\obj\driver\driver_hsuart.o
 .com_periph.hsuart.fifo_get
                0x0000000000000000        0xa Output\obj\driver\driver_hsuart.o
 .text.hsuart_clear_fifo_counter
                0x0000000000000000        0xe Output\obj\driver\driver_hsuart.o
 .text.hsuart_baud_config
                0x0000000000000000       0x2c Output\obj\driver\driver_hsuart.o
 .text.hsuart_pic_config
                0x0000000000000000       0x6c Output\obj\driver\driver_hsuart.o
 .com_periph.hsuart.get_flag
                0x0000000000000000       0x32 Output\obj\driver\driver_hsuart.o
 .com_periph.hsuart.clear
                0x0000000000000000       0x32 Output\obj\driver\driver_hsuart.o
 .text.hsuart_rx_idle_config
                0x0000000000000000       0x1e Output\obj\driver\driver_hsuart.o
 .com_periph.hsuart.dma
                0x0000000000000000       0x20 Output\obj\driver\driver_hsuart.o
 .com_periph.hsuart.stop
                0x0000000000000000       0x18 Output\obj\driver\driver_hsuart.o
 .comment       0x0000000000000000       0x12 Output\obj\driver\driver_hsuart.o
 .text          0x0000000000000000        0x0 Output\obj\driver\driver_lowpwr.o
 .data          0x0000000000000000        0x0 Output\obj\driver\driver_lowpwr.o
 .bss           0x0000000000000000        0x0 Output\obj\driver\driver_lowpwr.o
 .com_sleep.lv2_get_wksrc
                0x0000000000000000        0xa Output\obj\driver\driver_lowpwr.o
 .com_sleep.lv2_clr_wksrc
                0x0000000000000000        0xa Output\obj\driver\driver_lowpwr.o
 .text.lowpwr_wakeup_config
                0x0000000000000000       0x1a Output\obj\driver\driver_lowpwr.o
 .text.lowpwr_pwroff_mode1_do
                0x0000000000000000      0x400 Output\obj\driver\driver_lowpwr.o
 .com_sleep.lv2
                0x0000000000000000        0x4 Output\obj\driver\driver_lowpwr.o
 .text          0x0000000000000000        0x0 Output\obj\driver\driver_saradc.o
 .data          0x0000000000000000        0x0 Output\obj\driver\driver_saradc.o
 .bss           0x0000000000000000        0x0 Output\obj\driver\driver_saradc.o
 .text.saradc_set_baud
                0x0000000000000000       0x2e Output\obj\driver\driver_saradc.o
 .text.saradc_pic_config
                0x0000000000000000       0x34 Output\obj\driver\driver_saradc.o
 .com_periph.saradc.get
                0x0000000000000000       0x10 Output\obj\driver\driver_saradc.o
 .com_periph.saradc.clear
                0x0000000000000000       0x10 Output\obj\driver\driver_saradc.o
 .text          0x0000000000000000        0x0 Output\obj\driver\driver_uart.o
 .data          0x0000000000000000        0x0 Output\obj\driver\driver_uart.o
 .bss           0x0000000000000000        0x0 Output\obj\driver\driver_uart.o
 .text.uart_deinit
                0x0000000000000000       0x2e Output\obj\driver\driver_uart.o
 .com_periph.uart.send
                0x0000000000000000        0x8 Output\obj\driver\driver_uart.o
 .com_periph.uart.recv
                0x0000000000000000       0x14 Output\obj\driver\driver_uart.o
 .text.uart_pic_config
                0x0000000000000000       0x5c Output\obj\driver\driver_uart.o
 .com_periph.uart.get_flag
                0x0000000000000000       0x18 Output\obj\driver\driver_uart.o
 .com_periph.uart.clear_flag
                0x0000000000000000       0x34 Output\obj\driver\driver_uart.o
 .text          0x0000000000000000        0x0 Output\obj\project\solution\ble_hid_composite\app\app_hid_event.o
 .data          0x0000000000000000        0x0 Output\obj\project\solution\ble_hid_composite\app\app_hid_event.o
 .bss           0x0000000000000000        0x0 Output\obj\project\solution\ble_hid_composite\app\app_hid_event.o
 .text.ble_hid_send_mouse_cmd
                0x0000000000000000       0x32 Output\obj\project\solution\ble_hid_composite\app\app_hid_event.o
 .text.ble_hid_send_keyboard_cmd
                0x0000000000000000       0x2a Output\obj\project\solution\ble_hid_composite\app\app_hid_event.o
 .text          0x0000000000000000        0x0 Output\obj\project\solution\ble_hid_composite\app\app_hid_selfie.o
 .data          0x0000000000000000        0x0 Output\obj\project\solution\ble_hid_composite\app\app_hid_selfie.o
 .bss           0x0000000000000000        0x0 Output\obj\project\solution\ble_hid_composite\app\app_hid_selfie.o
 .text          0x0000000000000000        0x0 Output\obj\project\solution\ble_hid_composite\app\app_hid_test.o
 .data          0x0000000000000000        0x0 Output\obj\project\solution\ble_hid_composite\app\app_hid_test.o
 .bss           0x0000000000000000        0x0 Output\obj\project\solution\ble_hid_composite\app\app_hid_test.o
 .comment       0x0000000000000000       0x12 Output\obj\project\solution\ble_hid_composite\app\app_hid_test.o
 .text          0x0000000000000000        0x0 Output\obj\project\solution\ble_hid_composite\app\app_hid_tiktok.o
 .data          0x0000000000000000        0x0 Output\obj\project\solution\ble_hid_composite\app\app_hid_tiktok.o
 .bss           0x0000000000000000        0x0 Output\obj\project\solution\ble_hid_composite\app\app_hid_tiktok.o
 .text          0x0000000000000000        0x0 Output\obj\project\solution\ble_hid_composite\app\func.o
 .data          0x0000000000000000        0x0 Output\obj\project\solution\ble_hid_composite\app\func.o
 .bss           0x0000000000000000        0x0 Output\obj\project\solution\ble_hid_composite\app\func.o
 .text          0x0000000000000000        0x0 Output\obj\project\solution\ble_hid_composite\app\func_bt.o
 .data          0x0000000000000000        0x0 Output\obj\project\solution\ble_hid_composite\app\func_bt.o
 .bss           0x0000000000000000        0x0 Output\obj\project\solution\ble_hid_composite\app\func_bt.o
 .text          0x0000000000000000        0x0 Output\obj\project\solution\ble_hid_composite\app\func_idle.o
 .data          0x0000000000000000        0x0 Output\obj\project\solution\ble_hid_composite\app\func_idle.o
 .bss           0x0000000000000000        0x0 Output\obj\project\solution\ble_hid_composite\app\func_idle.o
 .text          0x0000000000000000        0x0 Output\obj\project\solution\ble_hid_composite\app\func_iodm.o
 .data          0x0000000000000000        0x0 Output\obj\project\solution\ble_hid_composite\app\func_iodm.o
 .bss           0x0000000000000000        0x0 Output\obj\project\solution\ble_hid_composite\app\func_iodm.o
 .comment       0x0000000000000000       0x12 Output\obj\project\solution\ble_hid_composite\app\func_iodm.o
 .text          0x0000000000000000        0x0 Output\obj\project\solution\ble_hid_composite\app\func_le_bqb_rf.o
 .data          0x0000000000000000        0x0 Output\obj\project\solution\ble_hid_composite\app\func_le_bqb_rf.o
 .bss           0x0000000000000000        0x0 Output\obj\project\solution\ble_hid_composite\app\func_le_bqb_rf.o
 .comment       0x0000000000000000       0x12 Output\obj\project\solution\ble_hid_composite\app\func_le_bqb_rf.o
 .text          0x0000000000000000        0x0 Output\obj\project\solution\ble_hid_composite\app\func_le_fcc.o
 .data          0x0000000000000000        0x0 Output\obj\project\solution\ble_hid_composite\app\func_le_fcc.o
 .bss           0x0000000000000000        0x0 Output\obj\project\solution\ble_hid_composite\app\func_le_fcc.o
 .comment       0x0000000000000000       0x12 Output\obj\project\solution\ble_hid_composite\app\func_le_fcc.o
 .text          0x0000000000000000        0x0 Output\obj\project\solution\ble_hid_composite\app\func_lowpwr.o
 .data          0x0000000000000000        0x0 Output\obj\project\solution\ble_hid_composite\app\func_lowpwr.o
 .bss           0x0000000000000000        0x0 Output\obj\project\solution\ble_hid_composite\app\func_lowpwr.o
 .text.lowpwr.deep_sleep_wk
                0x0000000000000000       0x52 Output\obj\project\solution\ble_hid_composite\app\func_lowpwr.o
 .text.lowpwr.deep_sleep
                0x0000000000000000      0x142 Output\obj\project\solution\ble_hid_composite\app\func_lowpwr.o
 .rodata.__func__.5009
                0x0000000000000000       0x11 Output\obj\project\solution\ble_hid_composite\app\func_lowpwr.o
 .text          0x0000000000000000        0x0 Output\obj\project\solution\ble_hid_composite\app\func_tbox.o
 .data          0x0000000000000000        0x0 Output\obj\project\solution\ble_hid_composite\app\func_tbox.o
 .bss           0x0000000000000000        0x0 Output\obj\project\solution\ble_hid_composite\app\func_tbox.o
 .comment       0x0000000000000000       0x12 Output\obj\project\solution\ble_hid_composite\app\func_tbox.o
 .text          0x0000000000000000        0x0 Output\obj\project\solution\ble_hid_composite\app\msg_bt.o
 .data          0x0000000000000000        0x0 Output\obj\project\solution\ble_hid_composite\app\msg_bt.o
 .bss           0x0000000000000000        0x0 Output\obj\project\solution\ble_hid_composite\app\msg_bt.o
 .text          0x0000000000000000        0x0 Output\obj\project\solution\ble_hid_composite\app\msg_idle.o
 .data          0x0000000000000000        0x0 Output\obj\project\solution\ble_hid_composite\app\msg_idle.o
 .bss           0x0000000000000000        0x0 Output\obj\project\solution\ble_hid_composite\app\msg_idle.o
 .text          0x0000000000000000        0x0 Output\obj\project\solution\ble_hid_composite\app\msg_iodm.o
 .data          0x0000000000000000        0x0 Output\obj\project\solution\ble_hid_composite\app\msg_iodm.o
 .bss           0x0000000000000000        0x0 Output\obj\project\solution\ble_hid_composite\app\msg_iodm.o
 .text.func.iodm.msg
                0x0000000000000000        0x8 Output\obj\project\solution\ble_hid_composite\app\msg_iodm.o
 .comment       0x0000000000000000       0x12 Output\obj\project\solution\ble_hid_composite\app\msg_iodm.o
 .text          0x0000000000000000        0x0 Output\obj\project\solution\ble_hid_composite\app\msg_le_bqb_rf.o
 .data          0x0000000000000000        0x0 Output\obj\project\solution\ble_hid_composite\app\msg_le_bqb_rf.o
 .bss           0x0000000000000000        0x0 Output\obj\project\solution\ble_hid_composite\app\msg_le_bqb_rf.o
 .text.func.le_bqb_rf.msg
                0x0000000000000000        0x8 Output\obj\project\solution\ble_hid_composite\app\msg_le_bqb_rf.o
 .comment       0x0000000000000000       0x12 Output\obj\project\solution\ble_hid_composite\app\msg_le_bqb_rf.o
 .text          0x0000000000000000        0x0 Output\obj\project\solution\ble_hid_composite\app\msg_le_fcc.o
 .data          0x0000000000000000        0x0 Output\obj\project\solution\ble_hid_composite\app\msg_le_fcc.o
 .bss           0x0000000000000000        0x0 Output\obj\project\solution\ble_hid_composite\app\msg_le_fcc.o
 .text.func.le_fcc.msg
                0x0000000000000000        0x8 Output\obj\project\solution\ble_hid_composite\app\msg_le_fcc.o
 .comment       0x0000000000000000       0x12 Output\obj\project\solution\ble_hid_composite\app\msg_le_fcc.o
 .text          0x0000000000000000        0x0 Output\obj\project\solution\ble_hid_composite\app\msg_tbox.o
 .data          0x0000000000000000        0x0 Output\obj\project\solution\ble_hid_composite\app\msg_tbox.o
 .bss           0x0000000000000000        0x0 Output\obj\project\solution\ble_hid_composite\app\msg_tbox.o
 .comment       0x0000000000000000       0x12 Output\obj\project\solution\ble_hid_composite\app\msg_tbox.o
 .text          0x0000000000000000        0x0 Output\obj\project\solution\ble_hid_composite\ble\ble_battery_service.o
 .data          0x0000000000000000        0x0 Output\obj\project\solution\ble_hid_composite\ble\ble_battery_service.o
 .bss           0x0000000000000000        0x0 Output\obj\project\solution\ble_hid_composite\ble\ble_battery_service.o
 .text          0x0000000000000000        0x0 Output\obj\project\solution\ble_hid_composite\ble\ble_client.o
 .data          0x0000000000000000        0x0 Output\obj\project\solution\ble_hid_composite\ble\ble_client.o
 .bss           0x0000000000000000        0x0 Output\obj\project\solution\ble_hid_composite\ble\ble_client.o
 .text          0x0000000000000000        0x0 Output\obj\project\solution\ble_hid_composite\ble\ble_fota_service.o
 .data          0x0000000000000000        0x0 Output\obj\project\solution\ble_hid_composite\ble\ble_fota_service.o
 .bss           0x0000000000000000        0x0 Output\obj\project\solution\ble_hid_composite\ble\ble_fota_service.o
 .text.ab_fota_write
                0x0000000000000000        0x8 Output\obj\project\solution\ble_hid_composite\ble\ble_fota_service.o
 .text.ab_fota_get_err
                0x0000000000000000        0x8 Output\obj\project\solution\ble_hid_composite\ble\ble_fota_service.o
 .text.ab_fota_breakpoint_info_read
                0x0000000000000000        0x8 Output\obj\project\solution\ble_hid_composite\ble\ble_fota_service.o
 .text.ab_fota_init
                0x0000000000000000        0x8 Output\obj\project\solution\ble_hid_composite\ble\ble_fota_service.o
 .text.ab_fota_deinit
                0x0000000000000000        0x8 Output\obj\project\solution\ble_hid_composite\ble\ble_fota_service.o
 .text.ab_fota_get_curaddr
                0x0000000000000000        0x8 Output\obj\project\solution\ble_hid_composite\ble\ble_fota_service.o
 .text.ab_fota_is_update_success
                0x0000000000000000        0x8 Output\obj\project\solution\ble_hid_composite\ble\ble_fota_service.o
 .text.fota_ble_connect_callback
                0x0000000000000000        0x2 Output\obj\project\solution\ble_hid_composite\ble\ble_fota_service.o
 .text          0x0000000000000000        0x0 Output\obj\project\solution\ble_hid_composite\ble\ble_hid_service.o
 .data          0x0000000000000000        0x0 Output\obj\project\solution\ble_hid_composite\ble\ble_hid_service.o
 .bss           0x0000000000000000        0x0 Output\obj\project\solution\ble_hid_composite\ble\ble_hid_service.o
 .text          0x0000000000000000        0x0 Output\obj\project\solution\ble_hid_composite\ble\ble_init.o
 .data          0x0000000000000000        0x0 Output\obj\project\solution\ble_hid_composite\ble\ble_init.o
 .bss           0x0000000000000000        0x0 Output\obj\project\solution\ble_hid_composite\ble\ble_init.o
 .text.ble_get_work_mode
                0x0000000000000000        0xa Output\obj\project\solution\ble_hid_composite\ble\ble_init.o
 .text          0x0000000000000000        0x0 Output\obj\project\solution\ble_hid_composite\ble\ble_proc.o
 .data          0x0000000000000000        0x0 Output\obj\project\solution\ble_hid_composite\ble\ble_proc.o
 .bss           0x0000000000000000        0x0 Output\obj\project\solution\ble_hid_composite\ble\ble_proc.o
 .text          0x0000000000000000        0x0 Output\obj\project\solution\ble_hid_composite\ble\ble_service.o
 .data          0x0000000000000000        0x0 Output\obj\project\solution\ble_hid_composite\ble\ble_service.o
 .bss           0x0000000000000000        0x0 Output\obj\project\solution\ble_hid_composite\ble\ble_service.o
 .rodata.scan_data_const
                0x0000000000000000        0x0 Output\obj\project\solution\ble_hid_composite\ble\ble_service.o
 .text          0x0000000000000000        0x0 Output\obj\project\solution\ble_hid_composite\ble\ble_user_service.o
 .data          0x0000000000000000        0x0 Output\obj\project\solution\ble_hid_composite\ble\ble_user_service.o
 .bss           0x0000000000000000        0x0 Output\obj\project\solution\ble_hid_composite\ble\ble_user_service.o
 COMMON         0x0000000000000000       0x62 Output\obj\project\solution\ble_hid_composite\ble\ble_user_service.o
 .text          0x0000000000000000        0x0 Output\obj\project\solution\ble_hid_composite\bsp\bsp_charge.o
 .data          0x0000000000000000        0x0 Output\obj\project\solution\ble_hid_composite\bsp\bsp_charge.o
 .bss           0x0000000000000000        0x0 Output\obj\project\solution\ble_hid_composite\bsp\bsp_charge.o
 .text          0x0000000000000000        0x0 Output\obj\project\solution\ble_hid_composite\bsp\bsp_huart.o
 .data          0x0000000000000000        0x0 Output\obj\project\solution\ble_hid_composite\bsp\bsp_huart.o
 .bss           0x0000000000000000        0x0 Output\obj\project\solution\ble_hid_composite\bsp\bsp_huart.o
 .comment       0x0000000000000000       0x12 Output\obj\project\solution\ble_hid_composite\bsp\bsp_huart.o
 .text          0x0000000000000000        0x0 Output\obj\project\solution\ble_hid_composite\bsp\bsp_huart_iodm.o
 .data          0x0000000000000000        0x0 Output\obj\project\solution\ble_hid_composite\bsp\bsp_huart_iodm.o
 .bss           0x0000000000000000        0x0 Output\obj\project\solution\ble_hid_composite\bsp\bsp_huart_iodm.o
 .comment       0x0000000000000000       0x12 Output\obj\project\solution\ble_hid_composite\bsp\bsp_huart_iodm.o
 .text          0x0000000000000000        0x0 Output\obj\project\solution\ble_hid_composite\bsp\bsp_io_key.o
 .data          0x0000000000000000        0x0 Output\obj\project\solution\ble_hid_composite\bsp\bsp_io_key.o
 .bss           0x0000000000000000        0x0 Output\obj\project\solution\ble_hid_composite\bsp\bsp_io_key.o
 .text          0x0000000000000000        0x0 Output\obj\project\solution\ble_hid_composite\bsp\bsp_key.o
 .data          0x0000000000000000        0x0 Output\obj\project\solution\ble_hid_composite\bsp\bsp_key.o
 .bss           0x0000000000000000        0x0 Output\obj\project\solution\ble_hid_composite\bsp\bsp_key.o
 .com_text.key.set.power_on
                0x0000000000000000        0xa Output\obj\project\solution\ble_hid_composite\bsp\bsp_key.o
 .com_text.key.get.power_on
                0x0000000000000000        0xe Output\obj\project\solution\ble_hid_composite\bsp\bsp_key.o
 .text          0x0000000000000000        0x0 Output\obj\project\solution\ble_hid_composite\bsp\bsp_param.o
 .data          0x0000000000000000        0x0 Output\obj\project\solution\ble_hid_composite\bsp\bsp_param.o
 .bss           0x0000000000000000        0x0 Output\obj\project\solution\ble_hid_composite\bsp\bsp_param.o
 .text          0x0000000000000000        0x0 Output\obj\project\solution\ble_hid_composite\bsp\bsp_saradc.o
 .data          0x0000000000000000        0x0 Output\obj\project\solution\ble_hid_composite\bsp\bsp_saradc.o
 .bss           0x0000000000000000        0x0 Output\obj\project\solution\ble_hid_composite\bsp\bsp_saradc.o
 .text          0x0000000000000000        0x0 Output\obj\project\solution\ble_hid_composite\bsp\bsp_saradc_key.o
 .data          0x0000000000000000        0x0 Output\obj\project\solution\ble_hid_composite\bsp\bsp_saradc_key.o
 .bss           0x0000000000000000        0x0 Output\obj\project\solution\ble_hid_composite\bsp\bsp_saradc_key.o
 .comment       0x0000000000000000       0x12 Output\obj\project\solution\ble_hid_composite\bsp\bsp_saradc_key.o
 .text          0x0000000000000000        0x0 Output\obj\project\solution\ble_hid_composite\bsp\bsp_saradc_vbat.o
 .data          0x0000000000000000        0x0 Output\obj\project\solution\ble_hid_composite\bsp\bsp_saradc_vbat.o
 .bss           0x0000000000000000        0x0 Output\obj\project\solution\ble_hid_composite\bsp\bsp_saradc_vbat.o
 .rodata.vbat_param
                0x0000000000000000        0xa Output\obj\project\solution\ble_hid_composite\bsp\bsp_saradc_vbat.o
 .text          0x0000000000000000        0x0 Output\obj\project\solution\ble_hid_composite\bsp\bsp_sys.o
 .data          0x0000000000000000        0x0 Output\obj\project\solution\ble_hid_composite\bsp\bsp_sys.o
 .bss           0x0000000000000000        0x0 Output\obj\project\solution\ble_hid_composite\bsp\bsp_sys.o
 .text.power_on_check
                0x0000000000000000        0x8 Output\obj\project\solution\ble_hid_composite\bsp\bsp_sys.o
 .text          0x0000000000000000        0x0 Output\obj\project\solution\ble_hid_composite\bsp\bsp_uart_debug.o
 .data          0x0000000000000000        0x0 Output\obj\project\solution\ble_hid_composite\bsp\bsp_uart_debug.o
 .bss           0x0000000000000000        0x0 Output\obj\project\solution\ble_hid_composite\bsp\bsp_uart_debug.o
 .text          0x0000000000000000        0x0 Output\obj\project\solution\ble_hid_composite\main.o
 .data          0x0000000000000000        0x0 Output\obj\project\solution\ble_hid_composite\main.o
 .bss           0x0000000000000000        0x0 Output\obj\project\solution\ble_hid_composite\main.o
 .text          0x0000000000000000        0x0 Output\obj\project\solution\ble_hid_composite\production_test\iodm\prod_test_iodm.o
 .data          0x0000000000000000        0x0 Output\obj\project\solution\ble_hid_composite\production_test\iodm\prod_test_iodm.o
 .bss           0x0000000000000000        0x0 Output\obj\project\solution\ble_hid_composite\production_test\iodm\prod_test_iodm.o
 .comment       0x0000000000000000       0x12 Output\obj\project\solution\ble_hid_composite\production_test\iodm\prod_test_iodm.o
 .text          0x0000000000000000        0x0 Output\obj\project\solution\ble_hid_composite\production_test\prod_test.o
 .data          0x0000000000000000        0x0 Output\obj\project\solution\ble_hid_composite\production_test\prod_test.o
 .bss           0x0000000000000000        0x0 Output\obj\project\solution\ble_hid_composite\production_test\prod_test.o
 .text          0x0000000000000000        0x0 Output\obj\project\solution\ble_hid_composite\production_test\tbox\prod_test_tbox.o
 .data          0x0000000000000000        0x0 Output\obj\project\solution\ble_hid_composite\production_test\tbox\prod_test_tbox.o
 .bss           0x0000000000000000        0x0 Output\obj\project\solution\ble_hid_composite\production_test\tbox\prod_test_tbox.o
 .comment       0x0000000000000000       0x12 Output\obj\project\solution\ble_hid_composite\production_test\tbox\prod_test_tbox.o
 .text          0x0000000000000000        0x0 Output\obj\project\solution\ble_hid_composite\production_test\tbox\tbox_key.o
 .data          0x0000000000000000        0x0 Output\obj\project\solution\ble_hid_composite\production_test\tbox\tbox_key.o
 .bss           0x0000000000000000        0x0 Output\obj\project\solution\ble_hid_composite\production_test\tbox\tbox_key.o
 .comment       0x0000000000000000       0x12 Output\obj\project\solution\ble_hid_composite\production_test\tbox\tbox_key.o
 .text          0x0000000000000000        0x0 Output\obj\project\solution\ble_hid_composite\production_test\tbox\tbox_voice.o
 .data          0x0000000000000000        0x0 Output\obj\project\solution\ble_hid_composite\production_test\tbox\tbox_voice.o
 .bss           0x0000000000000000        0x0 Output\obj\project\solution\ble_hid_composite\production_test\tbox\tbox_voice.o
 .comment       0x0000000000000000       0x12 Output\obj\project\solution\ble_hid_composite\production_test\tbox\tbox_voice.o
 .text          0x0000000000000000        0x0 Output\obj\project\solution\ble_hid_composite\production_test\tbox\tbox_voice_sdadc.o
 .data          0x0000000000000000        0x0 Output\obj\project\solution\ble_hid_composite\production_test\tbox\tbox_voice_sdadc.o
 .bss           0x0000000000000000        0x0 Output\obj\project\solution\ble_hid_composite\production_test\tbox\tbox_voice_sdadc.o
 .comment       0x0000000000000000       0x12 Output\obj\project\solution\ble_hid_composite\production_test\tbox\tbox_voice_sdadc.o
 .text          0x0000000000000000        0x0 Output\obj\project\solution\ble_hid_composite\strong_symbol.o
 .data          0x0000000000000000        0x0 Output\obj\project\solution\ble_hid_composite\strong_symbol.o
 .bss           0x0000000000000000        0x0 Output\obj\project\solution\ble_hid_composite\strong_symbol.o
 .text          0x0000000000000000        0x0 ..\..\..\libs\cpu\libplatform.a(cm.o)
 .data          0x0000000000000000        0x0 ..\..\..\libs\cpu\libplatform.a(cm.o)
 .bss           0x0000000000000000        0x0 ..\..\..\libs\cpu\libplatform.a(cm.o)
 .rodata.cm_move_allpages.str1.4
                0x0000000000000000       0x3a ..\..\..\libs\cpu\libplatform.a(cm.o)
 .text.cm_move_allpages
                0x0000000000000000      0x140 ..\..\..\libs\cpu\libplatform.a(cm.o)
 .text.cm_get_startaddr
                0x0000000000000000        0xa ..\..\..\libs\cpu\libplatform.a(cm.o)
 .text.cm_get_area
                0x0000000000000000       0x10 ..\..\..\libs\cpu\libplatform.a(cm.o)
 .text.cm_release_all
                0x0000000000000000       0x82 ..\..\..\libs\cpu\libplatform.a(cm.o)
 .text.cm_read8
                0x0000000000000000       0x28 ..\..\..\libs\cpu\libplatform.a(cm.o)
 .text.cm_read16
                0x0000000000000000       0x28 ..\..\..\libs\cpu\libplatform.a(cm.o)
 .text.cm_read32
                0x0000000000000000       0x24 ..\..\..\libs\cpu\libplatform.a(cm.o)
 .text.cm_write8
                0x0000000000000000       0x28 ..\..\..\libs\cpu\libplatform.a(cm.o)
 .text.cm_write16
                0x0000000000000000       0x28 ..\..\..\libs\cpu\libplatform.a(cm.o)
 .text.cm_write32
                0x0000000000000000       0x24 ..\..\..\libs\cpu\libplatform.a(cm.o)
 .text.cm_clear
                0x0000000000000000       0x60 ..\..\..\libs\cpu\libplatform.a(cm.o)
 .text          0x0000000000000000        0x0 ..\..\..\libs\cpu\libplatform.a(os_flash.o)
 .data          0x0000000000000000        0x0 ..\..\..\libs\cpu\libplatform.a(os_flash.o)
 .bss           0x0000000000000000        0x0 ..\..\..\libs\cpu\libplatform.a(os_flash.o)
 .com_text.spiflash.id
                0x0000000000000000       0x82 ..\..\..\libs\cpu\libplatform.a(os_flash.o)
 .com_text.spiflash.protect.weak
                0x0000000000000000       0x60 ..\..\..\libs\cpu\libplatform.a(os_flash.o)
 .com_text.spiflash.erase_32k
                0x0000000000000000       0x72 ..\..\..\libs\cpu\libplatform.a(os_flash.o)
 .com_text.spiflash.erase_64k
                0x0000000000000000       0x72 ..\..\..\libs\cpu\libplatform.a(os_flash.o)
 .text          0x0000000000000000        0x0 ..\..\..\libs\cpu\libplatform.a(xcfg.o)
 .data          0x0000000000000000        0x0 ..\..\..\libs\cpu\libplatform.a(xcfg.o)
 .bss           0x0000000000000000        0x0 ..\..\..\libs\cpu\libplatform.a(xcfg.o)
 .text          0x0000000000000000        0x0 ..\..\..\libs\cpu\libplatform.a(main.o)
 .data          0x0000000000000000        0x0 ..\..\..\libs\cpu\libplatform.a(main.o)
 .bss           0x0000000000000000        0x0 ..\..\..\libs\cpu\libplatform.a(main.o)
 .text.compiler
                0x0000000000000000       0x20 ..\..\..\libs\cpu\libplatform.a(main.o)
 .text          0x0000000000000000        0x0 ..\..\..\libs\cpu\libplatform.a(interrupt.o)
 .data          0x0000000000000000        0x0 ..\..\..\libs\cpu\libplatform.a(interrupt.o)
 .bss           0x0000000000000000        0x0 ..\..\..\libs\cpu\libplatform.a(interrupt.o)
 .rodata.watch_point_set.str1.4
                0x0000000000000000       0x19 ..\..\..\libs\cpu\libplatform.a(interrupt.o)
 .text.watch_point_set
                0x0000000000000000       0x48 ..\..\..\libs\cpu\libplatform.a(interrupt.o)
 .text.wdt_init
                0x0000000000000000       0x3a ..\..\..\libs\cpu\libplatform.a(interrupt.o)
 .text.usb_irq_init
                0x0000000000000000       0x2e ..\..\..\libs\cpu\libplatform.a(interrupt.o)
 .text          0x0000000000000000        0x0 ..\..\..\libs\cpu\libplatform.a(startup.o)
 .data          0x0000000000000000        0x0 ..\..\..\libs\cpu\libplatform.a(startup.o)
 .bss           0x0000000000000000        0x0 ..\..\..\libs\cpu\libplatform.a(startup.o)
 .text.mem_heap_size_get
                0x0000000000000000        0x8 ..\..\..\libs\cpu\libplatform.a(startup.o)
 .text.thread_cfg_get
                0x0000000000000000        0x4 ..\..\..\libs\cpu\libplatform.a(startup.o)
 .text.thread_bthw_create
                0x0000000000000000        0x2 ..\..\..\libs\cpu\libplatform.a(startup.o)
 .rodata.thread_driver_create.str1.4
                0x0000000000000000        0x8 ..\..\..\libs\cpu\libplatform.a(startup.o)
 .text.thread_driver_create
                0x0000000000000000       0x88 ..\..\..\libs\cpu\libplatform.a(startup.o)
 .rodata.thread_aupcm_create.str1.4
                0x0000000000000000        0x4 ..\..\..\libs\cpu\libplatform.a(startup.o)
 .text.thread_aupcm_create
                0x0000000000000000       0x78 ..\..\..\libs\cpu\libplatform.a(startup.o)
 .text.thread_create_callback
                0x0000000000000000       0x28 ..\..\..\libs\cpu\libplatform.a(startup.o)
 .bss.thread.aupcm
                0x0000000000000000        0x4 ..\..\..\libs\cpu\libplatform.a(startup.o)
 .bss.thread.driver
                0x0000000000000000        0x8 ..\..\..\libs\cpu\libplatform.a(startup.o)
 .mem_heap      0x0000000000000000     0x1c00 ..\..\..\libs\cpu\libplatform.a(startup.o)
 .text          0x0000000000000000        0x0 ..\..\..\libs\cpu\libplatform.a(sys_hook.o)
 .data          0x0000000000000000        0x0 ..\..\..\libs\cpu\libplatform.a(sys_hook.o)
 .bss           0x0000000000000000        0x0 ..\..\..\libs\cpu\libplatform.a(sys_hook.o)
 .text          0x0000000000000000        0x0 ..\..\..\libs\cpu\libplatform.a(thread_aupcm.o)
 .data          0x0000000000000000        0x0 ..\..\..\libs\cpu\libplatform.a(thread_aupcm.o)
 .bss           0x0000000000000000        0x0 ..\..\..\libs\cpu\libplatform.a(thread_aupcm.o)
 .com_text.thread.driver
                0x0000000000000000       0x30 ..\..\..\libs\cpu\libplatform.a(thread_aupcm.o)
 .com_text.thread.aupcm
                0x0000000000000000       0x64 ..\..\..\libs\cpu\libplatform.a(thread_aupcm.o)
 .comment       0x0000000000000000       0x13 ..\..\..\libs\cpu\libplatform.a(thread_aupcm.o)
 .riscv.attributes
                0x0000000000000000       0x32 ..\..\..\libs\cpu\libplatform.a(thread_aupcm.o)
 .text          0x0000000000000000        0x0 ..\..\..\libs\cpu\libplatform.a(thread_driver.o)
 .data          0x0000000000000000        0x0 ..\..\..\libs\cpu\libplatform.a(thread_driver.o)
 .bss           0x0000000000000000        0x0 ..\..\..\libs\cpu\libplatform.a(thread_driver.o)
 .com_text.thread.driver
                0x0000000000000000       0x26 ..\..\..\libs\cpu\libplatform.a(thread_driver.o)
 .com_text.thread.driver.usb
                0x0000000000000000       0x4e ..\..\..\libs\cpu\libplatform.a(thread_driver.o)
 .com_text.thread.driver.vs
                0x0000000000000000       0x4e ..\..\..\libs\cpu\libplatform.a(thread_driver.o)
 .text.thread.driver.usb
                0x0000000000000000       0x38 ..\..\..\libs\cpu\libplatform.a(thread_driver.o)
 .text.thread.driver.vs
                0x0000000000000000       0x38 ..\..\..\libs\cpu\libplatform.a(thread_driver.o)
 .com_text.thread.driver.enter
                0x0000000000000000       0x60 ..\..\..\libs\cpu\libplatform.a(thread_driver.o)
 .sbss.thread_driver_usb_enter_func
                0x0000000000000000        0x4 ..\..\..\libs\cpu\libplatform.a(thread_driver.o)
 .sbss.thread_driver_vs_enter_func
                0x0000000000000000        0x4 ..\..\..\libs\cpu\libplatform.a(thread_driver.o)
 .comment       0x0000000000000000       0x13 ..\..\..\libs\cpu\libplatform.a(thread_driver.o)
 .riscv.attributes
                0x0000000000000000       0x32 ..\..\..\libs\cpu\libplatform.a(thread_driver.o)
 .text          0x0000000000000000        0x0 ..\..\..\libs\cpu\libplatform.a(pll.o)
 .data          0x0000000000000000        0x0 ..\..\..\libs\cpu\libplatform.a(pll.o)
 .bss           0x0000000000000000        0x0 ..\..\..\libs\cpu\libplatform.a(pll.o)
 .text.pll_clk_nhz_get
                0x0000000000000000       0x22 ..\..\..\libs\cpu\libplatform.a(pll.o)
 .text          0x0000000000000000        0x0 ..\..\..\libs\cpu\libplatform.a(pmu.o)
 .data          0x0000000000000000        0x0 ..\..\..\libs\cpu\libplatform.a(pmu.o)
 .bss           0x0000000000000000        0x0 ..\..\..\libs\cpu\libplatform.a(pmu.o)
 .com_text.trim.vddio_get
                0x0000000000000000        0xa ..\..\..\libs\cpu\libplatform.a(pmu.o)
 .com_text.trim.vbg_get
                0x0000000000000000        0xa ..\..\..\libs\cpu\libplatform.a(pmu.o)
 .com_text.trim.vddio_set
                0x0000000000000000       0x2c ..\..\..\libs\cpu\libplatform.a(pmu.o)
 .com_text.trim.core_set
                0x0000000000000000       0x16 ..\..\..\libs\cpu\libplatform.a(pmu.o)
 .com_text.trim.lvd_get
                0x0000000000000000        0xa ..\..\..\libs\cpu\libplatform.a(pmu.o)
 .com_text.pmu.vddbt_set
                0x0000000000000000        0xe ..\..\..\libs\cpu\libplatform.a(pmu.o)
 .com_text.pmu.vddbt_get
                0x0000000000000000        0x8 ..\..\..\libs\cpu\libplatform.a(pmu.o)
 .text          0x0000000000000000        0x0 ..\..\..\libs\cpu\libplatform.a(rc.o)
 .data          0x0000000000000000        0x0 ..\..\..\libs\cpu\libplatform.a(rc.o)
 .bss           0x0000000000000000        0x0 ..\..\..\libs\cpu\libplatform.a(rc.o)
 .text.compiler
                0x0000000000000000        0x2 ..\..\..\libs\cpu\libplatform.a(rc.o)
 .text          0x0000000000000000        0x0 ..\..\..\libs\cpu\libplatform.a(reset.o)
 .data          0x0000000000000000        0x0 ..\..\..\libs\cpu\libplatform.a(reset.o)
 .bss           0x0000000000000000        0x0 ..\..\..\libs\cpu\libplatform.a(reset.o)
 .text          0x0000000000000000        0x0 ..\..\..\libs\cpu\libplatform.a(spiflash.o)
 .data          0x0000000000000000        0x0 ..\..\..\libs\cpu\libplatform.a(spiflash.o)
 .bss           0x0000000000000000        0x0 ..\..\..\libs\cpu\libplatform.a(spiflash.o)
 .com_text.spiflash.w_en
                0x0000000000000000       0x32 ..\..\..\libs\cpu\libplatform.a(spiflash.o)
 .com_text.spiflash.rssr
                0x0000000000000000       0x42 ..\..\..\libs\cpu\libplatform.a(spiflash.o)
 .com_text.spiflash.busy
                0x0000000000000000       0x24 ..\..\..\libs\cpu\libplatform.a(spiflash.o)
 .com_text.spiflash
                0x0000000000000000       0x84 ..\..\..\libs\cpu\libplatform.a(spiflash.o)
 .com_text.spiflash.refactor
                0x0000000000000000      0x112 ..\..\..\libs\cpu\libplatform.a(spiflash.o)
 .com_text.spiflash.wrsr
                0x0000000000000000       0x46 ..\..\..\libs\cpu\libplatform.a(spiflash.o)
 .com_text.spiflash.protect.en
                0x0000000000000000        0x4 ..\..\..\libs\cpu\libplatform.a(spiflash.o)
 .com_text.spiflash.protect_do
                0x0000000000000000       0x68 ..\..\..\libs\cpu\libplatform.a(spiflash.o)
 .com_text.spiflash.is_protect
                0x0000000000000000       0x50 ..\..\..\libs\cpu\libplatform.a(spiflash.o)
 .com_text.spiflash.read_kick
                0x0000000000000000       0x20 ..\..\..\libs\cpu\libplatform.a(spiflash.o)
 .com_text.spiflash.read_wait
                0x0000000000000000       0x30 ..\..\..\libs\cpu\libplatform.a(spiflash.o)
 .com_text.spiflash.byte_addr
                0x0000000000000000      0x164 ..\..\..\libs\cpu\libplatform.a(spiflash.o)
 .com_text.spiflash.erase_32k
                0x0000000000000000       0x50 ..\..\..\libs\cpu\libplatform.a(spiflash.o)
 .com_text.spiflash.erase_32k.byte_addr
                0x0000000000000000       0x48 ..\..\..\libs\cpu\libplatform.a(spiflash.o)
 .com_text.spiflash.erase_64k
                0x0000000000000000       0x50 ..\..\..\libs\cpu\libplatform.a(spiflash.o)
 .com_text.spiflash.erase_64k.byte_addr
                0x0000000000000000       0x48 ..\..\..\libs\cpu\libplatform.a(spiflash.o)
 .btmem.spi     0x0000000000000000       0x1c ..\..\..\libs\cpu\libplatform.a(spiflash.o)
 .text          0x0000000000000000        0x0 ..\..\..\libs\cpu\libplatform.a(debug.o)
 .data          0x0000000000000000        0x0 ..\..\..\libs\cpu\libplatform.a(debug.o)
 .bss           0x0000000000000000        0x0 ..\..\..\libs\cpu\libplatform.a(debug.o)
 .text.debug_dump_info_nanos_schedule
                0x0000000000000000        0x2 ..\..\..\libs\cpu\libplatform.a(debug.o)
 .text.debug_dump_info_nanos_timer
                0x0000000000000000        0x2 ..\..\..\libs\cpu\libplatform.a(debug.o)
 .text          0x0000000000000000        0x0 ..\..\..\libs\cpu\libplatform.a(fot_pack.o)
 .data          0x0000000000000000        0x0 ..\..\..\libs\cpu\libplatform.a(fot_pack.o)
 .bss           0x0000000000000000        0x0 ..\..\..\libs\cpu\libplatform.a(fot_pack.o)
 .text          0x0000000000000000        0x0 ..\..\..\libs\cpu\libplatform.a(key.o)
 .data          0x0000000000000000        0x0 ..\..\..\libs\cpu\libplatform.a(key.o)
 .bss           0x0000000000000000        0x0 ..\..\..\libs\cpu\libplatform.a(key.o)
 .text          0x0000000000000000        0x0 ..\..\..\libs\cpu\libplatform.a(lock.o)
 .data          0x0000000000000000        0x0 ..\..\..\libs\cpu\libplatform.a(lock.o)
 .bss           0x0000000000000000        0x0 ..\..\..\libs\cpu\libplatform.a(lock.o)
 .rodata.lock_code_usbdev.str1.4
                0x0000000000000000       0x16 ..\..\..\libs\cpu\libplatform.a(lock.o)
 .text.lock_code_usbdev
                0x0000000000000000       0x54 ..\..\..\libs\cpu\libplatform.a(lock.o)
 .text.unlock_code_usbdev
                0x0000000000000000       0x38 ..\..\..\libs\cpu\libplatform.a(lock.o)
 .rodata.lock_code_alg.str1.4
                0x0000000000000000       0x1f ..\..\..\libs\cpu\libplatform.a(lock.o)
 .text.lock_code_alg
                0x0000000000000000       0x60 ..\..\..\libs\cpu\libplatform.a(lock.o)
 .text.unlock_code_alg
                0x0000000000000000       0x38 ..\..\..\libs\cpu\libplatform.a(lock.o)
 .text          0x0000000000000000        0x0 ..\..\..\libs\cpu\libplatform.a(patch.o)
 .data          0x0000000000000000        0x0 ..\..\..\libs\cpu\libplatform.a(patch.o)
 .bss           0x0000000000000000        0x0 ..\..\..\libs\cpu\libplatform.a(patch.o)
 .text          0x0000000000000000        0x0 ..\..\..\libs\cpu\libplatform.a(s_sys.o)
 .data          0x0000000000000000        0x0 ..\..\..\libs\cpu\libplatform.a(s_sys.o)
 .bss           0x0000000000000000        0x0 ..\..\..\libs\cpu\libplatform.a(s_sys.o)
 .text          0x0000000000000000        0x0 ..\..\..\libs\cpu\libplatform.a(sleep.o)
 .data          0x0000000000000000        0x0 ..\..\..\libs\cpu\libplatform.a(sleep.o)
 .bss           0x0000000000000000        0x0 ..\..\..\libs\cpu\libplatform.a(sleep.o)
 .text          0x0000000000000000        0x0 ..\..\..\libs\cpu\libplatform.a(sys.o)
 .data          0x0000000000000000        0x0 ..\..\..\libs\cpu\libplatform.a(sys.o)
 .bss           0x0000000000000000        0x0 ..\..\..\libs\cpu\libplatform.a(sys.o)
 .text.dbg_clk_out
                0x0000000000000000       0x46 ..\..\..\libs\cpu\libplatform.a(sys.o)
 .text.sys_get_rand_key
                0x0000000000000000       0x6c ..\..\..\libs\cpu\libplatform.a(sys.o)
 .text.bt_restore_xosc_cap
                0x0000000000000000        0x8 ..\..\..\libs\cpu\libplatform.a(sys.o)
 .text.__divdi3
                0x0000000000000000       0x5c ..\..\..\libs\cpu\libplatform.a(sys.o)
 .text.__umoddi3
                0x0000000000000000       0x30 ..\..\..\libs\cpu\libplatform.a(sys.o)
 .text.get_random
                0x0000000000000000       0x26 ..\..\..\libs\cpu\libplatform.a(sys.o)
 .text.random_init
                0x0000000000000000        0xa ..\..\..\libs\cpu\libplatform.a(sys.o)
 .com_text.sys  0x0000000000000000       0x1e ..\..\..\libs\cpu\libplatform.a(sys.o)
 .text.sw_reset_source_get
                0x0000000000000000       0x2a ..\..\..\libs\cpu\libplatform.a(sys.o)
 .text          0x0000000000000000        0x0 ..\..\..\libs\cpu\libplatform.a(sys_clk.o)
 .data          0x0000000000000000        0x0 ..\..\..\libs\cpu\libplatform.a(sys_clk.o)
 .bss           0x0000000000000000        0x0 ..\..\..\libs\cpu\libplatform.a(sys_clk.o)
 .text.periph_cacl_clkdiv
                0x0000000000000000        0x2 ..\..\..\libs\cpu\libplatform.a(sys_clk.o)
 .text.sys_clk_lower_limit_lock
                0x0000000000000000       0x84 ..\..\..\libs\cpu\libplatform.a(sys_clk.o)
 .text.sys_clk_lower_limit_unlock
                0x0000000000000000       0x6c ..\..\..\libs\cpu\libplatform.a(sys_clk.o)
 .text.sys_clk_lower_limit_all_unlock
                0x0000000000000000       0x50 ..\..\..\libs\cpu\libplatform.a(sys_clk.o)
 .sbss.cfg_spiflash_speed_up_en
                0x0000000000000000        0x1 ..\..\..\libs\cpu\libplatform.a(sys_clk.o)
 .srodata.rtc_clk_div_coef
                0x0000000000000000        0x4 ..\..\..\libs\cpu\libplatform.a(sys_clk.o)
 .text          0x0000000000000000        0x0 ..\..\..\libs\cpu\libplatform.a(voltage_trim.o)
 .data          0x0000000000000000        0x0 ..\..\..\libs\cpu\libplatform.a(voltage_trim.o)
 .bss           0x0000000000000000        0x0 ..\..\..\libs\cpu\libplatform.a(voltage_trim.o)
 .rodata.voltage_trim_value_dump.str1.4
                0x0000000000000000       0xa1 ..\..\..\libs\cpu\libplatform.a(voltage_trim.o)
 .text.voltage_trim_value_dump
                0x0000000000000000       0xf8 ..\..\..\libs\cpu\libplatform.a(voltage_trim.o)
 .text          0x0000000000000000        0x0 ..\..\..\libs\cpu\libplatform.a(weak_symbol.o)
 .data          0x0000000000000000        0x0 ..\..\..\libs\cpu\libplatform.a(weak_symbol.o)
 .bss           0x0000000000000000        0x0 ..\..\..\libs\cpu\libplatform.a(weak_symbol.o)
 .text.xosc_get_xcfg
                0x0000000000000000        0x2 ..\..\..\libs\cpu\libplatform.a(weak_symbol.o)
 .text.param_xosc_read
                0x0000000000000000        0x2 ..\..\..\libs\cpu\libplatform.a(weak_symbol.o)
 .text.param_xosc_write
                0x0000000000000000        0x2 ..\..\..\libs\cpu\libplatform.a(weak_symbol.o)
 .text.sys_clk_change_callback
                0x0000000000000000        0x2 ..\..\..\libs\cpu\libplatform.a(weak_symbol.o)
 .text.uart_debug_init_callback
                0x0000000000000000        0x2 ..\..\..\libs\cpu\libplatform.a(weak_symbol.o)
 .text.dongle_alg_tbl_get
                0x0000000000000000        0x4 ..\..\..\libs\cpu\libplatform.a(weak_symbol.o)
 .text.dongle_soft_key_get
                0x0000000000000000        0x4 ..\..\..\libs\cpu\libplatform.a(weak_symbol.o)
 .text.bb_run_loop
                0x0000000000000000        0x2 ..\..\..\libs\cpu\libplatform.a(weak_symbol.o)
 .text.nanos_var_init
                0x0000000000000000       0x1c ..\..\..\libs\cpu\libplatform.a(weak_symbol.o)
 .text.btstack_message
                0x0000000000000000        0x4 ..\..\..\libs\cpu\libplatform.a(weak_symbol.o)
 .com_text.stack.api
                0x0000000000000000        0x4 ..\..\..\libs\cpu\libplatform.a(weak_symbol.o)
 .com_text.ret.stack.thread
                0x0000000000000000        0x2 ..\..\..\libs\cpu\libplatform.a(weak_symbol.o)
 .com_text.bb.isr
                0x0000000000000000        0x2 ..\..\..\libs\cpu\libplatform.a(weak_symbol.o)
 .com_text.isr  0x0000000000000000        0x2 ..\..\..\libs\cpu\libplatform.a(weak_symbol.o)
 .text.btstack_var_init
                0x0000000000000000        0x2 ..\..\..\libs\cpu\libplatform.a(weak_symbol.o)
 .com_text.stack.run_loop
                0x0000000000000000        0x2 ..\..\..\libs\cpu\libplatform.a(weak_symbol.o)
 .text.bb_patch_init
                0x0000000000000000        0x4 ..\..\..\libs\cpu\libplatform.a(weak_symbol.o)
 .text.bb_nanos_mem_init
                0x0000000000000000        0x2 ..\..\..\libs\cpu\libplatform.a(weak_symbol.o)
 .bss.heap_buf  0x0000000000000000       0x14 ..\..\..\libs\cpu\libplatform.a(weak_symbol.o)
 .bss.heap_size_buf
                0x0000000000000000        0xa ..\..\..\libs\cpu\libplatform.a(weak_symbol.o)
 .sbss.cfg_bt_work_mode
                0x0000000000000000        0x1 ..\..\..\libs\cpu\libplatform.a(weak_symbol.o)
 .text          0x0000000000000000        0x0 ..\..\..\libs\cpu\libplatform.a(sdadc.o)
 .data          0x0000000000000000        0x0 ..\..\..\libs\cpu\libplatform.a(sdadc.o)
 .bss           0x0000000000000000        0x0 ..\..\..\libs\cpu\libplatform.a(sdadc.o)
 .text.mic_trimin
                0x0000000000000000       0x32 ..\..\..\libs\cpu\libplatform.a(sdadc.o)
 .text.mic_adc_init
                0x0000000000000000      0x194 ..\..\..\libs\cpu\libplatform.a(sdadc.o)
 .text.mic_adc_deinit
                0x0000000000000000       0x14 ..\..\..\libs\cpu\libplatform.a(sdadc.o)
 .text.mic_bias_open
                0x0000000000000000       0x30 ..\..\..\libs\cpu\libplatform.a(sdadc.o)
 .text.mic_bias_close
                0x0000000000000000       0x10 ..\..\..\libs\cpu\libplatform.a(sdadc.o)
 .text.mic_bias_level_set
                0x0000000000000000       0x20 ..\..\..\libs\cpu\libplatform.a(sdadc.o)
 .text.mic_analog_gain_set
                0x0000000000000000       0x14 ..\..\..\libs\cpu\libplatform.a(sdadc.o)
 .text.sdadc_done_callback_set
                0x0000000000000000        0xc ..\..\..\libs\cpu\libplatform.a(sdadc.o)
 .com_text.sdadc.done
                0x0000000000000000        0xe ..\..\..\libs\cpu\libplatform.a(sdadc.o)
 .com_text.irq.sdadc
                0x0000000000000000       0x26 ..\..\..\libs\cpu\libplatform.a(sdadc.o)
 .sbss.p_sdadc_done
                0x0000000000000000        0x4 ..\..\..\libs\cpu\libplatform.a(sdadc.o)
 .comment       0x0000000000000000       0x13 ..\..\..\libs\cpu\libplatform.a(sdadc.o)
 .riscv.attributes
                0x0000000000000000       0x32 ..\..\..\libs\cpu\libplatform.a(sdadc.o)
 .text          0x0000000000000000        0x0 ..\..\..\libs\cpu\libplatform.a(sddac.o)
 .data          0x0000000000000000        0x0 ..\..\..\libs\cpu\libplatform.a(sddac.o)
 .bss           0x0000000000000000        0x0 ..\..\..\libs\cpu\libplatform.a(sddac.o)
 .text.sddac_done_callback_set
                0x0000000000000000        0xc ..\..\..\libs\cpu\libplatform.a(sddac.o)
 .com_text.sddac.done
                0x0000000000000000        0xe ..\..\..\libs\cpu\libplatform.a(sddac.o)
 .com_text.irq.sddac
                0x0000000000000000       0x2a ..\..\..\libs\cpu\libplatform.a(sddac.o)
 .sbss.p_sddac_done
                0x0000000000000000        0x4 ..\..\..\libs\cpu\libplatform.a(sddac.o)
 .comment       0x0000000000000000       0x13 ..\..\..\libs\cpu\libplatform.a(sddac.o)
 .riscv.attributes
                0x0000000000000000       0x32 ..\..\..\libs\cpu\libplatform.a(sddac.o)
 .text          0x0000000000000000        0x0 ..\..\..\libs\cpu\libplatform.a(bt.o)
 .data          0x0000000000000000        0x0 ..\..\..\libs\cpu\libplatform.a(bt.o)
 .bss           0x0000000000000000        0x0 ..\..\..\libs\cpu\libplatform.a(bt.o)
 .com_text.bthw
                0x0000000000000000        0x4 ..\..\..\libs\cpu\libplatform.a(bt.o)
 .text          0x0000000000000000        0x0 ..\..\..\libs\cpu\libplatform.a(crc.o)
 .data          0x0000000000000000        0x0 ..\..\..\libs\cpu\libplatform.a(crc.o)
 .bss           0x0000000000000000        0x0 ..\..\..\libs\cpu\libplatform.a(crc.o)
 .text.calc_crc16
                0x0000000000000000       0x2a ..\..\..\libs\cpu\libplatform.a(crc.o)
 .com_text.crc8
                0x0000000000000000       0x28 ..\..\..\libs\cpu\libplatform.a(crc.o)
 .com_rodata.crc.tbl
                0x0000000000000000      0x100 ..\..\..\libs\cpu\libplatform.a(crc.o)
 .rodata.crc.tbl
                0x0000000000000000      0x200 ..\..\..\libs\cpu\libplatform.a(crc.o)
 .data          0x0000000000000000        0x0 ..\..\..\libs\ble\libbtstack.a(txpkt.o)
 .bss           0x0000000000000000        0x0 ..\..\..\libs\ble\libbtstack.a(txpkt.o)
 .com_text.txpkt.full_check
                0x0000000000000000       0x1c ..\..\..\libs\ble\libbtstack.a(txpkt.o)
 .com_text.txpkt.avail_check
                0x0000000000000000       0x16 ..\..\..\libs\ble\libbtstack.a(txpkt.o)
 .com_text.txpkt.server_kick
                0x0000000000000000        0xc ..\..\..\libs\ble\libbtstack.a(txpkt.o)
 .com_text.txpkt.client_kick
                0x0000000000000000        0xc ..\..\..\libs\ble\libbtstack.a(txpkt.o)
 .data          0x0000000000000000        0x0 ..\..\..\libs\ble\libbtstack.a(sm.o)
 .text.sm.cmac  0x0000000000000000       0x82 ..\..\..\libs\ble\libbtstack.a(sm.o)
 .text.sm.bonding_decline
                0x0000000000000000       0x60 ..\..\..\libs\ble\libbtstack.a(sm.o)
 .text.sm.passkey.set
                0x0000000000000000       0x3e ..\..\..\libs\ble\libbtstack.a(sm.o)
 .text.sm.nc_exch
                0x0000000000000000        0x8 ..\..\..\libs\ble\libbtstack.a(sm.o)
 .text.sm.identity_resolving_state
                0x0000000000000000       0x20 ..\..\..\libs\ble\libbtstack.a(sm.o)
 .text.sm.irk_get
                0x0000000000000000        0xa ..\..\..\libs\ble\libbtstack.a(sm.o)
 .text.sm.delete_bonding
                0x0000000000000000       0x6e ..\..\..\libs\ble\libbtstack.a(sm.o)
 .data          0x0000000000000000        0x0 ..\..\..\libs\ble\libbtstack.a(le_device_db_memory.o)
 .bss           0x0000000000000000        0x0 ..\..\..\libs\ble\libbtstack.a(le_device_db_memory.o)
 .text.le.db.get
                0x0000000000000000       0x34 ..\..\..\libs\ble\libbtstack.a(le_device_db_memory.o)
 .text.le.db.set
                0x0000000000000000      0x192 ..\..\..\libs\ble\libbtstack.a(le_device_db_memory.o)
 .text.le.db.remove_all
                0x0000000000000000       0x58 ..\..\..\libs\ble\libbtstack.a(le_device_db_memory.o)
 .text.le.db.dump
                0x0000000000000000       0x62 ..\..\..\libs\ble\libbtstack.a(le_device_db_memory.o)
 .text.le.db.get_index
                0x0000000000000000       0x1c ..\..\..\libs\ble\libbtstack.a(le_device_db_memory.o)
 .data          0x0000000000000000        0x0 ..\..\..\libs\ble\libbtstack.a(gatt_server.o)
 .bss           0x0000000000000000        0x0 ..\..\..\libs\ble\libbtstack.a(gatt_server.o)
 .data          0x0000000000000000        0x0 ..\..\..\libs\ble\libbtstack.a(gatt_client.o)
 .bss           0x0000000000000000        0x0 ..\..\..\libs\ble\libbtstack.a(gatt_client.o)
 .text.client.set.sm_level
                0x0000000000000000        0xa ..\..\..\libs\ble\libbtstack.a(gatt_client.o)
 .text.client.stop_listening
                0x0000000000000000       0x12 ..\..\..\libs\ble\libbtstack.a(gatt_client.o)
 .text.client.deserialize_characteristic_descriptor
                0x0000000000000000       0x4e ..\..\..\libs\ble\libbtstack.a(gatt_client.o)
 .text.client.get_character_uuid16
                0x0000000000000000       0x22 ..\..\..\libs\ble\libbtstack.a(gatt_client.o)
 .text.client.get_character_uuid128
                0x0000000000000000       0x42 ..\..\..\libs\ble\libbtstack.a(gatt_client.o)
 .text.client.write_cmd
                0x0000000000000000       0x24 ..\..\..\libs\ble\libbtstack.a(gatt_client.o)
 .text.client.read_req
                0x0000000000000000       0x22 ..\..\..\libs\ble\libbtstack.a(gatt_client.o)
 .text.client.read_blob
                0x0000000000000000       0x22 ..\..\..\libs\ble\libbtstack.a(gatt_client.o)
 .text.client.read_report_ref
                0x0000000000000000       0x22 ..\..\..\libs\ble\libbtstack.a(gatt_client.o)
 .text.client.find_services
                0x0000000000000000       0x5e ..\..\..\libs\ble\libbtstack.a(gatt_client.o)
 .text.client.discover_secondary_services
                0x0000000000000000       0x4c ..\..\..\libs\ble\libbtstack.a(gatt_client.o)
 .text.client.find_services_uuid16
                0x0000000000000000       0x6a ..\..\..\libs\ble\libbtstack.a(gatt_client.o)
 .text.client.find_character
                0x0000000000000000       0x6a ..\..\..\libs\ble\libbtstack.a(gatt_client.o)
 .text.client.find_included_services
                0x0000000000000000       0x4e ..\..\..\libs\ble\libbtstack.a(gatt_client.o)
 .text.client.find_character_uuid16
                0x0000000000000000       0x90 ..\..\..\libs\ble\libbtstack.a(gatt_client.o)
 .text.client.find_character_uuid128
                0x0000000000000000       0x92 ..\..\..\libs\ble\libbtstack.a(gatt_client.o)
 .text.client.discover_characteristic_descriptors
                0x0000000000000000       0x5e ..\..\..\libs\ble\libbtstack.a(gatt_client.o)
 .text.client.read_value
                0x0000000000000000        0xc ..\..\..\libs\ble\libbtstack.a(gatt_client.o)
 .text.client.read_value_uuid16
                0x0000000000000000       0x66 ..\..\..\libs\ble\libbtstack.a(gatt_client.o)
 .text.client.read_value_uuid128
                0x0000000000000000       0x68 ..\..\..\libs\ble\libbtstack.a(gatt_client.o)
 .text.client.read_long_value
                0x0000000000000000       0x16 ..\..\..\libs\ble\libbtstack.a(gatt_client.o)
 .text.client.read_multiple
                0x0000000000000000       0x48 ..\..\..\libs\ble\libbtstack.a(gatt_client.o)
 .text.client.write_long_value
                0x0000000000000000       0x62 ..\..\..\libs\ble\libbtstack.a(gatt_client.o)
 .text.client.reliable_write_long
                0x0000000000000000       0x52 ..\..\..\libs\ble\libbtstack.a(gatt_client.o)
 .text.client.read_characteristic
                0x0000000000000000       0x50 ..\..\..\libs\ble\libbtstack.a(gatt_client.o)
 .text.client.read_long_characteristic_descriptor
                0x0000000000000000       0x62 ..\..\..\libs\ble\libbtstack.a(gatt_client.o)
 .text.client.write_character_desc
                0x0000000000000000       0x60 ..\..\..\libs\ble\libbtstack.a(gatt_client.o)
 .text.client.write_long_character_desc
                0x0000000000000000       0x70 ..\..\..\libs\ble\libbtstack.a(gatt_client.o)
 .text.client.prepare_write
                0x0000000000000000       0x56 ..\..\..\libs\ble\libbtstack.a(gatt_client.o)
 .text.client.execute_write
                0x0000000000000000       0x3c ..\..\..\libs\ble\libbtstack.a(gatt_client.o)
 .text.client.cancel_write
                0x0000000000000000       0x3c ..\..\..\libs\ble\libbtstack.a(gatt_client.o)
 .ble_buf.read  0x0000000000000000        0x6 ..\..\..\libs\ble\libbtstack.a(gatt_client.o)
 .data          0x0000000000000000        0x0 ..\..\..\libs\ble\libbtstack.a(att_server.o)
 .bss           0x0000000000000000        0x0 ..\..\..\libs\ble\libbtstack.a(att_server.o)
 .data          0x0000000000000000        0x0 ..\..\..\libs\ble\libbtstack.a(att_dispatch.o)
 .bss           0x0000000000000000        0x0 ..\..\..\libs\ble\libbtstack.a(att_dispatch.o)
 .data          0x0000000000000000        0x0 ..\..\..\libs\ble\libbtstack.a(att_db.o)
 .bss           0x0000000000000000        0x0 ..\..\..\libs\ble\libbtstack.a(att_db.o)
 .text.att.dump
                0x0000000000000000       0x5c ..\..\..\libs\ble\libbtstack.a(att_db.o)
 .text.gatt.get_client_config
                0x0000000000000000      0x122 ..\..\..\libs\ble\libbtstack.a(att_db.o)
 .data          0x0000000000000000        0x0 ..\..\..\libs\ble\libbtstack.a(btstack_api.o)
 .bss           0x0000000000000000        0xe ..\..\..\libs\ble\libbtstack.a(btstack_api.o)
 .text          0x0000000000000000       0x28 ..\..\..\libs\ble\libbtstack.a(bt_api.o)
 .data          0x0000000000000000        0x0 ..\..\..\libs\ble\libbtstack.a(bt_api.o)
 .bss           0x0000000000000000        0x0 ..\..\..\libs\ble\libbtstack.a(bt_api.o)
 .com_text.bt.timer
                0x0000000000000000       0x10 ..\..\..\libs\ble\libbtstack.a(bt_api.o)
 .text          0x0000000000000000        0x4 ..\..\..\libs\ble\libbtstack.a(ble_api.o)
 .data          0x0000000000000000        0x0 ..\..\..\libs\ble\libbtstack.a(ble_api.o)
 .bss           0x0000000000000000        0x0 ..\..\..\libs\ble\libbtstack.a(ble_api.o)
 .text.ble.api.max_mtu
                0x0000000000000000       0x2e ..\..\..\libs\ble\libbtstack.a(ble_api.o)
 .text.ble.api.adv_dis
                0x0000000000000000        0xa ..\..\..\libs\ble\libbtstack.a(ble_api.o)
 .text.ble.api.adv_en
                0x0000000000000000        0xa ..\..\..\libs\ble\libbtstack.a(ble_api.o)
 .text.ble.api.adv_is_en
                0x0000000000000000        0x8 ..\..\..\libs\ble\libbtstack.a(ble_api.o)
 .text.ble.api.ext_adv_dis
                0x0000000000000000        0x2 ..\..\..\libs\ble\libbtstack.a(ble_api.o)
 .text.ble.api.ext_adv_en
                0x0000000000000000        0x2 ..\..\..\libs\ble\libbtstack.a(ble_api.o)
 .text.ble.api.discon
                0x0000000000000000        0xe ..\..\..\libs\ble\libbtstack.a(ble_api.o)
 .text.ble.api.adv_data.set
                0x0000000000000000       0x44 ..\..\..\libs\ble\libbtstack.a(ble_api.o)
 .text.ble.api.scan
                0x0000000000000000       0x44 ..\..\..\libs\ble\libbtstack.a(ble_api.o)
 .text.ble.api.conn.update2
                0x0000000000000000        0xa ..\..\..\libs\ble\libbtstack.a(ble_api.o)
 .text.ble.api.conn.ll_update
                0x0000000000000000        0xa ..\..\..\libs\ble\libbtstack.a(ble_api.o)
 .text.ble.adv_param.get
                0x0000000000000000        0xa ..\..\..\libs\ble\libbtstack.a(ble_api.o)
 .text.ble.api.ext_adv_param.set
                0x0000000000000000        0x4 ..\..\..\libs\ble\libbtstack.a(ble_api.o)
 .text.ble.api.scan.dis
                0x0000000000000000        0x2 ..\..\..\libs\ble\libbtstack.a(ble_api.o)
 .text.ble.api.scan.en
                0x0000000000000000        0x2 ..\..\..\libs\ble\libbtstack.a(ble_api.o)
 .text.ble.api.scan.set
                0x0000000000000000        0x4 ..\..\..\libs\ble\libbtstack.a(ble_api.o)
 .text.ble.api.ext_scan.set
                0x0000000000000000        0x4 ..\..\..\libs\ble\libbtstack.a(ble_api.o)
 .text.ble.api.ext_conn_do
                0x0000000000000000        0x4 ..\..\..\libs\ble\libbtstack.a(ble_api.o)
 .text.ble.api.conn_do
                0x0000000000000000        0x4 ..\..\..\libs\ble\libbtstack.a(ble_api.o)
 .text.ble.api.conn_cancel_do
                0x0000000000000000        0x2 ..\..\..\libs\ble\libbtstack.a(ble_api.o)
 .text.ble.api.rpa
                0x0000000000000000        0x2 ..\..\..\libs\ble\libbtstack.a(ble_api.o)
 .text.ble.api.rpa_en
                0x0000000000000000        0x2 ..\..\..\libs\ble\libbtstack.a(ble_api.o)
 .text.ble.api.rpa_add
                0x0000000000000000        0x2 ..\..\..\libs\ble\libbtstack.a(ble_api.o)
 .text.ble.api.rpa_dev
                0x0000000000000000        0x2 ..\..\..\libs\ble\libbtstack.a(ble_api.o)
 .text.ble.api.wlist_add
                0x0000000000000000        0x2 ..\..\..\libs\ble\libbtstack.a(ble_api.o)
 .text.ble.api.wlist_dev
                0x0000000000000000        0x2 ..\..\..\libs\ble\libbtstack.a(ble_api.o)
 .text.ble.api.wlist
                0x0000000000000000        0x4 ..\..\..\libs\ble\libbtstack.a(ble_api.o)
 .text.ble.api.sm.passkey
                0x0000000000000000       0x2c ..\..\..\libs\ble\libbtstack.a(ble_api.o)
 .text.ble.api.sm_req
                0x0000000000000000        0xe ..\..\..\libs\ble\libbtstack.a(ble_api.o)
 .text.ble.bond.delete_addr
                0x0000000000000000        0x8 ..\..\..\libs\ble\libbtstack.a(ble_api.o)
 .text.ble.bond.delete_index
                0x0000000000000000        0x8 ..\..\..\libs\ble\libbtstack.a(ble_api.o)
 .text.ble.bond.delete_all
                0x0000000000000000        0x8 ..\..\..\libs\ble\libbtstack.a(ble_api.o)
 .text.ble.bond.get_cnt
                0x0000000000000000       0x1c ..\..\..\libs\ble\libbtstack.a(ble_api.o)
 .text.ble.bond.get_info
                0x0000000000000000       0x10 ..\..\..\libs\ble\libbtstack.a(ble_api.o)
 .text.ble.api.get_rssi
                0x0000000000000000        0x8 ..\..\..\libs\ble\libbtstack.a(ble_api.o)
 .text.ble.set_static_addr
                0x0000000000000000       0x2e ..\..\..\libs\ble\libbtstack.a(ble_api.o)
 .text.ble.addr_update
                0x0000000000000000        0xa ..\..\..\libs\ble\libbtstack.a(ble_api.o)
 .text.ble.addr_get
                0x0000000000000000        0xc ..\..\..\libs\ble\libbtstack.a(ble_api.o)
 .text.ble_fcc.cfg
                0x0000000000000000       0x32 ..\..\..\libs\ble\libbtstack.a(ble_api.o)
 .data          0x0000000000000000        0x0 ..\..\..\libs\ble\libbtstack.a(rf.o)
 .bss           0x0000000000000000        0x0 ..\..\..\libs\ble\libbtstack.a(rf.o)
 .com_text.bb.rf.isr
                0x0000000000000000       0x14 ..\..\..\libs\ble\libbtstack.a(rf.o)
 .data          0x0000000000000000        0x0 ..\..\..\libs\ble\libbtstack.a(ble_con.o)
 .bss           0x0000000000000000        0x0 ..\..\..\libs\ble\libbtstack.a(ble_con.o)
 .com_rodata.bb.tbl
                0x0000000000000000       0x10 ..\..\..\libs\ble\libbtstack.a(ble_con.o)
 .text          0x0000000000000000       0x3e ..\..\..\libs\ble\libbtstack.a(bb_utils.o)
 .data          0x0000000000000000        0x0 ..\..\..\libs\ble\libbtstack.a(bb_utils.o)
 .bss           0x0000000000000000        0x0 ..\..\..\libs\ble\libbtstack.a(bb_utils.o)
 .srodata       0x0000000000000000        0x5 ..\..\..\libs\ble\libbtstack.a(bb_utils.o)
 .data          0x0000000000000000        0x0 ..\..\..\libs\ble\libbtstack.a(bb_int.o)
 .bss           0x0000000000000000        0x0 ..\..\..\libs\ble\libbtstack.a(bb_int.o)
 .text.bb.timer.init
                0x0000000000000000       0x34 ..\..\..\libs\ble\libbtstack.a(bb_int.o)
 .text.bb.timer.start
                0x0000000000000000       0x7a ..\..\..\libs\ble\libbtstack.a(bb_int.o)
 .text.bb.timer.stop
                0x0000000000000000       0x5e ..\..\..\libs\ble\libbtstack.a(bb_int.o)
 .text.bb.timer.acquire
                0x0000000000000000       0x7c ..\..\..\libs\ble\libbtstack.a(bb_int.o)
 .text.bb.timer.release
                0x0000000000000000       0x3c ..\..\..\libs\ble\libbtstack.a(bb_int.o)
 .com_text.bb.timer.query
                0x0000000000000000       0xac ..\..\..\libs\ble\libbtstack.a(bb_int.o)
 .com_text.bb.timer.modify
                0x0000000000000000       0x9e ..\..\..\libs\ble\libbtstack.a(bb_int.o)
 .com_text.bb.hs_get
                0x0000000000000000       0x22 ..\..\..\libs\ble\libbtstack.a(bb_int.o)
 .data          0x0000000000000000        0x0 ..\..\..\libs\ble\libbtstack.a(bb.o)
 .bss           0x0000000000000000        0x0 ..\..\..\libs\ble\libbtstack.a(bb.o)
 .com_text.bb.isr
                0x0000000000000000       0x16 ..\..\..\libs\ble\libbtstack.a(bb.o)
 .text          0x0000000000000000        0x0 ..\..\..\libs\ble\libbtstack.a(platform.o)
 .data          0x0000000000000000        0x0 ..\..\..\libs\ble\libbtstack.a(platform.o)
 .bss           0x0000000000000000        0x0 ..\..\..\libs\ble\libbtstack.a(platform.o)
 .com_text.cpu.sfr
                0x0000000000000000       0x3c ..\..\..\libs\ble\libbtstack.a(platform.o)
 .data          0x0000000000000000        0x0 ..\..\..\libs\ble\libbtstack.a(extern_ble.o)
 .bss           0x0000000000000000        0x0 ..\..\..\libs\ble\libbtstack.a(extern_ble.o)
 .sbss          0x0000000000000000        0x3 ..\..\..\libs\ble\libbtstack.a(extern_ble.o)
 .srodata       0x0000000000000000        0x1 ..\..\..\libs\ble\libbtstack.a(extern_ble.o)
 .text          0x0000000000000000        0x0 ..\..\..\libs\ble\libbtstack.a(extern.o)
 .data          0x0000000000000000        0x0 ..\..\..\libs\ble\libbtstack.a(extern.o)
 .bss           0x0000000000000000        0x0 ..\..\..\libs\ble\libbtstack.a(extern.o)
 .data          0x0000000000000000        0x0 ..\..\..\libs\ble\libbtstack.a(l2cap.o)
 .bss           0x0000000000000000        0x0 ..\..\..\libs\ble\libbtstack.a(l2cap.o)
 .text.l2cap.mtu_max
                0x0000000000000000        0x6 ..\..\..\libs\ble\libbtstack.a(l2cap.o)
 .text.l2cap.mtu_set
                0x0000000000000000       0x12 ..\..\..\libs\ble\libbtstack.a(l2cap.o)
 .text          0x0000000000000000       0x18 ..\..\..\libs\ble\libbtstack.a(hci_dump.o)
 .data          0x0000000000000000        0xc ..\..\..\libs\ble\libbtstack.a(hci_dump.o)
 .bss           0x0000000000000000        0x0 ..\..\..\libs\ble\libbtstack.a(hci_dump.o)
 .rodata.str1.4
                0x0000000000000000       0x12 ..\..\..\libs\ble\libbtstack.a(hci_dump.o)
 .text.stack.util
                0x0000000000000000       0x82 ..\..\..\libs\ble\libbtstack.a(hci_dump.o)
 .text          0x0000000000000000        0x0 ..\..\..\libs\ble\libbtstack.a(hci_cmd.o)
 .data          0x0000000000000000        0x0 ..\..\..\libs\ble\libbtstack.a(hci_cmd.o)
 .bss           0x0000000000000000        0x0 ..\..\..\libs\ble\libbtstack.a(hci_cmd.o)
 .com_rodata.btstakc.hci
                0x0000000000000000        0x8 ..\..\..\libs\ble\libbtstack.a(hci_cmd.o)
 .rodata.stack.hci_send.ch
                0x0000000000000000        0x8 ..\..\..\libs\ble\libbtstack.a(hci_cmd.o)
 .rodata.stack.hci_send.chm
                0x0000000000000000        0x8 ..\..\..\libs\ble\libbtstack.a(hci_cmd.o)
 .rodata.stack.hci_send.featrue
                0x0000000000000000        0x8 ..\..\..\libs\ble\libbtstack.a(hci_cmd.o)
 .rodata.stack.hci_send.len
                0x0000000000000000       0x10 ..\..\..\libs\ble\libbtstack.a(hci_cmd.o)
 .rodata.stack.hci_send.read_sugg_len
                0x0000000000000000        0x8 ..\..\..\libs\ble\libbtstack.a(hci_cmd.o)
 .rodata.stack.hci_send.rx_test
                0x0000000000000000        0x8 ..\..\..\libs\ble\libbtstack.a(hci_cmd.o)
 .rodata.stack.hci_send.set_len
                0x0000000000000000        0x8 ..\..\..\libs\ble\libbtstack.a(hci_cmd.o)
 .rodata.stack.hci_send.sup_sta
                0x0000000000000000        0x8 ..\..\..\libs\ble\libbtstack.a(hci_cmd.o)
 .rodata.stack.hci_send.test_end
                0x0000000000000000        0x8 ..\..\..\libs\ble\libbtstack.a(hci_cmd.o)
 .rodata.stack.hci_send.tx_test
                0x0000000000000000        0x8 ..\..\..\libs\ble\libbtstack.a(hci_cmd.o)
 .srodata       0x0000000000000000        0x8 ..\..\..\libs\ble\libbtstack.a(hci_cmd.o)
 .data          0x0000000000000000        0x0 ..\..\..\libs\ble\libbtstack.a(hci.o)
 .bss           0x0000000000000000        0x0 ..\..\..\libs\ble\libbtstack.a(hci.o)
 .text.hci.adv.is_enable
                0x0000000000000000       0x18 ..\..\..\libs\ble\libbtstack.a(hci.o)
 .data          0x0000000000000000        0x0 ..\..\..\libs\ble\libbtstack.a(btstack_util.o)
 .bss           0x0000000000000000        0x0 ..\..\..\libs\ble\libbtstack.a(btstack_util.o)
 .data          0x0000000000000000        0x0 ..\..\..\libs\ble\libbtstack.a(btstack_run_loop.o)
 .bss           0x0000000000000000        0x0 ..\..\..\libs\ble\libbtstack.a(btstack_run_loop.o)
 .com_text.stack.api
                0x0000000000000000        0xc ..\..\..\libs\ble\libbtstack.a(btstack_run_loop.o)
 .data          0x0000000000000000        0x0 ..\..\..\libs\ble\libbtstack.a(btstack_memory.o)
 .text.stack.memory
                0x0000000000000000       0x12 ..\..\..\libs\ble\libbtstack.a(btstack_memory.o)
 .text          0x0000000000000000        0x4 ..\..\..\libs\ble\libbtstack.a(btstack_linked_list.o)
 .data          0x0000000000000000        0x0 ..\..\..\libs\ble\libbtstack.a(btstack_linked_list.o)
 .bss           0x0000000000000000        0x0 ..\..\..\libs\ble\libbtstack.a(btstack_linked_list.o)
 .text          0x0000000000000000      0x274 ..\..\..\libs\ble\libbtstack.a(ad_parser.o)
 .data          0x0000000000000000        0x0 ..\..\..\libs\ble\libbtstack.a(ad_parser.o)
 .bss           0x0000000000000000        0x0 ..\..\..\libs\ble\libbtstack.a(ad_parser.o)
 .data          0x0000000000000000        0x0 ..\..\..\libs\ble\libbtstack.a(hci_transport_hcic.o)
 .bss           0x0000000000000000        0x0 ..\..\..\libs\ble\libbtstack.a(hci_transport_hcic.o)
 .text          0x0000000000000000       0x48 ..\..\..\libs\ble\libbtstack.a(hci_transport_h3_controller.o)
 .data          0x0000000000000000        0x0 ..\..\..\libs\ble\libbtstack.a(hci_transport_h3_controller.o)
 .bss           0x0000000000000000       0x20 ..\..\..\libs\ble\libbtstack.a(hci_transport_h3_controller.o)
 .text.stack.h3c
                0x0000000000000000      0x1ac ..\..\..\libs\ble\libbtstack.a(hci_transport_h3_controller.o)
 .com_text.stack.h3c
                0x0000000000000000       0x48 ..\..\..\libs\ble\libbtstack.a(hci_transport_h3_controller.o)
 .rodata.str1.4
                0x0000000000000000       0x16 ..\..\..\libs\ble\libbtstack.a(hci_transport_h3_controller.o)
 .com_text.stack.util
                0x0000000000000000      0x12e ..\..\..\libs\ble\libbtstack.a(hci_transport_h3_controller.o)
 .text.btstack.hci.h3c.init
                0x0000000000000000       0x12 ..\..\..\libs\ble\libbtstack.a(hci_transport_h3_controller.o)
 .rodata        0x0000000000000000       0x20 ..\..\..\libs\ble\libbtstack.a(hci_transport_h3_controller.o)
 .com_rodata.stack.h3
                0x0000000000000000        0x2 ..\..\..\libs\ble\libbtstack.a(hci_transport_h3_controller.o)
 .hci.h3.huart  0x0000000000000000      0x408 ..\..\..\libs\ble\libbtstack.a(hci_transport_h3_controller.o)
 .sbss          0x0000000000000000       0x1c ..\..\..\libs\ble\libbtstack.a(hci_transport_h3_controller.o)
 .data          0x0000000000000000        0x0 ..\..\..\libs\ble\libbtstack.a(hci_transport_dummy.o)
 .bss           0x0000000000000000        0x0 ..\..\..\libs\ble\libbtstack.a(hci_transport_dummy.o)
 .data          0x0000000000000000        0x0 ..\..\..\libs\ble\libbtstack.a(btstack_main.o)
 .bss           0x0000000000000000        0x0 ..\..\..\libs\ble\libbtstack.a(btstack_main.o)
 .data          0x0000000000000000        0x0 ..\..\..\libs\ble\libbtstack.a(btstack_hal.o)
 .bss           0x0000000000000000        0x0 ..\..\..\libs\ble\libbtstack.a(btstack_hal.o)
 .com_text.stack.uart_isr
                0x0000000000000000       0x6c ..\..\..\libs\ble\libbtstack.a(btstack_hal.o)
 .text.stack.hal
                0x0000000000000000       0xa4 ..\..\..\libs\ble\libbtstack.a(btstack_hal.o)
 .com_text.stack.util
                0x0000000000000000       0x12 ..\..\..\libs\ble\libbtstack.a(btstack_hal.o)
 .sbss          0x0000000000000000        0x8 ..\..\..\libs\ble\libbtstack.a(btstack_hal.o)
 .data          0x0000000000000000        0x0 ..\..\..\libs\ble\libbtstack.a(nanos.o)
 .bss           0x0000000000000000        0x0 ..\..\..\libs\ble\libbtstack.a(nanos.o)
 .com_text.md.nanos.ms
                0x0000000000000000       0x3c ..\..\..\libs\ble\libbtstack.a(nanos.o)
 .data          0x0000000000000000        0x0 ..\..\..\libs\ble\libbtstack.a(bb_sche.o)
 .data          0x0000000000000000        0x0 ..\..\..\libs\ble\libbtstack.a(patch.o)
 .bss           0x0000000000000000        0x0 ..\..\..\libs\ble\libbtstack.a(patch.o)
 .text          0x0000000000000000        0x0 ..\..\..\libs\ble\libbtstack.a(bb_dbg.o)
 .data          0x0000000000000000        0x0 ..\..\..\libs\ble\libbtstack.a(bb_dbg.o)
 .bss           0x0000000000000000        0x0 ..\..\..\libs\ble\libbtstack.a(bb_dbg.o)
 .com_text.spi_init
                0x0000000000000000       0x6c ..\..\..\libs\ble\libbtstack.a(bb_dbg.o)
 .com_text.bb.putc
                0x0000000000000000       0x64 ..\..\..\libs\ble\libbtstack.a(bb_dbg.o)
 .data          0x0000000000000000        0x0 ..\..\..\libs\ble\libbtstack.a(bb_clk.o)
 .bss           0x0000000000000000        0x0 ..\..\..\libs\ble\libbtstack.a(bb_clk.o)
 .text          0x0000000000000000        0x0 ..\..\..\libs\ble\libbtstack.a(aes.o)
 .data          0x0000000000000000        0x0 ..\..\..\libs\ble\libbtstack.a(aes.o)
 .data          0x0000000000000000        0x0 ..\..\..\libs\ble\libbtstack.a(extern.o)
 .bss           0x0000000000000000        0x0 ..\..\..\libs\ble\libbtstack.a(extern.o)
 .text.bsp.param
                0x0000000000000000        0x2 ..\..\..\libs\ble\libbtstack.a(extern.o)
 .com_sleep.sleep
                0x0000000000000000        0x2 ..\..\..\libs\ble\libbtstack.a(extern.o)
 .com_text.ble.phy
                0x0000000000000000        0x4 ..\..\..\libs\ble\libbtstack.a(extern.o)
 .data          0x0000000000000000        0x0 ..\..\..\libs\ble\libbtstack.a(vs.o)
 .bss           0x0000000000000000        0x0 ..\..\..\libs\ble\libbtstack.a(vs.o)
 .data          0x0000000000000000        0x0 ..\..\..\libs\ble\libbtstack.a(rf_xbox.o)
 .bss           0x0000000000000000        0x0 ..\..\..\libs\ble\libbtstack.a(rf_xbox.o)
 .text.rf.tx_pwr.set
                0x0000000000000000       0xea ..\..\..\libs\ble\libbtstack.a(rf_xbox.o)
 .text.bb.phy.rx
                0x0000000000000000       0x3e ..\..\..\libs\ble\libbtstack.a(rf_xbox.o)
 .text.rf.vddvco.set
                0x0000000000000000       0x18 ..\..\..\libs\ble\libbtstack.a(rf_xbox.o)
 .text.rf.vddvco.get
                0x0000000000000000        0xa ..\..\..\libs\ble\libbtstack.a(rf_xbox.o)
 .text.rf.pll.set
                0x0000000000000000       0x12 ..\..\..\libs\ble\libbtstack.a(rf_xbox.o)
 .text.rf.tx_pwr.set_2
                0x0000000000000000        0x8 ..\..\..\libs\ble\libbtstack.a(rf_xbox.o)
 .data          0x0000000000000000        0x0 ..\..\..\libs\ble\libbtstack.a(complex.o)
 .bss           0x0000000000000000        0x0 ..\..\..\libs\ble\libbtstack.a(complex.o)
 .data          0x0000000000000000        0x0 ..\..\..\libs\ble\libbtstack.a(ble_hook.o)
 .bss           0x0000000000000000        0x0 ..\..\..\libs\ble\libbtstack.a(ble_hook.o)
 .data          0x0000000000000000        0x0 ..\..\..\libs\ble\libbtstack.a(hct_tl.o)
 .data          0x0000000000000000        0x0 ..\..\..\libs\ble\libbtstack.a(hct_msg.o)
 .bss           0x0000000000000000        0x0 ..\..\..\libs\ble\libbtstack.a(hct_msg.o)
 .data          0x0000000000000000        0x0 ..\..\..\libs\ble\libbtstack.a(hct.o)
 .bss           0x0000000000000000        0x0 ..\..\..\libs\ble\libbtstack.a(hct.o)
 .data          0x0000000000000000        0x0 ..\..\..\libs\ble\libbtstack.a(mgr_hci.o)
 .bss           0x0000000000000000        0x0 ..\..\..\libs\ble\libbtstack.a(mgr_hci.o)
 .data          0x0000000000000000        0x0 ..\..\..\libs\ble\libbtstack.a(mgr.o)
 .bss           0x0000000000000000        0x0 ..\..\..\libs\ble\libbtstack.a(mgr.o)
 .data          0x0000000000000000        0x0 ..\..\..\libs\ble\libbtstack.a(ll_adv.o)
 .bss           0x0000000000000000        0x0 ..\..\..\libs\ble\libbtstack.a(ll_adv.o)
 .data          0x0000000000000000        0x0 ..\..\..\libs\ble\libbtstack.a(ll_tbox_freq_cal.o)
 .data          0x0000000000000000        0x0 ..\..\..\libs\ble\libbtstack.a(ll_con_upd.o)
 .bss           0x0000000000000000        0x0 ..\..\..\libs\ble\libbtstack.a(ll_con_upd.o)
 .data          0x0000000000000000        0x0 ..\..\..\libs\ble\libbtstack.a(ll_cntl.o)
 .bss           0x0000000000000000        0x0 ..\..\..\libs\ble\libbtstack.a(ll_cntl.o)
 .text          0x0000000000000000        0x0 ..\..\..\libs\ble\libbtstack.a(ll_clk_acc.o)
 .data          0x0000000000000000        0x0 ..\..\..\libs\ble\libbtstack.a(ll_clk_acc.o)
 .bss           0x0000000000000000        0x0 ..\..\..\libs\ble\libbtstack.a(ll_clk_acc.o)
 .data          0x0000000000000000        0x0 ..\..\..\libs\ble\libbtstack.a(ll_chmap_upd.o)
 .bss           0x0000000000000000        0x0 ..\..\..\libs\ble\libbtstack.a(ll_chmap_upd.o)
 .text          0x0000000000000000        0x0 ..\..\..\libs\ble\libbtstack.a(ll.o)
 .data          0x0000000000000000        0x0 ..\..\..\libs\ble\libbtstack.a(ll.o)
 .bss           0x0000000000000000        0x0 ..\..\..\libs\ble\libbtstack.a(ll.o)
 .data          0x0000000000000000        0x0 ..\..\..\libs\ble\libbtstack.a(ble_hal.o)
 .bss           0x0000000000000000        0x0 ..\..\..\libs\ble\libbtstack.a(ble_hal.o)
 .data          0x0000000000000000        0x0 ..\..\..\libs\ble\libbtstack.a(ble_adv.o)
 .bss           0x0000000000000000        0x0 ..\..\..\libs\ble\libbtstack.a(ble_adv.o)
 .data          0x0000000000000000        0x0 ..\..\..\libs\ble\libbtstack.a(ble_buf.o)
 .data          0x0000000000000000        0x0 ..\..\..\libs\ble\libbtstack.a(ble.o)
 .bss           0x0000000000000000        0x0 ..\..\..\libs\ble\libbtstack.a(ble.o)
 .text          0x0000000000000000        0x0 ..\..\..\libs\ble\libbtstack.a(bb_sleep.o)
 .data          0x0000000000000000        0x0 ..\..\..\libs\ble\libbtstack.a(bb_sleep.o)
 .bss           0x0000000000000000        0x0 ..\..\..\libs\ble\libbtstack.a(bb_sleep.o)
 .text          0x0000000000000000        0x0 ..\..\..\libs\ble\libbtstack.a(periph.o)
 .data          0x0000000000000000        0x0 ..\..\..\libs\ble\libbtstack.a(periph.o)
 .bss           0x0000000000000000        0x0 ..\..\..\libs\ble\libbtstack.a(periph.o)
 .text.huart    0x0000000000000000        0x4 ..\..\..\libs\ble\libbtstack.a(periph.o)
 .com_text.huart
                0x0000000000000000       0x10 ..\..\..\libs\ble\libbtstack.a(periph.o)
 .comment       0x0000000000000000       0x13 ..\..\..\libs\ble\libbtstack.a(periph.o)
 .riscv.attributes
                0x0000000000000000       0x32 ..\..\..\libs\ble\libbtstack.a(periph.o)
 .text          0x0000000000000000        0x0 ..\..\..\libs\ble\libbtstack.a(l2cap_signaling.o)
 .data          0x0000000000000000        0x0 ..\..\..\libs\ble\libbtstack.a(l2cap_signaling.o)
 .bss           0x0000000000000000        0x0 ..\..\..\libs\ble\libbtstack.a(l2cap_signaling.o)
 .text          0x0000000000000000        0x0 ..\..\..\libs\ble\libbtstack.a(btstack_memory_pool.o)
 .data          0x0000000000000000        0x0 ..\..\..\libs\ble\libbtstack.a(btstack_memory_pool.o)
 .bss           0x0000000000000000        0x0 ..\..\..\libs\ble\libbtstack.a(btstack_memory_pool.o)
 .text          0x0000000000000000        0x0 ..\..\..\libs\ble\libbtstack.a(patch_asm.o)
 .data          0x0000000000000000        0x0 ..\..\..\libs\ble\libbtstack.a(patch_asm.o)
 .bss           0x0000000000000000        0x0 ..\..\..\libs\ble\libbtstack.a(patch_asm.o)
 .text          0x0000000000000000        0x0 ..\..\..\libs\ble\libbtstack.a(platform.o)
 .data          0x0000000000000000        0x0 ..\..\..\libs\ble\libbtstack.a(platform.o)
 .bss           0x0000000000000000        0x0 ..\..\..\libs\ble\libbtstack.a(platform.o)
 .com_text.bb.dbg.bt21
                0x0000000000000000        0x4 ..\..\..\libs\ble\libbtstack.a(platform.o)
 .com_text.bb.utils.dummy
                0x0000000000000000        0x6 ..\..\..\libs\ble\libbtstack.a(platform.o)
 .data          0x0000000000000000        0x0 ..\..\..\libs\ble\libbtstack.a(vs_proc.o)
 .bss           0x0000000000000000        0x0 ..\..\..\libs\ble\libbtstack.a(vs_proc.o)
 .text          0x0000000000000000        0x0 ..\..\..\libs\ble\libbtstack.a(vs_fcc.o)
 .data          0x0000000000000000        0x0 ..\..\..\libs\ble\libbtstack.a(vs_fcc.o)
 .bss           0x0000000000000000        0x0 ..\..\..\libs\ble\libbtstack.a(vs_fcc.o)
 .data          0x0000000000000000        0x0 ..\..\..\libs\ble\libbtstack.a(adv_hook.o)
 .bss           0x0000000000000000        0x0 ..\..\..\libs\ble\libbtstack.a(adv_hook.o)
 .data          0x0000000000000000        0x0 ..\..\..\libs\ble\libbtstack.a(mgr_test.o)
 .bss           0x0000000000000000        0x0 ..\..\..\libs\ble\libbtstack.a(mgr_test.o)
 .data          0x0000000000000000        0x0 ..\..\..\libs\ble\libbtstack.a(mgr_proc.o)
 .bss           0x0000000000000000        0x0 ..\..\..\libs\ble\libbtstack.a(mgr_proc.o)
 .data          0x0000000000000000        0x0 ..\..\..\libs\ble\libbtstack.a(ll_version.o)
 .bss           0x0000000000000000        0x0 ..\..\..\libs\ble\libbtstack.a(ll_version.o)
 .data          0x0000000000000000        0x0 ..\..\..\libs\ble\libbtstack.a(ll_tbox_prod_test.o)
 .bss           0x0000000000000000        0x0 ..\..\..\libs\ble\libbtstack.a(ll_tbox_prod_test.o)
 .data          0x0000000000000000        0x0 ..\..\..\libs\ble\libbtstack.a(ll_tbox_feature.o)
 .bss           0x0000000000000000        0x0 ..\..\..\libs\ble\libbtstack.a(ll_tbox_feature.o)
 .data          0x0000000000000000        0x0 ..\..\..\libs\ble\libbtstack.a(ll_proc.o)
 .bss           0x0000000000000000        0x0 ..\..\..\libs\ble\libbtstack.a(ll_proc.o)
 .data          0x0000000000000000        0x0 ..\..\..\libs\ble\libbtstack.a(ll_ping.o)
 .bss           0x0000000000000000        0x0 ..\..\..\libs\ble\libbtstack.a(ll_ping.o)
 .data          0x0000000000000000        0x0 ..\..\..\libs\ble\libbtstack.a(ll_phy_upd.o)
 .bss           0x0000000000000000        0x0 ..\..\..\libs\ble\libbtstack.a(ll_phy_upd.o)
 .data          0x0000000000000000        0x0 ..\..\..\libs\ble\libbtstack.a(ll_length.o)
 .bss           0x0000000000000000        0x0 ..\..\..\libs\ble\libbtstack.a(ll_length.o)
 .data          0x0000000000000000        0x0 ..\..\..\libs\ble\libbtstack.a(ll_feature.o)
 .bss           0x0000000000000000        0x0 ..\..\..\libs\ble\libbtstack.a(ll_feature.o)
 .data          0x0000000000000000        0x0 ..\..\..\libs\ble\libbtstack.a(ll_encrypt.o)
 .bss           0x0000000000000000        0x0 ..\..\..\libs\ble\libbtstack.a(ll_encrypt.o)
 .data          0x0000000000000000        0x0 ..\..\..\libs\ble\libbtstack.a(ll_disconnect.o)
 .bss           0x0000000000000000        0x0 ..\..\..\libs\ble\libbtstack.a(ll_disconnect.o)
 .data          0x0000000000000000        0x0 ..\..\..\libs\ble\libbtstack.a(ble_test.o)
 .bss           0x0000000000000000        0x0 ..\..\..\libs\ble\libbtstack.a(ble_test.o)
 .data          0x0000000000000000        0x0 ..\..\..\libs\ble\libbtstack.a(ble_sync.o)
 .bss           0x0000000000000000        0x0 ..\..\..\libs\ble\libbtstack.a(ble_sync.o)
 .data          0x0000000000000000        0x0 ..\..\..\libs\ble\libbtstack.a(ble_scan.o)
 .bss           0x0000000000000000        0x0 ..\..\..\libs\ble\libbtstack.a(ble_scan.o)
 .data          0x0000000000000000        0x0 ..\..\..\libs\ble\libbtstack.a(ble_init.o)
 .bss           0x0000000000000000        0x0 ..\..\..\libs\ble\libbtstack.a(ble_init.o)

Memory Configuration

Name             Origin             Length             Attributes
init             0x0000000010000000 0x0000000000000200
flash            0x0000000010000200 0x000000000003e000 xr
stack            0x0000000000010800 0x0000000000000400
sram             0x0000000000010c00 0x0000000000007400
bram             0x0000000000018000 0x0000000000008000
*default*        0x0000000000000000 0xffffffffffffffff

Linker script and memory map

LOAD Output\obj\driver\driver_charge.o
LOAD Output\obj\driver\driver_clk.o
LOAD Output\obj\driver\driver_gpio.o
LOAD Output\obj\driver\driver_hsuart.o
LOAD Output\obj\driver\driver_lowpwr.o
LOAD Output\obj\driver\driver_saradc.o
LOAD Output\obj\driver\driver_uart.o
LOAD Output\obj\project\solution\ble_hid_composite\app\app_hid_event.o
LOAD Output\obj\project\solution\ble_hid_composite\app\app_hid_selfie.o
LOAD Output\obj\project\solution\ble_hid_composite\app\app_hid_test.o
LOAD Output\obj\project\solution\ble_hid_composite\app\app_hid_tiktok.o
LOAD Output\obj\project\solution\ble_hid_composite\app\func.o
LOAD Output\obj\project\solution\ble_hid_composite\app\func_bt.o
LOAD Output\obj\project\solution\ble_hid_composite\app\func_idle.o
LOAD Output\obj\project\solution\ble_hid_composite\app\func_iodm.o
LOAD Output\obj\project\solution\ble_hid_composite\app\func_le_bqb_rf.o
LOAD Output\obj\project\solution\ble_hid_composite\app\func_le_fcc.o
LOAD Output\obj\project\solution\ble_hid_composite\app\func_lowpwr.o
LOAD Output\obj\project\solution\ble_hid_composite\app\func_tbox.o
LOAD Output\obj\project\solution\ble_hid_composite\app\msg_bt.o
LOAD Output\obj\project\solution\ble_hid_composite\app\msg_idle.o
LOAD Output\obj\project\solution\ble_hid_composite\app\msg_iodm.o
LOAD Output\obj\project\solution\ble_hid_composite\app\msg_le_bqb_rf.o
LOAD Output\obj\project\solution\ble_hid_composite\app\msg_le_fcc.o
LOAD Output\obj\project\solution\ble_hid_composite\app\msg_tbox.o
LOAD Output\obj\project\solution\ble_hid_composite\ble\ble_battery_service.o
LOAD Output\obj\project\solution\ble_hid_composite\ble\ble_client.o
LOAD Output\obj\project\solution\ble_hid_composite\ble\ble_fota_service.o
LOAD Output\obj\project\solution\ble_hid_composite\ble\ble_hid_service.o
LOAD Output\obj\project\solution\ble_hid_composite\ble\ble_init.o
LOAD Output\obj\project\solution\ble_hid_composite\ble\ble_proc.o
LOAD Output\obj\project\solution\ble_hid_composite\ble\ble_service.o
LOAD Output\obj\project\solution\ble_hid_composite\ble\ble_user_service.o
LOAD Output\obj\project\solution\ble_hid_composite\bsp\bsp_charge.o
LOAD Output\obj\project\solution\ble_hid_composite\bsp\bsp_huart.o
LOAD Output\obj\project\solution\ble_hid_composite\bsp\bsp_huart_iodm.o
LOAD Output\obj\project\solution\ble_hid_composite\bsp\bsp_io_key.o
LOAD Output\obj\project\solution\ble_hid_composite\bsp\bsp_key.o
LOAD Output\obj\project\solution\ble_hid_composite\bsp\bsp_param.o
LOAD Output\obj\project\solution\ble_hid_composite\bsp\bsp_saradc.o
LOAD Output\obj\project\solution\ble_hid_composite\bsp\bsp_saradc_key.o
LOAD Output\obj\project\solution\ble_hid_composite\bsp\bsp_saradc_vbat.o
LOAD Output\obj\project\solution\ble_hid_composite\bsp\bsp_sys.o
LOAD Output\obj\project\solution\ble_hid_composite\bsp\bsp_uart_debug.o
LOAD Output\obj\project\solution\ble_hid_composite\main.o
LOAD Output\obj\project\solution\ble_hid_composite\production_test\iodm\prod_test_iodm.o
LOAD Output\obj\project\solution\ble_hid_composite\production_test\prod_test.o
LOAD Output\obj\project\solution\ble_hid_composite\production_test\tbox\prod_test_tbox.o
LOAD Output\obj\project\solution\ble_hid_composite\production_test\tbox\tbox_key.o
LOAD Output\obj\project\solution\ble_hid_composite\production_test\tbox\tbox_voice.o
LOAD Output\obj\project\solution\ble_hid_composite\production_test\tbox\tbox_voice_sdadc.o
LOAD Output\obj\project\solution\ble_hid_composite\strong_symbol.o
                0x000000000003e000                __max_flash_size = 0x3e000
                0x0000000010000000                __base = 0x10000000
                0x0000000000010600                __cache_stack_vma = 0x10600
                0x0000000000000200                __cache_stack_size = 0x200
                0x0000000000010800                __stack_vma = 0x10800
                0x0000000000000400                __stack_ram_size = 0x400
                0x0000000000010c00                __sram_vma = 0x10c00
                0x0000000000007400                __sram_ram_size = 0x7400
                0x0000000000010c00                __comm_vma = __sram_vma
                0x0000000000018000                __bram_vma = 0x18000
                0x0000000000008000                __bram_ram_size = 0x8000

.init           0x0000000010000000       0x4e
 *(.reset)
 .reset         0x0000000010000000       0x4e ..\..\..\libs\cpu\libplatform.a(reset.o)
                0x0000000010000000                _start

.comm           0x0000000000010c00     0x3200 load address 0x0000000010000200
 *(.vector)
 .vector        0x0000000000010c00      0x19a ..\..\..\libs\cpu\libplatform.a(reset.o)
                0x0000000000010ca0                _exception_isr
                0x0000000000010ca2                nop_isr
 *(.com_text*)
 .com_text.pwroff.mode2
                0x0000000000010d9a      0x13e Output\obj\driver\driver_lowpwr.o
 .com_text.lp_port_init
                0x0000000000010ed8       0x34 Output\obj\driver\driver_lowpwr.o
                0x0000000000010ed8                lp_port_init
 .com_text.pwroff_mode2
                0x0000000000010f0c       0x84 Output\obj\driver\driver_lowpwr.o
                0x0000000000010f0c                lowpwr_pwroff_mode2_do
 .com_text.gpio.isr
                0x0000000000010f90       0x2e Output\obj\project\solution\ble_hid_composite\app\func_lowpwr.o
                0x0000000000010f90                gpio_isr_callback
 .com_text.sleep_tick
                0x0000000000010fbe       0x14 Output\obj\project\solution\ble_hid_composite\app\func_lowpwr.o
                0x0000000000010fbe                lowpwr_tout_ticks
 .com_text.fot.update
                0x0000000000010fd2        0xc Output\obj\project\solution\ble_hid_composite\ble\ble_fota_service.o
                0x0000000000010fd2                ble_fota_is_start
 .com_text.key.scan
                0x0000000000010fde       0x64 Output\obj\project\solution\ble_hid_composite\bsp\bsp_io_key.o
                0x0000000000010fde                bsp_get_io_key_id
 .com_text.key.process
                0x0000000000011042       0x9e Output\obj\project\solution\ble_hid_composite\bsp\bsp_key.o
                0x0000000000011042                key_process
 .com_text.key.scan
                0x00000000000110e0       0x3e Output\obj\project\solution\ble_hid_composite\bsp\bsp_key.o
                0x00000000000110e0                bsp_key_scan
 .com_text.timer
                0x000000000001111e       0x56 Output\obj\project\solution\ble_hid_composite\bsp\bsp_sys.o
                0x000000000001111e                usr_tmr5ms_thread_do
 .com_text.spiflash
                0x0000000000011174       0x66 Output\obj\project\solution\ble_hid_composite\strong_symbol.o
                0x0000000000011174                spiflash_data_protect_en
                0x0000000000011178                os_spiflash_addr_check
 .com_text.spiflash.protect.strong
                0x00000000000111da        0x6 Output\obj\project\solution\ble_hid_composite\strong_symbol.o
                0x00000000000111da                os_spiflash_data_protect
                0x00000000000111dc                os_spiflash_data_is_protect
 .com_text.timer
                0x00000000000111e0        0x2 Output\obj\project\solution\ble_hid_composite\strong_symbol.o
                0x00000000000111e0                usr_tmr5ms_thread_callback
 .com_text.ble.phy
                0x00000000000111e2        0x4 Output\obj\project\solution\ble_hid_composite\strong_symbol.o
                0x00000000000111e2                ble_phy_2M_enable
 .com_text.spiflash.dev_id
                0x00000000000111e6       0x34 ..\..\..\libs\cpu\libplatform.a(os_flash.o)
                0x00000000000111e6                os_spiflash_cap_id_get
 .com_text.spiflash.read
                0x000000000001121a       0x30 ..\..\..\libs\cpu\libplatform.a(os_flash.o)
                0x000000000001121a                os_spiflash_read
 .com_text.spiflash
                0x000000000001124a       0xe0 ..\..\..\libs\cpu\libplatform.a(os_flash.o)
                0x000000000001124e                os_spiflash_addr_check_2
                0x0000000000011266                os_spiflash_program
                0x00000000000112b0                os_spiflash_program_2
                0x00000000000112ea                os_spiflash_erase
 .com_text.spiflash.erase_2
                0x000000000001132a       0x50 ..\..\..\libs\cpu\libplatform.a(os_flash.o)
                0x000000000001132a                os_spiflash_erase_2
 .com_text.exception.hook
                0x000000000001137a       0x3e ..\..\..\libs\cpu\libplatform.a(main.o)
                0x000000000001137a                sys_error_hook
 .com_text.exception
                0x00000000000113b8       0x7e ..\..\..\libs\cpu\libplatform.a(main.o)
                0x00000000000113b8                exception_isr
 .com_text.delay
                0x0000000000011436       0x54 ..\..\..\libs\cpu\libplatform.a(main.o)
                0x0000000000011436                delay_5ms
                0x0000000000011450                delay_ms
                0x0000000000011468                delay_us
                0x0000000000011480                delay
 .com_text.irq  0x000000000001148a       0xe2 ..\..\..\libs\cpu\libplatform.a(interrupt.o)
                0x000000000001148a                tick0_isr
                0x00000000000114e8                register_isr
                0x0000000000011522                tick_get
                0x000000000001152a                tick_check_expire
                0x000000000001153c                watch_point_isr
 .com_text.timer
                0x000000000001156c        0xe ..\..\..\libs\cpu\libplatform.a(startup.o)
 .com_text.trim.core_get
                0x000000000001157a        0x8 ..\..\..\libs\cpu\libplatform.a(pmu.o)
                0x000000000001157a                pmu_get_vddcore
 .com_text.trim.lvd_set
                0x0000000000011582       0x2c ..\..\..\libs\cpu\libplatform.a(pmu.o)
                0x0000000000011582                pmu_set_lvd
 .com_text.pmu.flash
                0x00000000000115ae        0xc ..\..\..\libs\cpu\libplatform.a(pmu.o)
                0x00000000000115ae                pmu_vddio_to_flash
 .com_text.irq  0x00000000000115ba       0x52 ..\..\..\libs\cpu\libplatform.a(reset.o)
                0x00000000000115ba                cpu_irq_comm
 .com_text.util.isr
                0x000000000001160c        0x6 ..\..\..\libs\cpu\libplatform.a(reset.o)
                0x000000000001160c                kick_soft_isr
 .com_text.spiflash.delay
                0x0000000000011612        0xc ..\..\..\libs\cpu\libplatform.a(spiflash.o)
                0x0000000000011612                spi_delay
 .com_text.spiflash.get
                0x000000000001161e       0x28 ..\..\..\libs\cpu\libplatform.a(spiflash.o)
                0x000000000001161e                spi_getbyte
 .com_text.spiflash.send
                0x0000000000011646       0x1a ..\..\..\libs\cpu\libplatform.a(spiflash.o)
                0x0000000000011646                spi_sendbyte
 .com_text.spiflash.read
                0x0000000000011660        0x4 ..\..\..\libs\cpu\libplatform.a(spiflash.o)
                0x0000000000011660                spiflash_read
 .com_text.spiflash.program
                0x0000000000011664       0x24 ..\..\..\libs\cpu\libplatform.a(spiflash.o)
                0x0000000000011664                spiflash_program
 .com_text.spiflash.erase
                0x0000000000011688       0x28 ..\..\..\libs\cpu\libplatform.a(spiflash.o)
                0x0000000000011688                spiflash_erase
 .com_text.spiflash.addr.size
                0x00000000000116b0        0x4 ..\..\..\libs\cpu\libplatform.a(spiflash.o)
                0x00000000000116b0                spiflash_addr_4byte
 .com_text.debug
                0x00000000000116b4       0x68 ..\..\..\libs\cpu\libplatform.a(debug.o)
 .com_text.key_return
                0x000000000001171c       0x30 ..\..\..\libs\cpu\libplatform.a(key.o)
                0x000000000001171c                check_key_return
 .com_text.bsp.key
                0x000000000001174c        0xa ..\..\..\libs\cpu\libplatform.a(key.o)
                0x000000000001174c                key_multi_press_process
 .com_text.sys  0x0000000000011756       0x68 ..\..\..\libs\cpu\libplatform.a(s_sys.o)
                0x0000000000011756                s_ff1
                0x000000000001175c                s_fl1
                0x0000000000011762                s_log2
                0x000000000001176a                s_clb
                0x0000000000011770                s_bcnt
                0x0000000000011776                s_ror
                0x000000000001177c                s_swapw
                0x0000000000011782                s_bitrvti
                0x0000000000011788                s_clip16
                0x000000000001178e                s_abs
                0x0000000000011794                mul_r
                0x00000000000117a0                dummy_func
                0x00000000000117a2                __ashrdi3
                0x00000000000117b0                __ashldi3
 .com_text.get.vrtc24_mv
                0x00000000000117be        0x8 ..\..\..\libs\cpu\libplatform.a(voltage_trim.o)
                0x00000000000117be                pmu_get_vrtc24_mv
 .com_text.get.vbatdet
                0x00000000000117c6       0x26 ..\..\..\libs\cpu\libplatform.a(voltage_trim.o)
                0x00000000000117c6                pmu_get_vbatdet
 .com_text.timer
                0x00000000000117ec        0x4 ..\..\..\libs\cpu\libplatform.a(weak_symbol.o)
                0x00000000000117ee                usr_tmr1ms_isr_callback
 .com_text.stack.api
                0x00000000000117f0       0x26 ..\..\..\libs\cpu\libplatform.a(bt.o)
                0x00000000000117f0                bt_send_msg_do
 .com_text.stack.thread
                0x0000000000011816       0x32 ..\..\..\libs\cpu\libplatform.a(bt.o)
                0x0000000000011816                thread_btstack_pend
                0x0000000000011838                thread_btstack_post
 .com_text.stack.run_loop
                0x0000000000011848       0x64 ..\..\..\libs\cpu\libplatform.a(bt.o)
                0x0000000000011848                thread_btstack_entry
 .com_text.txpkt.next
                0x00000000000118ac       0x4e ..\..\..\libs\ble\libbtstack.a(txpkt.o)
                0x00000000000118ac                txpkt_next
 .com_text.txpkt.send
                0x00000000000118fa      0x12a ..\..\..\libs\ble\libbtstack.a(txpkt.o)
                0x00000000000118fa                txpkt_send
 .com_text.stack.send.txpkt
                0x0000000000011a24       0x38 ..\..\..\libs\ble\libbtstack.a(txpkt.o)
                0x0000000000011a24                txpkt_event_send
 .com_text.sm.event
                0x0000000000011a5c       0x62 ..\..\..\libs\ble\libbtstack.a(sm.o)
 .com_text.server.send_req
                0x0000000000011abe       0x12 ..\..\..\libs\ble\libbtstack.a(gatt_server.o)
                0x0000000000011abe                btstack_ble_server_send_req
 .com_text.server.req_can_send
                0x0000000000011ad0       0x18 ..\..\..\libs\ble\libbtstack.a(att_server.o)
                0x0000000000011ad0                att_server_request_can_send_now_event
 .com_text.att.event_handler
                0x0000000000011ae8       0x26 ..\..\..\libs\ble\libbtstack.a(att_server.o)
 .com_text.server.mtu_get
                0x0000000000011b0e       0x1e ..\..\..\libs\ble\libbtstack.a(att_server.o)
                0x0000000000011b0e                att_server_get_mtu
 .com_text.att.dispatch_server
                0x0000000000011b2c        0xc ..\..\..\libs\ble\libbtstack.a(att_dispatch.o)
                0x0000000000011b2c                att_dispatch_server_request_can_send_now_event
 .com_text.stack.api
                0x0000000000011b38       0x80 ..\..\..\libs\ble\libbtstack.a(btstack_api.o)
                0x0000000000011b38                btstack_basic_api
                0x0000000000011b50                btstack_ctl_param_api
                0x0000000000011b72                bt_get_status
                0x0000000000011b7e                btstack_message
 .com_text.ret.bb.sleep
                0x0000000000011bb8       0x22 ..\..\..\libs\ble\libbtstack.a(btstack_api.o)
                0x0000000000011bb8                bt_is_sleep
 .com_text.ble.send_kick
                0x0000000000011bda       0x14 ..\..\..\libs\ble\libbtstack.a(ble_api.o)
                0x0000000000011bda                ble_send_kick
 .com_text.bb.isr
                0x0000000000011bee       0x58 ..\..\..\libs\ble\libbtstack.a(rf.o)
                0x0000000000011bee                rf_rssi_calc_dbm
                0x0000000000011bf8                rf_txpwr_get_lv
                0x0000000000011c34                rf_txpwr_get_dbm
                0x0000000000011c44                rf_agc_enable
 .com_text.bb.rf
                0x0000000000011c46       0x36 ..\..\..\libs\ble\libbtstack.a(rf.o)
                0x0000000000011c46                rf_hal_init
 .com_text.ble.isr.con
                0x0000000000011c7c       0x1e ..\..\..\libs\ble\libbtstack.a(ble_con.o)
 .com_text.ble.isr.con.end
                0x0000000000011c9a       0x8c ..\..\..\libs\ble\libbtstack.a(ble_con.o)
                0x0000000000011c9a                ble_con_rx_end
 .com_text.bb.isr.timer
                0x0000000000011d26       0xa6 ..\..\..\libs\ble\libbtstack.a(bb_int.o)
                0x0000000000011d80                bb_timer_alarm_execute
 .com_text.bb.isr
                0x0000000000011dcc      0x17a ..\..\..\libs\ble\libbtstack.a(bb_int.o)
                0x0000000000011dfe                bb_lpcycles_2_hus
                0x0000000000011e2e                bb_isr
                0x0000000000011f38                bb_hal_isr
 .com_text.bb.sleep
                0x0000000000011f46       0x48 ..\..\..\libs\ble\libbtstack.a(bb_int.o)
                0x0000000000011f46                bb_is_sleep
 .com_text.bb.run_loop
                0x0000000000011f8e       0x32 ..\..\..\libs\ble\libbtstack.a(bb.o)
                0x0000000000011f8e                bb_run_loop
 .com_text.dummy
                0x0000000000011fc0        0x6 ..\..\..\libs\ble\libbtstack.a(platform.o)
                0x0000000000011fc0                dummy_void
                0x0000000000011fc2                dummy_false
 .com_text.stk.l2cap.txreq
                0x0000000000011fc6       0x2e ..\..\..\libs\ble\libbtstack.a(l2cap.o)
                0x0000000000011fc6                l2cap_request_can_send_fix_channel_now_event
 .com_text.stack.l2cap
                0x0000000000011ff4       0x10 ..\..\..\libs\ble\libbtstack.a(l2cap.o)
                0x0000000000011ff4                l2cap_get_outgoing_buffer
                0x0000000000012000                l2cap_reserve_packet_buffer
                0x0000000000012002                l2cap_release_packet_buffer
 .com_text.stack.hci.conn
                0x0000000000012004        0xa ..\..\..\libs\ble\libbtstack.a(hci.o)
                0x0000000000012004                hci_get_connections
 .com_text.stack.linked_list
                0x000000000001200e        0xa ..\..\..\libs\ble\libbtstack.a(hci.o)
                0x000000000001200e                hci_connections_get_iterator
 .com_text.stack.hci
                0x0000000000012018      0x11e ..\..\..\libs\ble\libbtstack.a(hci.o)
                0x0000000000012018                hci_connection_for_handle
                0x000000000001203a                hci_att_connection_for_handle
                0x000000000001204a                hci_number_free_acl_slots_for_handle
                0x0000000000012062                hci_can_send_command_packet_now
                0x0000000000012094                hci_can_send_acl_le_packet_now
                0x00000000000120ca                hci_can_send_prepared_acl_packet_now
                0x00000000000120ea                hci_can_send_acl_packet_now
                0x00000000000120fc                hci_is_packet_buffer_reserved
                0x0000000000012108                hci_reserve_packet_buffer
                0x0000000000012120                hci_release_packet_buffer
                0x000000000001212c                hci_get_outgoing_packet_buffer
 .com_text.stack.hci_recv
                0x0000000000012136        0xe ..\..\..\libs\ble\libbtstack.a(hci.o)
                0x0000000000012136                hci_host_recv_packet
 .com_text.stack.run_loop
                0x0000000000012144       0x76 ..\..\..\libs\ble\libbtstack.a(btstack_run_loop.o)
                0x0000000000012144                btstack_cmp_abs_tick
                0x000000000001214a                btstack_run_loop_execute_once
 .com_text.ret.stack.thread
                0x00000000000121ba        0xc ..\..\..\libs\ble\libbtstack.a(btstack_run_loop.o)
                0x00000000000121ba                btstack_run_loop_embedded_trigger
 .com_text.stack.ticks
                0x00000000000121c6       0x1e ..\..\..\libs\ble\libbtstack.a(btstack_run_loop.o)
 .com_text.bb.nanos.trigger
                0x00000000000121e4        0x2 ..\..\..\libs\ble\libbtstack.a(btstack_run_loop.o)
                0x00000000000121e4                thread_nanos_task_trigger
 .com_text.stack.linked_list
                0x00000000000121e6       0x50 ..\..\..\libs\ble\libbtstack.a(btstack_linked_list.o)
                0x00000000000121e6                btstack_linked_list_empty
                0x00000000000121ee                btstack_linked_list_iterator_init
                0x00000000000121fa                btstack_linked_list_iterator_has_next
                0x0000000000012218                btstack_linked_list_iterator_next
 .com_text.stack.hcic
                0x0000000000012236       0x82 ..\..\..\libs\ble\libbtstack.a(hci_transport_hcic.o)
                0x0000000000012236                hcic_can_send_packet_now
                0x0000000000012244                hcic_recv_packet
 .com_text.hci  0x00000000000122b8        0x4 ..\..\..\libs\ble\libbtstack.a(hci_transport_h3_controller.o)
                0x00000000000122b8                hci_is_sleep
 .com_text.stack.handler
                0x00000000000122bc       0x1e ..\..\..\libs\ble\libbtstack.a(btstack_main.o)
 .com_text.stack.ticks
                0x00000000000122da        0xa ..\..\..\libs\ble\libbtstack.a(btstack_hal.o)
                0x00000000000122dc                sys_tick_handler
 .com_text.isr  0x00000000000122e4       0x20 ..\..\..\libs\ble\libbtstack.a(btstack_hal.o)
                0x00000000000122e4                bt_timer_isr
 .com_text.md.nanos
                0x0000000000012304       0x14 ..\..\..\libs\ble\libbtstack.a(nanos.o)
                0x0000000000012304                nanos_event_set
 .com_text.ret.bb
                0x0000000000012318        0x2 ..\..\..\libs\ble\libbtstack.a(nanos.o)
                0x0000000000012318                nanos_sleep_restore
 .com_text.bb.frag
                0x000000000001231a       0x18 ..\..\..\libs\ble\libbtstack.a(bb_sche.o)
 .com_text.bb.prog
                0x0000000000012332      0x156 ..\..\..\libs\ble\libbtstack.a(bb_sche.o)
 .com_text.bb.patch
                0x0000000000012488       0x3c ..\..\..\libs\ble\libbtstack.a(patch.o)
                0x0000000000012488                bb_v1_patch1_do
 .com_text.ble.isr.con.end
                0x00000000000124c4       0x18 ..\..\..\libs\ble\libbtstack.a(patch.o)
                0x00000000000124c4                bb_v1_patch2_do
 .com_text.dbg_init
                0x00000000000124dc        0x2 ..\..\..\libs\ble\libbtstack.a(bb_dbg.o)
                0x00000000000124dc                bb_dbg_init
 .com_text.bb.isr
                0x00000000000124de       0x1a ..\..\..\libs\ble\libbtstack.a(aes.o)
 .com_text.ble.isr
                0x00000000000124f8       0x6c ..\..\..\libs\ble\libbtstack.a(ble_hook.o)
                0x00000000000124f8                ble_isr_hook
 .com_text.bb.sleep
                0x0000000000012564       0x14 ..\..\..\libs\ble\libbtstack.a(hct_tl.o)
                0x0000000000012564                hct_queue_is_empty
 .com_text.ble.isr.con
                0x0000000000012578      0x13e ..\..\..\libs\ble\libbtstack.a(ll_tbox_freq_cal.o)
                0x0000000000012578                ll_tbox_freq_cal_time_record
                0x00000000000125fc                ll_tbox_freq_cal_patch
 .com_text.ble.isr
                0x00000000000126b6       0x82 ..\..\..\libs\ble\libbtstack.a(ble_hal.o)
                0x00000000000126b6                ble_rxdesc_buf_ready
 .com_text.ble.isr.con.chas
                0x0000000000012738       0x3a ..\..\..\libs\ble\libbtstack.a(ble_hal.o)
                0x0000000000012738                ble_channel_assess
 .com_text.bb.buf
                0x0000000000012772       0x40 ..\..\..\libs\ble\libbtstack.a(ble_buf.o)
                0x0000000000012772                ble_buf_rx_free
 .com_text.bb.isr
                0x00000000000127b2       0x34 ..\..\..\libs\ble\libbtstack.a(ble.o)
                0x00000000000127b2                ble_isr
 .com_text.bb.patch
                0x00000000000127e6       0x34 ..\..\..\libs\ble\libbtstack.a(patch_asm.o)
                0x00000000000127e6                bb_v1_patch0
                0x00000000000127e8                ll_tbox_freq_cal_patch_ret
                0x00000000000127f0                bb_v1_patch1
                0x00000000000127fc                bb_v1_patch2
                0x0000000000012816                bb_v1_patch3
 .com_text.bb.dbg.ble
                0x000000000001281a        0x4 ..\..\..\libs\ble\libbtstack.a(platform.o)
                0x000000000001281a                bb_ll_tx_cb
                0x000000000001281c                bb_ll_rx_cb
 *(.com_rodata*)
 *fill*         0x000000000001281e        0x2 
 .com_rodata.key
                0x0000000000012820        0xe Output\obj\project\solution\ble_hid_composite\bsp\bsp_key.o
                0x0000000000012820                allow_multiple_key_table
 *fill*         0x000000000001282e        0x2 
 .com_rodata.exception
                0x0000000000012830       0x49 ..\..\..\libs\cpu\libplatform.a(main.o)
 *fill*         0x0000000000012879        0x3 
 .com_rodata.irq
                0x000000000001287c       0x1b ..\..\..\libs\cpu\libplatform.a(interrupt.o)
                0x000000000001287c                watch_point_str
 *fill*         0x0000000000012897        0x1 
 .com_rodata.miss
                0x0000000000012898       0x29 ..\..\..\libs\cpu\libplatform.a(debug.o)
 *fill*         0x00000000000128c1        0x3 
 .com_rodata.multi.key
                0x00000000000128c4        0x8 ..\..\..\libs\cpu\libplatform.a(key.o)
                0x00000000000128c4                key_multi_tbl
 .com_rodata.stack.api
                0x00000000000128cc        0xc ..\..\..\libs\ble\libbtstack.a(btstack_api.o)
                0x00000000000128cc                btstack_api_tbl
 .com_rodata.bb.tbl
                0x00000000000128d8        0x8 ..\..\..\libs\ble\libbtstack.a(rf.o)
 .com_rodata.bb.tbl
                0x00000000000128e0       0x44 ..\..\..\libs\ble\libbtstack.a(bb_utils.o)
                0x00000000000128e0                bb_rate_to_byte_dur_us
                0x00000000000128e8                bb_rate_to_phy_mask
                0x00000000000128ec                bb_phy_value_to_mask
                0x00000000000128f0                bb_phy_mask_to_value
                0x00000000000128f8                bb_phy_to_rate
                0x00000000000128fc                bb_rate_to_phy
                0x0000000000012904                bb_sca2ppm
                0x0000000000012914                one_bits
 .com_rodata.bb.err
                0x0000000000012924        0xd ..\..\..\libs\ble\libbtstack.a(bb_int.o)
                0x0000000000012924                str_bb_err
 *fill*         0x0000000000012931        0x3 
 .com_rodata.bb.tbl
                0x0000000000012934       0x16 ..\..\..\libs\ble\libbtstack.a(bb.o)
                0x0000000000012934                bb_priority
 *fill*         0x000000000001294a        0x2 
 .com_rodata.hci.trans
                0x000000000001294c       0x20 ..\..\..\libs\ble\libbtstack.a(hci_transport_hcic.o)
 .com_rodata.bb.tbl
                0x000000000001296c       0x18 ..\..\..\libs\ble\libbtstack.a(ble_buf.o)
 .com_rodata.bb.err
                0x0000000000012984        0xf ..\..\..\libs\ble\libbtstack.a(ble.o)
                0x0000000000012984                str_ble_err
 *fill*         0x0000000000012993        0x1 
 .com_rodata.bb.tbl
                0x0000000000012994        0xc ..\..\..\libs\ble\libbtstack.a(vs_proc.o)
                0x0000000000012994                vs_msg_env
 .com_rodata.bb.tbl
                0x00000000000129a0        0xc ..\..\..\libs\ble\libbtstack.a(mgr_proc.o)
                0x00000000000129a0                mgr_msg_env
 .com_rodata.bb.tbl
                0x00000000000129ac        0xc ..\..\..\libs\ble\libbtstack.a(ll_proc.o)
                0x00000000000129ac                ll_msg_env
 *debug.o(.rodata*)
 *(.com_sleep*)
 .com_sleep.lv2_do
                0x00000000000129b8       0x84 Output\obj\driver\driver_lowpwr.o
                0x00000000000129b8                lp_sleep_lv2_do
 .com_sleep.lv2_proc
                0x0000000000012a3c      0x2e4 Output\obj\driver\driver_lowpwr.o
                0x0000000000012a3c                lp_sleep_lv2_proc
                0x0000000000012b80                lowpwr_sleep_lv2_proc
 .com_sleep.lv2_wakeup
                0x0000000000012d20      0x1b0 Output\obj\driver\driver_lowpwr.o
                0x0000000000012d20                lp_wakeup_lv2_proc
 .com_sleep.sleep
                0x0000000000012ed0        0x4 Output\obj\driver\driver_lowpwr.o
                0x0000000000012ed0                lowpwr_sleep_proc
 .com_sleep.lv2
                0x0000000000012ed4       0x80 Output\obj\project\solution\ble_hid_composite\app\func_lowpwr.o
                0x0000000000012ed4                lowpwr_sleep_sfr_user_save
                0x0000000000012f10                lowpwr_sleep_sfr_user_resume
 .com_sleep.sleep
                0x0000000000012f54        0xe Output\obj\project\solution\ble_hid_composite\app\func_lowpwr.o
                0x0000000000012f54                sys_sleep_cb
                0x0000000000012f5e                sleep_timer
 .com_sleep.lowpwr.sleep
                0x0000000000012f62       0x42 Output\obj\project\solution\ble_hid_composite\app\func_lowpwr.o
                0x0000000000012f62                sfunc_sleep_do
 .com_sleep.ble.sleep
                0x0000000000012fa4       0x20 Output\obj\project\solution\ble_hid_composite\ble\ble_proc.o
                0x0000000000012fa4                ble_get_service_pending
                0x0000000000012fac                ble_proc_pending
 .com_sleep.sleep.rc
                0x0000000000012fc4       0x4e ..\..\..\libs\cpu\libplatform.a(rc.o)
                0x0000000000012fc4                rc_sleep_get_trim_freqcnt
 .com_sleep.lp.sleep
                0x0000000000013012      0x15e ..\..\..\libs\cpu\libplatform.a(sleep.o)
                0x0000000000013012                lowpwr_sleep_sfr_save
                0x0000000000013038                lowpwr_sleep_sfr_resume
 .com_sleep.sleep
                0x0000000000013170        0x2 ..\..\..\libs\ble\libbtstack.a(btstack_api.o)
                0x0000000000013170                bt_sleep_proc
 .com_sleep.bb  0x0000000000013172       0x9a ..\..\..\libs\ble\libbtstack.a(rf.o)
                0x0000000000013172                rf_sleep
                0x00000000000131ae                rf_wakeup
 .com_sleep.bb  0x000000000001320c      0x242 ..\..\..\libs\ble\libbtstack.a(bb_int.o)
                0x000000000001320c                bb_sleep
 .com_sleep.sleep
                0x000000000001344e        0x4 ..\..\..\libs\ble\libbtstack.a(extern.o)
                0x000000000001344e                sys_sleep_check
 .com_sleep.bb  0x0000000000013452        0x8 ..\..\..\libs\ble\libbtstack.a(bb_sche.o)
                0x0000000000013452                bb_sche_resume
 .com_sleep.bb  0x000000000001345a        0x8 ..\..\..\libs\ble\libbtstack.a(extern.o)
                0x000000000001345a                ble_sleep_duration_max_get
 .com_sleep.rfphy
                0x0000000000013462        0x4 ..\..\..\libs\ble\libbtstack.a(extern.o)
                0x0000000000013462                ble_rf_freq_bands_private
 .com_sleep.rf  0x0000000000013466      0x17c ..\..\..\libs\ble\libbtstack.a(rf_xbox.o)
                0x000000000001353a                rfphy_deep_sleep
                0x0000000000013556                rfphy_idle
                0x0000000000013572                modem_init
 .com_sleep.rfphy
                0x00000000000135e2      0x564 ..\..\..\libs\ble\libbtstack.a(rf_xbox.o)
                0x0000000000013686                rfphy_txrx_init
                0x00000000000137d6                rfphy_init
 .com_sleep.bb  0x0000000000013b46       0x82 ..\..\..\libs\ble\libbtstack.a(bb_sleep.o)
                0x0000000000013b46                bb_sleep_suspend
                0x0000000000013b56                bb_sleep_resume
 *(.com_periph.*)
 .com_periph.charge
                0x0000000000013bc8       0x22 Output\obj\driver\driver_charge.o
                0x0000000000013bc8                charge_get_status
                0x0000000000013bd0                charge_detect_dc
 .com_periph.gpio.read_bit
                0x0000000000013bea        0xa Output\obj\driver\driver_gpio.o
                0x0000000000013bea                gpio_read_bit
 .com_periph.lowpwr.sleep
                0x0000000000013bf4       0x24 Output\obj\driver\driver_lowpwr.o
                0x0000000000013bf4                lowpwr_is_wakeup_pending
 .com_periph.saradc.kick
                0x0000000000013c18       0x26 Output\obj\driver\driver_saradc.o
                0x0000000000013c18                saradc_kick_start
 .com_periph.saradc.get_channel
                0x0000000000013c3e       0x1c Output\obj\driver\driver_saradc.o
                0x0000000000013c3e                saradc_get_channel_flag
 .com_periph.saradc.get_data
                0x0000000000013c5a       0x64 Output\obj\driver\driver_saradc.o
                0x0000000000013c5a                saradc_get_data
 *(.data*)
 *fill*         0x0000000000013cbe        0x2 
 .data.key_and_hid_message_map
                0x0000000000013cc0       0x54 Output\obj\project\solution\ble_hid_composite\app\app_hid_event.o
                0x0000000000013cc0                key_and_hid_message_map
 .data.attribute_uuid128
                0x0000000000013d14       0x10 Output\obj\project\solution\ble_hid_composite\ble\ble_client.o
                0x0000000000013d14                attribute_uuid128
 *(.sdata*)
 .sdata.__func__.4145
                0x0000000000013d24        0x8 Output\obj\project\solution\ble_hid_composite\app\func_bt.o
 .sdata.fot_auth_data
                0x0000000000013d2c        0x7 Output\obj\project\solution\ble_hid_composite\ble\ble_fota_service.o
 .sdata.peer_device_type
                0x0000000000013d33        0x1 Output\obj\project\solution\ble_hid_composite\ble\ble_proc.o
                0x0000000000013d33                peer_device_type
 .sdata.charge_status_last.4647
                0x0000000000013d34        0x1 Output\obj\project\solution\ble_hid_composite\bsp\bsp_charge.o
 .sdata.div.4718
                0x0000000000013d35        0x1 Output\obj\project\solution\ble_hid_composite\bsp\bsp_saradc_vbat.o
 .sdata.cfg_spiflash_speed_up_en
                0x0000000000013d36        0x1 Output\obj\project\solution\ble_hid_composite\strong_symbol.o
                0x0000000000013d36                cfg_spiflash_speed_up_en
 *fill*         0x0000000000013d37        0x1 
 .sdata         0x0000000000013d38        0x2 ..\..\..\libs\ble\libbtstack.a(sm.o)
 .sdata         0x0000000000013d3a        0x1 ..\..\..\libs\ble\libbtstack.a(extern_ble.o)
                0x0000000000013d3a                cfg_bt_sniff_clk_sel
 *fill*         0x0000000000013d3b        0x1 
 .sdata         0x0000000000013d3c        0xc ..\..\..\libs\ble\libbtstack.a(btstack_hal.o)
 .sdata         0x0000000000013d48        0x1 ..\..\..\libs\ble\libbtstack.a(rf_xbox.o)
 *(.mp3_text*)
                0x0000000000013e00                . = ALIGN (0x200)
 *fill*         0x0000000000013d49       0xb7 

.flash          0x0000000010003400    0x1b600
                0x0000000010003400                __code_start_app_proc = .
 *(.text.app.proc.*)
 .text.app.proc.charge
                0x0000000010003400      0x1c4 Output\obj\driver\driver_charge.o
                0x0000000010003400                charge_process
 .text.app.proc.bt
                0x00000000100035c4       0x1e Output\obj\project\solution\ble_hid_composite\app\func_bt.o
                0x00000000100035c4                func_bt_sub_process
                0x00000000100035c8                func_bt_process
 .text.app.proc.sleep
                0x00000000100035e2      0x16e Output\obj\project\solution\ble_hid_composite\app\func_lowpwr.o
                0x00000000100035e2                sleep_process
 .text.app.proc.msg
                0x0000000010003750        0x8 Output\obj\project\solution\ble_hid_composite\app\msg_bt.o
                0x0000000010003750                func_bt_message
 .text.app.proc.fot
                0x0000000010003758       0x3a Output\obj\project\solution\ble_hid_composite\ble\ble_fota_service.o
                0x0000000010003758                ble_fota_process
 .text.app.proc.charge
                0x0000000010003792       0xae Output\obj\project\solution\ble_hid_composite\bsp\bsp_charge.o
                0x0000000010003792                bsp_charge_process
 .text.app.proc.saradc
                0x0000000010003840       0x2a Output\obj\project\solution\ble_hid_composite\bsp\bsp_saradc.o
                0x0000000010003840                bsp_saradc_process
 .text.app.proc.vbat
                0x000000001000386a       0xd8 Output\obj\project\solution\ble_hid_composite\bsp\bsp_saradc_vbat.o
                0x000000001000386a                bsp_vbat_lowpwr_detect
                0x00000000100038c2                bsp_vbat_proc
 .text.app.proc.test
                0x0000000010003942        0x2 Output\obj\project\solution\ble_hid_composite\production_test\prod_test.o
                0x0000000010003942                prod_test_process
                0x0000000010003a00                . = ALIGN (0x200)
 *fill*         0x0000000010003944       0xbc 
                0x0000000010003a00                __code_end_app_proc = .
                0x0000000010003a00                __code_start_stack_send = .
 *(.text.stack.send.*)
 .text.stack.send.ntf_do
                0x0000000010003a00       0x58 ..\..\..\libs\ble\libbtstack.a(gatt_server.o)
 .text.stack.send.ntf
                0x0000000010003a58       0x42 ..\..\..\libs\ble\libbtstack.a(gatt_server.o)
                0x0000000010003a58                ble_send_notify_packet
                0x0000000010003a96                ble_notify_for_handle
 .text.stack.send.ntf_kick
                0x0000000010003a9a        0x2 ..\..\..\libs\ble\libbtstack.a(gatt_server.o)
                0x0000000010003a9a                ble_notify_for_handle_kick
 .text.stack.send.server
                0x0000000010003a9c       0x9a ..\..\..\libs\ble\libbtstack.a(gatt_server.o)
                0x0000000010003a9c                att_event_server_send
 .text.stack.send.ntf
                0x0000000010003b36       0x46 ..\..\..\libs\ble\libbtstack.a(att_server.o)
                0x0000000010003b36                att_server_notify
 .text.stack.send.ntf
                0x0000000010003b7c       0x3e ..\..\..\libs\ble\libbtstack.a(att_db.o)
                0x0000000010003b7c                att_prepare_handle_value_notification
 .text.stack.send.l2cap
                0x0000000010003bba       0x50 ..\..\..\libs\ble\libbtstack.a(l2cap.o)
                0x0000000010003bba                l2cap_send_prepared_connectionless
 .text.stack.send.hci
                0x0000000010003c0a      0x290 ..\..\..\libs\ble\libbtstack.a(hci.o)
                0x0000000010003cd2                hci_send_acl_packet_buffer
 .text.stack.send.hci
                0x0000000010003e9a       0x92 ..\..\..\libs\ble\libbtstack.a(hci_transport_hcic.o)
                0x0000000010003e9a                hcic_send_acl_segment
                0x0000000010003eca                hcic_send_packet
 .text.stack.send.hci_tx_done
                0x0000000010003f2c       0x2a ..\..\..\libs\ble\libbtstack.a(hct_tl.o)
                0x0000000010003f2c                hci_tx_done
 .text.stack.send.hci
                0x0000000010003f56       0x96 ..\..\..\libs\ble\libbtstack.a(hct_tl.o)
                0x0000000010003f56                hci_acl_tx_data_alloc
                0x0000000010003f90                hci_acl_tx_data_received
 .text.stack.send.acl
                0x0000000010003fec       0xba ..\..\..\libs\ble\libbtstack.a(ll_proc.o)
                0x0000000010003fec                hci_acl_data_func
                0x0000000010004200                . = ALIGN (0x200)
 *fill*         0x00000000100040a6      0x15a 
                0x0000000010004200                __code_end_stack_send = .
 *(.text*)
 .text.charge_init
                0x0000000010004200       0xd0 Output\obj\driver\driver_charge.o
                0x0000000010004200                charge_init
 .text.charge_status_update
                0x00000000100042d0      0x140 Output\obj\driver\driver_charge.o
                0x00000000100042d0                charge_status_update
 .text.clk_gate0_cmd
                0x0000000010004410       0x16 Output\obj\driver\driver_clk.o
                0x0000000010004410                clk_gate0_cmd
 .text.clk_saradc_clk_get
                0x0000000010004426       0x42 Output\obj\driver\driver_clk.o
                0x0000000010004426                clk_saradc_clk_get
 .text.clk_udet_clk_get
                0x0000000010004468       0x3c Output\obj\driver\driver_clk.o
                0x0000000010004468                clk_udet_clk_get
 .text.clk_uart_inc_get
                0x00000000100044a4       0x32 Output\obj\driver\driver_clk.o
                0x00000000100044a4                clk_uart_inc_get
 .text.gpio_init
                0x00000000100044d6      0x10e Output\obj\driver\driver_gpio.o
                0x00000000100044d6                gpio_init
 .text.gpio_func_mapping_config
                0x00000000100045e4       0xc6 Output\obj\driver\driver_gpio.o
                0x00000000100045e4                gpio_func_mapping_config
 .text.wko_io_config
                0x00000000100046aa       0x4e Output\obj\driver\driver_gpio.o
                0x00000000100046aa                wko_io_config
 .text.wk0_edge_capture_config
                0x00000000100046f8       0x5a Output\obj\driver\driver_gpio.o
                0x00000000100046f8                wk0_edge_capture_config
 .text.gpio_edge_capture_idx_get
                0x0000000010004752       0x4a Output\obj\driver\driver_gpio.o
                0x0000000010004752                gpio_edge_capture_idx_get
 .text.gpio_edge_capture_config
                0x000000001000479c       0xa6 Output\obj\driver\driver_gpio.o
                0x000000001000479c                gpio_edge_capture_config
 .text.gpio_edge_pic_config
                0x0000000010004842       0x26 Output\obj\driver\driver_gpio.o
                0x0000000010004842                gpio_edge_pic_config
 .text.lowpwr_get_wakeup_source
                0x0000000010004868       0xb0 Output\obj\driver\driver_lowpwr.o
                0x0000000010004868                lowpwr_get_wakeup_source
 .text.lowpwr_wakeup_disable
                0x0000000010004918       0x38 Output\obj\driver\driver_lowpwr.o
                0x0000000010004918                lowpwr_wakeup_disable
 .text.lowpwr_clr_wakeup_pending
                0x0000000010004950       0x1c Output\obj\driver\driver_lowpwr.o
                0x0000000010004950                lowpwr_clr_wakeup_pending
 .text.lowpwr_wk0_wakeup_config
                0x000000001000496c       0x6e Output\obj\driver\driver_lowpwr.o
                0x000000001000496c                lowpwr_wk0_wakeup_config
 .text.lowpwr_gpio_wakeup_config
                0x00000000100049da       0x5a Output\obj\driver\driver_lowpwr.o
                0x00000000100049da                lowpwr_gpio_wakeup_config
 .text.lowpwr_wakeup_config_do
                0x0000000010004a34       0xf4 Output\obj\driver\driver_lowpwr.o
                0x0000000010004a34                lowpwr_wakeup_config_do
 .text.lowpwr_wakeup_config_2
                0x0000000010004b28        0x6 Output\obj\driver\driver_lowpwr.o
                0x0000000010004b28                lowpwr_wakeup_config_2
 .text.lowpwr_wakeup_source_enable
                0x0000000010004b2e       0xb8 Output\obj\driver\driver_lowpwr.o
                0x0000000010004b2e                lowpwr_wakeup_source_enable
 .text.lowpwr_wakeup_source_disable
                0x0000000010004be6       0xce Output\obj\driver\driver_lowpwr.o
                0x0000000010004be6                lowpwr_wakeup_source_disable
 .text.saradc_init
                0x0000000010004cb4       0x66 Output\obj\driver\driver_saradc.o
                0x0000000010004cb4                saradc_init
 .text.saradc_channel_init
                0x0000000010004d1a      0x19e Output\obj\driver\driver_saradc.o
                0x0000000010004d1a                saradc_channel_init
 .text.saradc_deinit
                0x0000000010004eb8       0xbc Output\obj\driver\driver_saradc.o
                0x0000000010004eb8                saradc_deinit
 .text.saradc_cmd
                0x0000000010004f74       0x16 Output\obj\driver\driver_saradc.o
                0x0000000010004f74                saradc_cmd
 .text.uart_init
                0x0000000010004f8a       0xa0 Output\obj\driver\driver_uart.o
                0x0000000010004f8a                uart_init
 .text.uart_cmd
                0x000000001000502a       0x10 Output\obj\driver\driver_uart.o
                0x000000001000502a                uart_cmd
 .text.uart_baud_config
                0x000000001000503a       0x72 Output\obj\driver\driver_uart.o
                0x000000001000503a                uart_baud_config
 .text.ble_hid_post_msg_by_key
                0x00000000100050ac       0x34 Output\obj\project\solution\ble_hid_composite\app\app_hid_event.o
                0x00000000100050ac                ble_hid_post_msg_by_key
 .text.ble_hid_send_touch_cmd_android
                0x00000000100050e0       0x44 Output\obj\project\solution\ble_hid_composite\app\app_hid_event.o
                0x00000000100050e0                ble_hid_send_touch_cmd_android
 .text.ble_hid_send_touch_cmd_ios
                0x0000000010005124       0xc6 Output\obj\project\solution\ble_hid_composite\app\app_hid_event.o
                0x0000000010005124                ble_hid_send_touch_cmd_ios
 .text.ble_hid_send_consumer_cmd
                0x00000000100051ea       0x1c Output\obj\project\solution\ble_hid_composite\app\app_hid_event.o
                0x00000000100051ea                ble_hid_send_consumer_cmd
 .text.func.msg.hid
                0x0000000010005206       0x28 Output\obj\project\solution\ble_hid_composite\app\app_hid_event.o
                0x0000000010005206                func_message_hid_event
 .text.ble_hid_event_selfie
                0x000000001000522e      0x6fa Output\obj\project\solution\ble_hid_composite\app\app_hid_selfie.o
                0x000000001000522e                ble_hid_event_selfie
 .text.ble_hid_event_tiktok
                0x0000000010005928      0xbf0 Output\obj\project\solution\ble_hid_composite\app\app_hid_tiktok.o
                0x0000000010005928                ble_hid_event_tiktok
 .text.func.process
                0x0000000010006518       0x1a Output\obj\project\solution\ble_hid_composite\app\func.o
                0x0000000010006518                func_process
 .text.func.msg.key
                0x0000000010006532        0x4 Output\obj\project\solution\ble_hid_composite\app\func.o
                0x0000000010006532                func_message_key_event
 .text.func.msg.enter
                0x0000000010006536       0x3a Output\obj\project\solution\ble_hid_composite\app\func.o
                0x0000000010006536                func_message
 .text.func     0x0000000010006570       0x70 Output\obj\project\solution\ble_hid_composite\app\func.o
                0x0000000010006570                func_enter
                0x000000001000658e                func_exit
                0x0000000010006598                func_run
 .text.func.bt  0x00000000100065e0       0x6c Output\obj\project\solution\ble_hid_composite\app\func_bt.o
                0x00000000100065e0                func_bt_init
                0x00000000100065e4                func_bt_enter
                0x00000000100065fa                func_bt_exit
                0x0000000010006614                func_bt
 .text.func.idle
                0x000000001000664c       0x40 Output\obj\project\solution\ble_hid_composite\app\func_idle.o
                0x000000001000664c                func_idle_process
                0x0000000010006650                func_idle
 .text.bsp_gpio_wakeup_config
                0x000000001000668c       0x3c Output\obj\project\solution\ble_hid_composite\app\func_lowpwr.o
                0x000000001000668c                bsp_gpio_wakeup_config
 .text.lowpwr_sleep_wakeup_config
                0x00000000100066c8       0x40 Output\obj\project\solution\ble_hid_composite\app\func_lowpwr.o
                0x00000000100066c8                lowpwr_sleep_wakeup_config
 .text.lowpwr_pwroff_wakeup_config
                0x0000000010006708       0x3e Output\obj\project\solution\ble_hid_composite\app\func_lowpwr.o
                0x0000000010006708                lowpwr_pwroff_wakeup_config
 .text.lowpwr.pwroff
                0x0000000010006746       0x36 Output\obj\project\solution\ble_hid_composite\app\func_lowpwr.o
                0x0000000010006746                func_pwroff
 .text.func.msg
                0x000000001000677c       0x10 Output\obj\project\solution\ble_hid_composite\app\msg_bt.o
                0x000000001000677c                func_bt_message_do
 .text.func.idle.msg
                0x000000001000678c        0x4 Output\obj\project\solution\ble_hid_composite\app\msg_idle.o
                0x000000001000678c                func_idle_message
 .text.battery_service_write_callback
                0x0000000010006790       0x14 Output\obj\project\solution\ble_hid_composite\ble\ble_battery_service.o
 .text.battery_service_event_callback
                0x00000000100067a4       0x52 Output\obj\project\solution\ble_hid_composite\ble\ble_battery_service.o
 .text.battery_service_read_callback
                0x00000000100067f6       0x24 Output\obj\project\solution\ble_hid_composite\ble\ble_battery_service.o
 .text.ble_battery_service_init
                0x000000001000681a       0x54 Output\obj\project\solution\ble_hid_composite\ble\ble_battery_service.o
                0x000000001000681a                ble_battery_service_init
 .text.ble_battery_service_proc
                0x000000001000686e       0x8e Output\obj\project\solution\ble_hid_composite\ble\ble_battery_service.o
                0x000000001000686e                ble_battery_service_proc
 .text.ble_client_event_callback
                0x00000000100068fc      0x17e Output\obj\project\solution\ble_hid_composite\ble\ble_client.o
                0x00000000100068fc                ble_client_event_callback
 .text.ble_client_init
                0x0000000010006a7a       0x3c Output\obj\project\solution\ble_hid_composite\ble\ble_client.o
                0x0000000010006a7a                ble_client_init
 .text.fota_read_callback
                0x0000000010006ab6       0x32 Output\obj\project\solution\ble_hid_composite\ble\ble_fota_service.o
 .text.fot.cache
                0x0000000010006ae8      0x5a8 Output\obj\project\solution\ble_hid_composite\ble\ble_fota_service.o
                0x0000000010006b3c                fot_recv_proc
                0x0000000010006fae                ble_fota_process_do
                0x0000000010007028                ble_fota_flag_do
 .text.fot.update
                0x0000000010007090       0x94 Output\obj\project\solution\ble_hid_composite\ble\ble_fota_service.o
                0x0000000010007090                ble_fota_init
                0x00000000100070c0                ble_fota_pause
                0x00000000100070de                ble_fota_continue
 .text.ble_fota_exit
                0x0000000010007124       0x20 Output\obj\project\solution\ble_hid_composite\ble\ble_fota_service.o
                0x0000000010007124                ble_fota_exit
 .text.fota_ble_disconnect_callback
                0x0000000010007144       0x14 Output\obj\project\solution\ble_hid_composite\ble\ble_fota_service.o
                0x0000000010007144                fota_ble_disconnect_callback
 .text.fota_event_callback
                0x0000000010007158       0x54 Output\obj\project\solution\ble_hid_composite\ble\ble_fota_service.o
 .text.fota_write_callback
                0x00000000100071ac       0x60 Output\obj\project\solution\ble_hid_composite\ble\ble_fota_service.o
 .text.ble_fota_service_init
                0x000000001000720c       0x52 Output\obj\project\solution\ble_hid_composite\ble\ble_fota_service.o
                0x000000001000720c                ble_fota_service_init
 .text.ble_service_event_callback
                0x000000001000725e       0xce Output\obj\project\solution\ble_hid_composite\ble\ble_hid_service.o
 .text.ble_service_read_callback
                0x000000001000732c       0x60 Output\obj\project\solution\ble_hid_composite\ble\ble_hid_service.o
 .text.ble_service_write_callback
                0x000000001000738c       0x9a Output\obj\project\solution\ble_hid_composite\ble\ble_hid_service.o
 .text.ble_hid_report_for_handle_kick
                0x0000000010007426       0xbc Output\obj\project\solution\ble_hid_composite\ble\ble_hid_service.o
                0x0000000010007426                ble_hid_report_for_handle_kick
 .text.ble_hid_report_for_handle
                0x00000000100074e2        0x6 Output\obj\project\solution\ble_hid_composite\ble\ble_hid_service.o
                0x00000000100074e2                ble_hid_report_for_handle
 .text.ble_hid_service_init
                0x00000000100074e8       0x7e Output\obj\project\solution\ble_hid_composite\ble\ble_hid_service.o
                0x00000000100074e8                ble_hid_service_init
 .text.ble_hid_task_enqueue
                0x0000000010007566       0x4a Output\obj\project\solution\ble_hid_composite\ble\ble_hid_service.o
                0x0000000010007566                ble_hid_task_enqueue
 .text.ble_hid_service_proc
                0x00000000100075b0       0x98 Output\obj\project\solution\ble_hid_composite\ble\ble_hid_service.o
                0x00000000100075b0                ble_hid_service_proc
 .text.ble_set_work_mode
                0x0000000010007648        0x8 Output\obj\project\solution\ble_hid_composite\ble\ble_init.o
                0x0000000010007648                ble_set_work_mode
 .text.ble_txpkt_init
                0x0000000010007650       0x3e Output\obj\project\solution\ble_hid_composite\ble\ble_init.o
                0x0000000010007650                ble_txpkt_init
 .text.ble_sm_param_init
                0x000000001000768e        0xa Output\obj\project\solution\ble_hid_composite\ble\ble_init.o
                0x000000001000768e                ble_sm_param_init
 .text.ble_adv_param_init
                0x0000000010007698       0x52 Output\obj\project\solution\ble_hid_composite\ble\ble_init.o
                0x0000000010007698                ble_adv_param_init
 .text.ble_periph_init
                0x00000000100076ea       0x2a Output\obj\project\solution\ble_hid_composite\ble\ble_init.o
                0x00000000100076ea                ble_periph_init
 .text.bsp_ble_init
                0x0000000010007714       0x2a Output\obj\project\solution\ble_hid_composite\ble\ble_init.o
                0x0000000010007714                bsp_ble_init
 .text.ble_enter_sleep_proc
                0x000000001000773e       0x26 Output\obj\project\solution\ble_hid_composite\ble\ble_proc.o
                0x000000001000773e                ble_enter_sleep_proc
 .text.ble_exit_sleep_proc
                0x0000000010007764       0x3a Output\obj\project\solution\ble_hid_composite\ble\ble_proc.o
                0x0000000010007764                ble_exit_sleep_proc
 .text.ble.sleep
                0x000000001000779e        0x8 Output\obj\project\solution\ble_hid_composite\ble\ble_proc.o
                0x000000001000779e                ble_set_service_pending
 .text.ble_app_proc
                0x00000000100077a6       0x1c Output\obj\project\solution\ble_hid_composite\ble\ble_proc.o
                0x00000000100077a6                ble_app_proc
 .text.ble_hid_peer_device_type_set
                0x00000000100077c2        0x8 Output\obj\project\solution\ble_hid_composite\ble\ble_proc.o
                0x00000000100077c2                ble_hid_peer_device_type_set
 .text.ble_hid_peer_device_type_get
                0x00000000100077ca        0x8 Output\obj\project\solution\ble_hid_composite\ble\ble_proc.o
                0x00000000100077ca                ble_hid_peer_device_type_get
 .text.ble_hid_peer_device_is_ios
                0x00000000100077d2        0xe Output\obj\project\solution\ble_hid_composite\ble\ble_proc.o
                0x00000000100077d2                ble_hid_peer_device_is_ios
 .text.ble_get_scan_data
                0x00000000100077e0       0x58 Output\obj\project\solution\ble_hid_composite\ble\ble_service.o
                0x00000000100077e0                ble_get_scan_data
 .text.ble_get_adv_data
                0x0000000010007838       0x68 Output\obj\project\solution\ble_hid_composite\ble\ble_service.o
                0x0000000010007838                ble_get_adv_data
 .text.ble_get_profile_data
                0x00000000100078a0        0xa Output\obj\project\solution\ble_hid_composite\ble\ble_service.o
                0x00000000100078a0                ble_get_profile_data
 .text.ble_service_init
                0x00000000100078aa       0x2a Output\obj\project\solution\ble_hid_composite\ble\ble_service.o
                0x00000000100078aa                ble_service_init
 .text.user_service_event_callback
                0x00000000100078d4       0xaa Output\obj\project\solution\ble_hid_composite\ble\ble_user_service.o
 .text.user_service_write_callback
                0x000000001000797e       0x28 Output\obj\project\solution\ble_hid_composite\ble\ble_user_service.o
 .text.user_service_read_callback
                0x00000000100079a6       0x80 Output\obj\project\solution\ble_hid_composite\ble\ble_user_service.o
 .text.ble_user_service_init
                0x0000000010007a26       0x76 Output\obj\project\solution\ble_hid_composite\ble\ble_user_service.o
                0x0000000010007a26                ble_user_service_init
 .text.ble_user_service_proc
                0x0000000010007a9c        0x2 Output\obj\project\solution\ble_hid_composite\ble\ble_user_service.o
                0x0000000010007a9c                ble_user_service_proc
 .text.bsp_charge_init
                0x0000000010007a9e       0x2c Output\obj\project\solution\ble_hid_composite\bsp\bsp_charge.o
                0x0000000010007a9e                bsp_charge_init
 .text.bsp_io_key_init
                0x0000000010007aca       0x70 Output\obj\project\solution\ble_hid_composite\bsp\bsp_io_key.o
                0x0000000010007aca                bsp_io_key_init
 .text.bsp_key_init
                0x0000000010007b3a       0x2a Output\obj\project\solution\ble_hid_composite\bsp\bsp_key.o
                0x0000000010007b3a                bsp_key_init
 .text.bsp.param
                0x0000000010007b64       0x18 Output\obj\project\solution\ble_hid_composite\bsp\bsp_param.o
                0x0000000010007b64                bsp_param_init
                0x0000000010007b70                bsp_param_write
                0x0000000010007b74                bsp_param_read
                0x0000000010007b78                bsp_param_sync
 .text.bsp.param.fota
                0x0000000010007b7c       0x70 Output\obj\project\solution\ble_hid_composite\bsp\bsp_param.o
                0x0000000010007b7c                param_fot_addr_write
                0x0000000010007b90                param_fot_addr_read
                0x0000000010007b98                param_fot_remote_ver_write
                0x0000000010007bac                param_fot_remote_ver_read
                0x0000000010007bb4                param_fot_head_info_write
                0x0000000010007bc8                param_fot_head_info_read
                0x0000000010007bd0                param_fot_hash_write
                0x0000000010007be4                param_fot_hash_read
 .text.bsp_saradc_init
                0x0000000010007bec       0x38 Output\obj\project\solution\ble_hid_composite\bsp\bsp_saradc.o
                0x0000000010007bec                bsp_saradc_init
 .text.bsp_vbat_filter
                0x0000000010007c24       0x62 Output\obj\project\solution\ble_hid_composite\bsp\bsp_saradc_vbat.o
                0x0000000010007c24                bsp_vbat_filter
 .text.bsp_vbat_detect_init
                0x0000000010007c86       0x3c Output\obj\project\solution\ble_hid_composite\bsp\bsp_saradc_vbat.o
                0x0000000010007c86                bsp_vbat_detect_init
 .text.bsp_get_vbat_level
                0x0000000010007cc2       0x40 Output\obj\project\solution\ble_hid_composite\bsp\bsp_saradc_vbat.o
                0x0000000010007cc2                bsp_get_vbat_level
 .text.power_on_vbat_check
                0x0000000010007d02       0x28 Output\obj\project\solution\ble_hid_composite\bsp\bsp_sys.o
 .text.sys_ram_info_dump
                0x0000000010007d2a       0x96 Output\obj\project\solution\ble_hid_composite\bsp\bsp_sys.o
                0x0000000010007d2a                sys_ram_info_dump
 .text.bsp.sys.init
                0x0000000010007dc0       0xbc Output\obj\project\solution\ble_hid_composite\bsp\bsp_sys.o
                0x0000000010007dc0                bsp_sys_init
 .text.bsp_periph_init
                0x0000000010007e7c       0x16 Output\obj\project\solution\ble_hid_composite\bsp\bsp_sys.o
                0x0000000010007e7c                bsp_periph_init
 .text.bsp_uart_debug_init
                0x0000000010007e92       0x7c Output\obj\project\solution\ble_hid_composite\bsp\bsp_uart_debug.o
                0x0000000010007e92                bsp_uart_debug_init
 .text.startup.main
                0x0000000010007f0e       0x58 Output\obj\project\solution\ble_hid_composite\main.o
                0x0000000010007f0e                main
 .text.prod_test_init
                0x0000000010007f66        0x2 Output\obj\project\solution\ble_hid_composite\production_test\prod_test.o
                0x0000000010007f66                prod_test_init
 .text.mem_heap_size_get
                0x0000000010007f68        0x8 Output\obj\project\solution\ble_hid_composite\strong_symbol.o
                0x0000000010007f68                mem_heap_size_get
 .text.thread_cfg_get
                0x0000000010007f70        0xa Output\obj\project\solution\ble_hid_composite\strong_symbol.o
                0x0000000010007f70                thread_cfg_get
 .text.thread_create_callback
                0x0000000010007f7a        0x4 Output\obj\project\solution\ble_hid_composite\strong_symbol.o
                0x0000000010007f7a                thread_create_callback
 .text.ble_get_local_bd_addr
                0x0000000010007f7e       0x14 Output\obj\project\solution\ble_hid_composite\strong_symbol.o
                0x0000000010007f7e                ble_get_local_bd_addr
 .text.bt_rf_get_param
                0x0000000010007f92       0x44 Output\obj\project\solution\ble_hid_composite\strong_symbol.o
                0x0000000010007f92                bt_rf_get_param
 .text.bt_rf_get_tx_pwr
                0x0000000010007fd6       0x1a Output\obj\project\solution\ble_hid_composite\strong_symbol.o
                0x0000000010007fd6                bt_rf_get_tx_pwr
 .text.xosc_get_xcfg
                0x0000000010007ff0       0x20 Output\obj\project\solution\ble_hid_composite\strong_symbol.o
                0x0000000010007ff0                xosc_get_xcfg
 .text.param_xosc_read
                0x0000000010008010        0x8 Output\obj\project\solution\ble_hid_composite\strong_symbol.o
                0x0000000010008010                param_xosc_read
 .text.param_xosc_write
                0x0000000010008018       0x14 Output\obj\project\solution\ble_hid_composite\strong_symbol.o
                0x0000000010008018                param_xosc_write
 .text.hci_fcc_init
                0x000000001000802c        0x2 Output\obj\project\solution\ble_hid_composite\strong_symbol.o
                0x000000001000802c                hci_fcc_init
 .text.bt_uart_isr
                0x000000001000802e        0x4 Output\obj\project\solution\ble_hid_composite\strong_symbol.o
                0x000000001000802e                bt_uart_isr
 .text.sys_clk_change_callback
                0x0000000010008032       0x10 Output\obj\project\solution\ble_hid_composite\strong_symbol.o
                0x0000000010008032                sys_clk_change_callback
 .text.uart_debug_init_callback
                0x0000000010008042        0x4 Output\obj\project\solution\ble_hid_composite\strong_symbol.o
                0x0000000010008042                uart_debug_init_callback
 .text.ble_get_link_info
                0x0000000010008046        0x6 Output\obj\project\solution\ble_hid_composite\strong_symbol.o
                0x0000000010008046                ble_get_link_info
 .text.ble_put_link_info
                0x000000001000804c       0x10 Output\obj\project\solution\ble_hid_composite\strong_symbol.o
                0x000000001000804c                ble_put_link_info
 .text.ble_mtu_exchange_enabled
                0x000000001000805c        0x4 Output\obj\project\solution\ble_hid_composite\strong_symbol.o
                0x000000001000805c                ble_mtu_exchange_enabled
 .text.ble_sm_send_security_req_time_get
                0x0000000010008060        0x6 Output\obj\project\solution\ble_hid_composite\strong_symbol.o
                0x0000000010008060                ble_sm_send_security_req_time_get
 .text.ble_sm_always_accept_ltk_req
                0x0000000010008066        0x4 Output\obj\project\solution\ble_hid_composite\strong_symbol.o
                0x0000000010008066                ble_sm_always_accept_ltk_req
 .text.ble_sm_pairing_support
                0x000000001000806a        0x4 Output\obj\project\solution\ble_hid_composite\strong_symbol.o
                0x000000001000806a                ble_sm_pairing_support
 .text.ble_disconnected_restart_adv
                0x000000001000806e        0x4 Output\obj\project\solution\ble_hid_composite\strong_symbol.o
                0x000000001000806e                ble_disconnected_restart_adv
 .text.ble_rx_exit_sleep
                0x0000000010008072        0x4 Output\obj\project\solution\ble_hid_composite\strong_symbol.o
                0x0000000010008072                ble_rx_exit_sleep
 .text.ble_feature_exchange_enabled
                0x0000000010008076        0x4 Output\obj\project\solution\ble_hid_composite\strong_symbol.o
                0x0000000010008076                ble_feature_exchange_enabled
 .text.ble_length_request_enabled
                0x000000001000807a        0x4 Output\obj\project\solution\ble_hid_composite\strong_symbol.o
                0x000000001000807a                ble_length_request_enabled
 .text.ble_phy_update_enable
                0x000000001000807e        0x4 Output\obj\project\solution\ble_hid_composite\strong_symbol.o
                0x000000001000807e                ble_phy_update_enable
 .text.cm_loadpage
                0x0000000010008082       0xb4 ..\..\..\libs\cpu\libplatform.a(cm.o)
 .text.cm_next_freepage
                0x0000000010008136       0x42 ..\..\..\libs\cpu\libplatform.a(cm.o)
 .text.cm_loadparam
                0x0000000010008178        0x4 ..\..\..\libs\cpu\libplatform.a(cm.o)
                0x0000000010008178                cm_loadparam
 .text.cm_factory
                0x000000001000817c        0xa ..\..\..\libs\cpu\libplatform.a(cm.o)
                0x000000001000817c                cm_factory
 .text.cm_addr_check
                0x0000000010008186        0x4 ..\..\..\libs\cpu\libplatform.a(cm.o)
                0x0000000010008186                cm_addr_check
 .text.cm_writepage
                0x000000001000818a       0x2a ..\..\..\libs\cpu\libplatform.a(cm.o)
 .text.cm_movepage
                0x00000000100081b4       0x50 ..\..\..\libs\cpu\libplatform.a(cm.o)
 .text.cm_erase
                0x0000000010008204       0x1e ..\..\..\libs\cpu\libplatform.a(cm.o)
 .text.cm_release
                0x0000000010008222       0xf8 ..\..\..\libs\cpu\libplatform.a(cm.o)
 .text.cm_savepage
                0x000000001000831a       0xb6 ..\..\..\libs\cpu\libplatform.a(cm.o)
 .text.cm_check_loadpage
                0x00000000100083d0       0xb0 ..\..\..\libs\cpu\libplatform.a(cm.o)
 .text.cm_sync  0x0000000010008480       0x3e ..\..\..\libs\cpu\libplatform.a(cm.o)
                0x0000000010008480                cm_sync
 .text.cm_read  0x00000000100084be       0x44 ..\..\..\libs\cpu\libplatform.a(cm.o)
                0x00000000100084be                cm_read
 .text.cm_write
                0x0000000010008502       0x5e ..\..\..\libs\cpu\libplatform.a(cm.o)
                0x0000000010008502                cm_write
 .text.cm_init  0x0000000010008560      0x1be ..\..\..\libs\cpu\libplatform.a(cm.o)
                0x0000000010008560                cm_init
 .text.xcfg_init
                0x000000001000871e       0x54 ..\..\..\libs\cpu\libplatform.a(xcfg.o)
                0x000000001000871e                xcfg_init
 .text.platform_main
                0x0000000010008772      0x1ea ..\..\..\libs\cpu\libplatform.a(main.o)
                0x0000000010008772                platform_main
 .text.main_startup
                0x000000001000895c        0xe ..\..\..\libs\cpu\libplatform.a(main.o)
                0x000000001000895c                main_startup
 .text.sys_irq_init
                0x000000001000896a       0x8e ..\..\..\libs\cpu\libplatform.a(interrupt.o)
                0x000000001000896a                sys_irq_init
 .text.soft_irq_init
                0x00000000100089f8       0x3c ..\..\..\libs\cpu\libplatform.a(interrupt.o)
                0x00000000100089f8                soft_irq_init
 .text.bthw_irq_init
                0x0000000010008a34       0x12 ..\..\..\libs\cpu\libplatform.a(interrupt.o)
                0x0000000010008a34                bthw_irq_init
 .text.sys_timer_init
                0x0000000010008a46       0x84 ..\..\..\libs\cpu\libplatform.a(interrupt.o)
                0x0000000010008a46                sys_timer_init
 .text.thread_btstack_create
                0x0000000010008aca       0x8a ..\..\..\libs\cpu\libplatform.a(startup.o)
                0x0000000010008aca                thread_btstack_create
 .text.thread_main_entry
                0x0000000010008b54       0x8a ..\..\..\libs\cpu\libplatform.a(startup.o)
 .text.startup.init
                0x0000000010008bde      0x10a ..\..\..\libs\cpu\libplatform.a(startup.o)
                0x0000000010008bde                platform_init
                0x0000000010008be6                sys_startup
 .text.bt_set_timer_enable
                0x0000000010008ce8       0x18 ..\..\..\libs\cpu\libplatform.a(startup.o)
                0x0000000010008ce8                bt_set_timer_enable
 .text.sys_set_tmr_enable
                0x0000000010008d00       0x22 ..\..\..\libs\cpu\libplatform.a(startup.o)
                0x0000000010008d00                sys_set_tmr_enable
 .text.sys_hook_init
                0x0000000010008d22        0x2 ..\..\..\libs\cpu\libplatform.a(sys_hook.o)
                0x0000000010008d22                sys_hook_init
 .text.pll0_vco_band_trimming
                0x0000000010008d24       0x5a ..\..\..\libs\cpu\libplatform.a(pll.o)
                0x0000000010008d24                pll0_vco_band_trimming
 .text.pll0_init
                0x0000000010008d7e       0xd6 ..\..\..\libs\cpu\libplatform.a(pll.o)
                0x0000000010008d7e                pll0_init
 .text.pll0_disable
                0x0000000010008e54       0x48 ..\..\..\libs\cpu\libplatform.a(pll.o)
                0x0000000010008e54                pll0_disable
 .text.pmu_set_buck_mode
                0x0000000010008e9c       0x9e ..\..\..\libs\cpu\libplatform.a(pmu.o)
                0x0000000010008e9c                pmu_set_buck_mode
 .text.pmu_voltage_configure
                0x0000000010008f3a       0x6a ..\..\..\libs\cpu\libplatform.a(pmu.o)
                0x0000000010008f3a                pmu_voltage_configure
 .text.pmu_init
                0x0000000010008fa4      0x30c ..\..\..\libs\cpu\libplatform.a(pmu.o)
                0x0000000010008fa4                pmu_init
 .text.sleep.rc
                0x00000000100092b0       0x3e ..\..\..\libs\cpu\libplatform.a(rc.o)
                0x00000000100092b0                rc_sleep_get_freqcnt
 .text.debug_set
                0x00000000100092ee       0x1a ..\..\..\libs\cpu\libplatform.a(debug.o)
                0x00000000100092ee                debug_set
 .text.ota_pack
                0x0000000010009308      0x51e ..\..\..\libs\cpu\libplatform.a(fot_pack.o)
                0x0000000010009406                ota_pack_init
                0x0000000010009446                ota_pack_verify
 .text.ota_pack_deinit
                0x0000000010009826       0x1e ..\..\..\libs\cpu\libplatform.a(fot_pack.o)
                0x0000000010009826                ota_pack_deinit
 .text.ota_pack_get_curaddr
                0x0000000010009844        0x8 ..\..\..\libs\cpu\libplatform.a(fot_pack.o)
                0x0000000010009844                ota_pack_get_curaddr
 .text.ota_pack_get_err
                0x000000001000984c       0x10 ..\..\..\libs\cpu\libplatform.a(fot_pack.o)
                0x000000001000984c                ota_pack_get_err
 .text.ota_pack_is_update_success
                0x000000001000985c        0x8 ..\..\..\libs\cpu\libplatform.a(fot_pack.o)
                0x000000001000985c                ota_pack_is_update_success
 .text.ota_pack_done
                0x0000000010009864       0x44 ..\..\..\libs\cpu\libplatform.a(fot_pack.o)
                0x0000000010009864                ota_pack_done
 .text.fot.cache
                0x00000000100098a8      0x180 ..\..\..\libs\cpu\libplatform.a(fot_pack.o)
                0x00000000100098a8                ota_pack_write
 .text.ota_pack_breakpoint_info_read
                0x0000000010009a28       0xc8 ..\..\..\libs\cpu\libplatform.a(fot_pack.o)
                0x0000000010009a28                ota_pack_breakpoint_info_read
 .text.bsp.key.init
                0x0000000010009af0       0x38 ..\..\..\libs\cpu\libplatform.a(key.o)
                0x0000000010009af0                multiple_key_init
 .text.lock_init
                0x0000000010009b28       0x1c ..\..\..\libs\cpu\libplatform.a(lock.o)
                0x0000000010009b28                lock_init
 .text.patch_init
                0x0000000010009b44       0x1e ..\..\..\libs\cpu\libplatform.a(patch.o)
                0x0000000010009b44                patch_init
 .text.udivmoddi4
                0x0000000010009b62       0x96 ..\..\..\libs\cpu\libplatform.a(sys.o)
 .text.sys_rst_init
                0x0000000010009bf8       0x7c ..\..\..\libs\cpu\libplatform.a(sys.o)
                0x0000000010009bf8                sys_rst_init
 .text.sys_rst_dump
                0x0000000010009c74       0x86 ..\..\..\libs\cpu\libplatform.a(sys.o)
                0x0000000010009c74                sys_rst_dump
 .text.rc2m_clk_nhz_cal
                0x0000000010009cfa      0x100 ..\..\..\libs\cpu\libplatform.a(sys.o)
                0x0000000010009cfa                rc2m_clk_nhz_cal
 .text.rc2m_clk_nhz_get
                0x0000000010009dfa       0x10 ..\..\..\libs\cpu\libplatform.a(sys.o)
                0x0000000010009dfa                rc2m_clk_nhz_get
 .text.sys_get_rand_key_init
                0x0000000010009e0a        0xa ..\..\..\libs\cpu\libplatform.a(sys.o)
                0x0000000010009e0a                sys_get_rand_key_init
 .text.xosc_init
                0x0000000010009e14       0x92 ..\..\..\libs\cpu\libplatform.a(sys.o)
                0x0000000010009e14                xosc_init
 .text.bsp.param
                0x0000000010009ea6       0x26 ..\..\..\libs\cpu\libplatform.a(sys.o)
                0x0000000010009ea6                bt_save_xosc_cap
 .text.bt_get_xosc_cap
                0x0000000010009ecc        0xc ..\..\..\libs\cpu\libplatform.a(sys.o)
                0x0000000010009ecc                bt_get_xosc_cap
 .text.bt_set_xosc_cap
                0x0000000010009ed8       0x18 ..\..\..\libs\cpu\libplatform.a(sys.o)
                0x0000000010009ed8                bt_set_xosc_cap
 .text.bt_adj_xosc_cap
                0x0000000010009ef0       0x72 ..\..\..\libs\cpu\libplatform.a(sys.o)
                0x0000000010009ef0                bt_adj_xosc_cap
 .text.__udivdi3
                0x0000000010009f62        0x6 ..\..\..\libs\cpu\libplatform.a(sys.o)
                0x0000000010009f62                __udivdi3
 .text.sys_clk_cacl_curr
                0x0000000010009f68       0x28 ..\..\..\libs\cpu\libplatform.a(sys_clk.o)
 *fill*         0x0000000010009f90       0x70 
 .text.set_sys_clk_do
                0x000000001000a000      0x1ea ..\..\..\libs\cpu\libplatform.a(sys_clk.o)
                0x000000001000a000                set_sys_clk_do
 .text.sys_clk  0x000000001000a1ea      0x1ec ..\..\..\libs\cpu\libplatform.a(sys_clk.o)
                0x000000001000a1ea                sys_clk_get_cur
                0x000000001000a1f2                sys_clk_set_do
 .text.sys_clk_nhz_get
                0x000000001000a3d6       0x5c ..\..\..\libs\cpu\libplatform.a(sys_clk.o)
                0x000000001000a3d6                sys_clk_nhz_get
 .text.sys_clk_get
                0x000000001000a432        0x8 ..\..\..\libs\cpu\libplatform.a(sys_clk.o)
                0x000000001000a432                sys_clk_get
 .text.sys_clk_set
                0x000000001000a43a       0x60 ..\..\..\libs\cpu\libplatform.a(sys_clk.o)
                0x000000001000a43a                sys_clk_set
 *fill*         0x000000001000a49a        0x2 
 .text.sys_clk.table
                0x000000001000a49c       0x1a ..\..\..\libs\cpu\libplatform.a(sys_clk.o)
                0x000000001000a49c                sysclk_info_tbl
 .text.charge_const_curr_trim
                0x000000001000a4b6       0x7a ..\..\..\libs\cpu\libplatform.a(voltage_trim.o)
                0x000000001000a4b6                charge_const_curr_trim
 .text.charge_cutoff_curr_trim
                0x000000001000a530       0x6e ..\..\..\libs\cpu\libplatform.a(voltage_trim.o)
                0x000000001000a530                charge_cutoff_curr_trim
 .text.voltage.trim
                0x000000001000a59e      0x1a2 ..\..\..\libs\cpu\libplatform.a(voltage_trim.o)
                0x000000001000a59e                bt_get_ft_trim_value
                0x000000001000a5e8                voltage_trim_value_init
 .text.xosc_24m_div_get
                0x000000001000a740        0x4 ..\..\..\libs\cpu\libplatform.a(weak_symbol.o)
                0x000000001000a740                xosc_24m_div_get
 .text.rf_ft_trim_dig_gain_adjust
                0x000000001000a744        0x4 ..\..\..\libs\cpu\libplatform.a(weak_symbol.o)
                0x000000001000a744                rf_ft_trim_dig_gain_adjust
 .text.calc_crc32
                0x000000001000a748       0x2e ..\..\..\libs\cpu\libplatform.a(crc.o)
                0x000000001000a748                calc_crc32
 .text          0x000000001000a776       0x78 ..\..\..\libs\ble\libbtstack.a(txpkt.o)
                0x000000001000a776                txpkt_init
 *fill*         0x000000001000a7ee       0x12 
 .text.txpkt.flush
                0x000000001000a800       0x82 ..\..\..\libs\ble\libbtstack.a(txpkt.o)
                0x000000001000a800                txpkt_flush
 .text          0x000000001000a882      0x76a ..\..\..\libs\ble\libbtstack.a(sm.o)
 .text.sm.aes   0x000000001000afec       0x3a ..\..\..\libs\ble\libbtstack.a(sm.o)
 .text.sm.get_handle
                0x000000001000b026       0x16 ..\..\..\libs\ble\libbtstack.a(sm.o)
 .text.sm.rau_run
                0x000000001000b03c       0x90 ..\..\..\libs\ble\libbtstack.a(sm.o)
 .text.gap.trig
                0x000000001000b0cc       0x18 ..\..\..\libs\ble\libbtstack.a(sm.o)
 .text.gap.rau.update
                0x000000001000b0e4       0x46 ..\..\..\libs\ble\libbtstack.a(sm.o)
                0x000000001000b10a                gap_random_address_update
 .text.sm.is_null
                0x000000001000b12a       0x1c ..\..\..\libs\ble\libbtstack.a(sm.o)
                0x000000001000b12a                sm_is_null
 .text.sm.request
                0x000000001000b146       0x86 ..\..\..\libs\ble\libbtstack.a(sm.o)
                0x000000001000b1bc                sm_send_security_request
 .text.sm.hdl   0x000000001000b1cc        0xc ..\..\..\libs\ble\libbtstack.a(sm.o)
                0x000000001000b1cc                sm_add_event_handler
 .text.sm.er    0x000000001000b1d8        0xe ..\..\..\libs\ble\libbtstack.a(sm.o)
                0x000000001000b1d8                sm_set_er
 .text.sm.ir    0x000000001000b1e6        0xe ..\..\..\libs\ble\libbtstack.a(sm.o)
                0x000000001000b1e6                sm_set_ir
 .text.stack.ble.sm
                0x000000001000b1f4      0x13c ..\..\..\libs\ble\libbtstack.a(sm.o)
                0x000000001000b1f4                ble_sm_init
 .text.sm.deinit
                0x000000001000b330        0x8 ..\..\..\libs\ble\libbtstack.a(sm.o)
                0x000000001000b330                sm_deinit
 .text.sm.key_size
                0x000000001000b338       0x20 ..\..\..\libs\ble\libbtstack.a(sm.o)
                0x000000001000b338                sm_encryption_key_size
 .text.sm.auth  0x000000001000b358       0x20 ..\..\..\libs\ble\libbtstack.a(sm.o)
                0x000000001000b358                sm_authenticated
 .text.sm.auth.sta
                0x000000001000b378       0x24 ..\..\..\libs\ble\libbtstack.a(sm.o)
                0x000000001000b378                sm_authorization_state
 .text.sm.pairing
                0x000000001000b39c       0x1c ..\..\..\libs\ble\libbtstack.a(sm.o)
                0x000000001000b39c                sm_request_pairing
 .text.sm.confirm
                0x000000001000b3b8       0x26 ..\..\..\libs\ble\libbtstack.a(sm.o)
                0x000000001000b3b8                sm_just_works_confirm
 .text.sm.passkey.get
                0x000000001000b3de       0x20 ..\..\..\libs\ble\libbtstack.a(sm.o)
                0x000000001000b3de                sm_passkey_input_get
 .text.sm.passkey.input
                0x000000001000b3fe       0x3e ..\..\..\libs\ble\libbtstack.a(sm.o)
                0x000000001000b3fe                sm_passkey_input
 .text.sm.index
                0x000000001000b43c       0x14 ..\..\..\libs\ble\libbtstack.a(sm.o)
                0x000000001000b43c                sm_le_device_index
 .text.gap.rau.mode
                0x000000001000b450       0x54 ..\..\..\libs\ble\libbtstack.a(sm.o)
                0x000000001000b450                gap_random_address_set_mode
 .text.gap.addr
                0x000000001000b4a4        0x8 ..\..\..\libs\ble\libbtstack.a(sm.o)
                0x000000001000b4a4                gap_random_address_get_mode
 *fill*         0x000000001000b4ac        0x0 
 .text.sm.run   0x000000001000b4ac      0xaf2 ..\..\..\libs\ble\libbtstack.a(sm.o)
 *fill*         0x000000001000bf9e        0x2 
 .text.sm.pdu   0x000000001000bfa0      0x26c ..\..\..\libs\ble\libbtstack.a(sm.o)
 *fill*         0x000000001000c20c        0x0 
 .text.sm.event
                0x000000001000c20c      0x902 ..\..\..\libs\ble\libbtstack.a(sm.o)
 .text.gap.rau_set
                0x000000001000cb0e       0x28 ..\..\..\libs\ble\libbtstack.a(sm.o)
                0x000000001000cb0e                gap_random_address_set
 .text.sm.addr  0x000000001000cb36        0xc ..\..\..\libs\ble\libbtstack.a(sm.o)
                0x000000001000cb36                gap_random_address_get
 .text.gap.adv  0x000000001000cb42        0x4 ..\..\..\libs\ble\libbtstack.a(sm.o)
                0x000000001000cb42                gap_advertisements_set_params
 .text.sm.reconnect
                0x000000001000cb46       0x48 ..\..\..\libs\ble\libbtstack.a(sm.o)
                0x000000001000cb46                gap_reconnect_security_setup_active
 .text          0x000000001000cb8e       0x34 ..\..\..\libs\ble\libbtstack.a(le_device_db_memory.o)
                0x000000001000cb8e                le_device_db_count
 .text.le.db.max
                0x000000001000cbc2        0x4 ..\..\..\libs\ble\libbtstack.a(le_device_db_memory.o)
                0x000000001000cbc2                ble_bonding_info_max_count
 .text.le.db.write
                0x000000001000cbc6       0x1a ..\..\..\libs\ble\libbtstack.a(le_device_db_memory.o)
                0x000000001000cbc6                le_device_db_info_save_for_index
 .text.le.db.read
                0x000000001000cbe0       0x1a ..\..\..\libs\ble\libbtstack.a(le_device_db_memory.o)
                0x000000001000cbe0                le_device_db_info_load_for_index
 .text.le.db.init
                0x000000001000cbfa       0x58 ..\..\..\libs\ble\libbtstack.a(le_device_db_memory.o)
                0x000000001000cbfa                le_device_db_init
 .text.le.db.remove
                0x000000001000cc52       0x8a ..\..\..\libs\ble\libbtstack.a(le_device_db_memory.o)
                0x000000001000cc52                le_device_db_remove
 .text.le.db.add
                0x000000001000ccdc       0xb2 ..\..\..\libs\ble\libbtstack.a(le_device_db_memory.o)
                0x000000001000ccdc                le_device_db_add
 .text.le.db    0x000000001000cd8e      0x158 ..\..\..\libs\ble\libbtstack.a(le_device_db_memory.o)
                0x000000001000cd8e                le_device_db_info
                0x000000001000cde8                le_device_db_encryption_set
                0x000000001000ce50                le_device_db_encryption_get
 .text          0x000000001000cee6       0x24 ..\..\..\libs\ble\libbtstack.a(gatt_server.o)
                0x000000001000cee6                att_server_send_func_get
 .text.ble.indicate
                0x000000001000cf0a       0xa0 ..\..\..\libs\ble\libbtstack.a(gatt_server.o)
                0x000000001000cf0a                ble_send_indicate_packet
                0x000000001000cf4a                ble_indicate_for_handle
 *fill*         0x000000001000cfaa        0x2 
 .text          0x000000001000cfac     0x1ace ..\..\..\libs\ble\libbtstack.a(gatt_client.o)
                0x000000001000d516                att_client_register_handler
                0x000000001000d522                gatt_client_init
                0x000000001000d6ce                gatt_client_is_ready
                0x000000001000d6e6                gatt_client_get_mtu
                0x000000001000dc4e                gatt_client_listen_for_characteristic_value_updates
                0x000000001000dc6c                gatt_client_write_value_of_characteristic_without_response
                0x000000001000dd06                gatt_client_write_value_of_characteristic
                0x000000001000dd8c                ble_service_query_result_get_service
                0x000000001000dd94                ble_characteristic_query_result_get_characteristic
                0x000000001000dd9c                ble_client_write_client_characteristic_configuration
                0x000000001000de16                att_client_send_func_get
                0x000000001000e968                gatt_client_read_value_of_characteristic_using_value_handle
                0x000000001000ea0a                gatt_client_write_client_characteristic_configuration
 .text.client.get_context
                0x000000001000ea7a       0x18 ..\..\..\libs\ble\libbtstack.a(gatt_client.o)
                0x000000001000ea7a                gatt_client_get_context_for_handle
 .text.client.request_can_send
                0x000000001000ea92       0x28 ..\..\..\libs\ble\libbtstack.a(gatt_client.o)
                0x000000001000ea92                att_client_request_can_send_now_event
 .text.client.write_req
                0x000000001000eaba       0x6c ..\..\..\libs\ble\libbtstack.a(gatt_client.o)
                0x000000001000eaba                att_write_request
                0x000000001000eb06                ble_write_req_for_character
 *fill*         0x000000001000eb26        0x2 
 .text.sm.client
                0x000000001000eb28      0x15c ..\..\..\libs\ble\libbtstack.a(gatt_client.o)
                0x000000001000eb28                ble_sm_client_event_do
 .text.client.deserialize_service
                0x000000001000ec84       0x48 ..\..\..\libs\ble\libbtstack.a(gatt_client.o)
                0x000000001000ec84                gatt_client_deserialize_service
 .text.client.deserialize_characteristic
                0x000000001000eccc       0x58 ..\..\..\libs\ble\libbtstack.a(gatt_client.o)
                0x000000001000eccc                gatt_client_deserialize_characteristic
 .text.client.send_req
                0x000000001000ed24       0x16 ..\..\..\libs\ble\libbtstack.a(gatt_client.o)
                0x000000001000ed24                btstack_ble_client_send_req
 .text.client.send
                0x000000001000ed3a       0xa8 ..\..\..\libs\ble\libbtstack.a(gatt_client.o)
                0x000000001000ed3a                att_event_client_send
 .text.client.find_services_uuid128
                0x000000001000ede2       0x54 ..\..\..\libs\ble\libbtstack.a(gatt_client.o)
                0x000000001000ede2                gatt_client_discover_primary_services_by_uuid128
                0x000000001000ee28                ble_client_discover_primary_services_by_uuid128
 .text.client.read_long_value_offset
                0x000000001000ee36       0x3a ..\..\..\libs\ble\libbtstack.a(gatt_client.o)
                0x000000001000ee36                gatt_client_read_long_value_of_characteristic_using_value_handle_with_offset
 .text          0x000000001000ee70      0x1c4 ..\..\..\libs\ble\libbtstack.a(att_server.o)
                0x000000001000ef8c                att_server_handler_list_init
                0x000000001000ef94                att_server_mtu_exch_complete_ind
                0x000000001000efa4                att_server_can_send_packet_now
 *fill*         0x000000001000f034        0x0 
 .text.sm.server
                0x000000001000f034      0x1e2 ..\..\..\libs\ble\libbtstack.a(att_server.o)
                0x000000001000f034                ble_sm_server_event_do
 .text.server.register_service
                0x000000001000f216       0x2a ..\..\..\libs\ble\libbtstack.a(att_server.o)
                0x000000001000f216                att_server_register_service_handler
 .text.server.init
                0x000000001000f240       0x7a ..\..\..\libs\ble\libbtstack.a(att_server.o)
                0x000000001000f240                att_server_init
 .text.server.packet_handler
                0x000000001000f2ba      0x1a4 ..\..\..\libs\ble\libbtstack.a(att_server.o)
 .text.att.event_handler
                0x000000001000f45e      0x164 ..\..\..\libs\ble\libbtstack.a(att_server.o)
 .text.server.indicate
                0x000000001000f5c2       0x90 ..\..\..\libs\ble\libbtstack.a(att_server.o)
                0x000000001000f5c2                att_server_indicate
 .text          0x000000001000f652      0x1ce ..\..\..\libs\ble\libbtstack.a(att_dispatch.o)
                0x000000001000f734                att_dispatch_connected_event
                0x000000001000f792                att_dispatch_disconnected_event
                0x000000001000f7ba                att_dispatch_connect_param_update_event
                0x000000001000f7e8                att_dispatch_encryption_change_event
                0x000000001000f818                att_dispatch_sm_event
 .text.att.register_client
                0x000000001000f820       0x14 ..\..\..\libs\ble\libbtstack.a(att_dispatch.o)
                0x000000001000f820                att_dispatch_register_client
 .text.att.is_register_client
                0x000000001000f834        0xc ..\..\..\libs\ble\libbtstack.a(att_dispatch.o)
                0x000000001000f834                att_dispatch_client_is_register
 .text.att.register_server
                0x000000001000f840       0x14 ..\..\..\libs\ble\libbtstack.a(att_dispatch.o)
                0x000000001000f840                att_dispatch_register_server
 .text.att.dispatch
                0x000000001000f854        0x6 ..\..\..\libs\ble\libbtstack.a(att_dispatch.o)
                0x000000001000f854                att_dispatch_can_send_now
 .text.att.dispatch_client
                0x000000001000f85a       0x12 ..\..\..\libs\ble\libbtstack.a(att_dispatch.o)
                0x000000001000f85a                att_dispatch_client_request_can_send_now_event
 .text.att.client_mtu
                0x000000001000f86c       0x2a ..\..\..\libs\ble\libbtstack.a(att_dispatch.o)
                0x000000001000f86c                att_dispatch_client_mtu_exchanged
 .text.att.server_mtu
                0x000000001000f896       0x2a ..\..\..\libs\ble\libbtstack.a(att_dispatch.o)
                0x000000001000f896                att_dispatch_server_mtu_exchanged
 *fill*         0x000000001000f8c0        0x0 
 .text          0x000000001000f8c0      0xddc ..\..\..\libs\ble\libbtstack.a(att_db.o)
                0x000000001000faba                att_uuid_for_handle
                0x000000001000fae4                att_set_db
                0x000000001000faec                att_set_read_callback
                0x000000001000faf4                att_set_write_callback
                0x000000001000fafc                handle_exchange_mtu_request
                0x000000001000fb24                att_clear_transaction_queue
                0x000000001000fb40                att_prepare_handle_value_indication
                0x000000001000fb7e                att_handle_request
                0x0000000010010548                gatt_server_get_get_handle_range_for_service_with_uuid16
                0x00000000100105ce                gatt_server_get_value_handle_for_characteristic_with_uuid16
                0x0000000010010610                gatt_server_get_client_configuration_handle_for_characteristic_with_uuid16
 .text.att.mtu_request
                0x000000001001069c       0x38 ..\..\..\libs\ble\libbtstack.a(att_db.o)
                0x000000001001069c                att_exchange_mtu_request
 .text.att_server.mtu_rsp
                0x00000000100106d4       0x2a ..\..\..\libs\ble\libbtstack.a(att_db.o)
                0x00000000100106d4                handle_exchange_mtu_response
 .text          0x00000000100106fe       0xf8 ..\..\..\libs\ble\libbtstack.a(btstack_api.o)
                0x00000000100106fe                btstack_ble_disable_ext_adv
                0x0000000010010700                btstack_ble_enable_adv
                0x0000000010010706                btstack_ble_disable_adv
                0x000000001001070c                btstack_ble_set_adv_param
                0x0000000010010760                btstack_ble_sm_passkey_input
                0x0000000010010776                btstack_ble_sm_send_security_request
                0x000000001001077a                btstack_ble_ctrl_connection_latency
                0x0000000010010786                btstack_ble_set_random_static_addr
                0x0000000010010790                btstack_ble_update_random_addr
                0x0000000010010794                btstack_ble_single_tone_mode_enter
                0x00000000100107aa                btstack_ctl_api
                0x00000000100107c2                btstack_ble_rmv_dev_from_white_list
                0x00000000100107c4                btstack_ble_enable_ext_adv
                0x00000000100107c6                btstack_ble_set_ext_adv_data
                0x00000000100107c8                btstack_ble_set_ext_adv_param
                0x00000000100107ca                btstack_ble_enable_scan
                0x00000000100107cc                btstack_ble_disable_scan
                0x00000000100107ce                btstack_ble_set_scan_param
                0x00000000100107d0                btstack_ble_conn_by_addr
                0x00000000100107d2                btstack_ble_ext_conn_by_addr
                0x00000000100107d4                btstack_ble_conn_cancel
                0x00000000100107d6                btstack_ble_rslv_enable
                0x00000000100107d8                btstack_ble_rslv_renew_to_set
                0x00000000100107da                btstack_ble_add_dev_to_ral_list
                0x00000000100107dc                btstack_ble_rmv_dev_from_ral_list
                0x00000000100107de                btstack_ble_add_dev_to_white_list
                0x00000000100107e0                btstack_var_init
                0x00000000100107f2                btstack_ble_get_conn_rssi
 .text.stack.sleep
                0x00000000100107f6       0x24 ..\..\..\libs\ble\libbtstack.a(btstack_api.o)
                0x00000000100107f6                btstack_exit_sleep
                0x0000000010010802                btstack_enter_sleep
 .text.stack.api
                0x000000001001081a       0x34 ..\..\..\libs\ble\libbtstack.a(btstack_api.o)
                0x000000001001081a                btstack_off
                0x000000001001083a                bt_init
 .text.stack.setup
                0x000000001001084e       0x4e ..\..\..\libs\ble\libbtstack.a(btstack_api.o)
                0x000000001001084e                btstack_setup
 .text.ble.hci  0x000000001001089c       0xf8 ..\..\..\libs\ble\libbtstack.a(btstack_api.o)
                0x000000001001089c                btstack_ble_set_adv_interval
                0x00000000100108c4                btstack_ble_set_adv_data
                0x00000000100108d4                btstack_ble_set_scan_rsp_data
                0x00000000100108e4                btstack_ble_disconnect
                0x00000000100108fe                btstack_ble_update_conn_param
                0x000000001001094e                btstack_ble_ll_update_conn_param
 .text.stack.api
                0x0000000010010994       0x5c ..\..\..\libs\ble\libbtstack.a(bt_api.o)
                0x0000000010010994                bt_off
                0x00000000100109be                bt_setup
 .text.stack.sleep
                0x00000000100109f0       0xb4 ..\..\..\libs\ble\libbtstack.a(bt_api.o)
                0x00000000100109f0                bt_enter_sleep
                0x0000000010010a4a                bt_exit_sleep
 .text.ble.api.conn.update
                0x0000000010010aa4       0x90 ..\..\..\libs\ble\libbtstack.a(ble_api.o)
                0x0000000010010b2a                ble_update_conn_param
 .text.ble.api.adv_interval.set
                0x0000000010010b34       0x36 ..\..\..\libs\ble\libbtstack.a(ble_api.o)
                0x0000000010010b34                ble_set_adv_interval
 .text.ble.api.adv.adv_interval.get
                0x0000000010010b6a        0xe ..\..\..\libs\ble\libbtstack.a(ble_api.o)
                0x0000000010010b6a                ble_get_adv_interval
 .text.ble.api.conn_param.get
                0x0000000010010b78        0x4 ..\..\..\libs\ble\libbtstack.a(ble_api.o)
                0x0000000010010b78                ble_get_conn_param
 .text.ble.api.latency.dis
                0x0000000010010b7c       0x2c ..\..\..\libs\ble\libbtstack.a(ble_api.o)
                0x0000000010010b7c                ble_disable_latency
 .text.ble.api.latency.en
                0x0000000010010ba8       0x2c ..\..\..\libs\ble\libbtstack.a(ble_api.o)
                0x0000000010010ba8                ble_enable_latency
 .text.ble.api.adv_param.set
                0x0000000010010bd4       0x3c ..\..\..\libs\ble\libbtstack.a(ble_api.o)
                0x0000000010010bd4                ble_set_adv_param
 .text.ble.api.regist
                0x0000000010010c10        0x8 ..\..\..\libs\ble\libbtstack.a(ble_api.o)
                0x0000000010010c10                ble_init_callback_register
                0x0000000010010c14                ble_vs_tbox_init_callback_register
 .text          0x0000000010010c18       0xaa ..\..\..\libs\ble\libbtstack.a(rf.o)
                0x0000000010010c18                rf_off
                0x0000000010010c42                rf_reset
                0x0000000010010c44                rf_init
 .text.rf.tx_tone
                0x0000000010010cc2       0x4e ..\..\..\libs\ble\libbtstack.a(rf.o)
                0x0000000010010cc2                rf_single_tone_enter
 *fill*         0x0000000010010d10       0xf0 
 .text          0x0000000010010e00      0x822 ..\..\..\libs\ble\libbtstack.a(ble_con.o)
                0x0000000010010e00                ble_con_evt_time_update_fix
                0x0000000010010f00                ble_con_start_do
                0x0000000010010f28                ble_con_start
                0x0000000010011400                ble_con_stop
                0x0000000010011480                ble_con_offset_get
                0x00000000100114c0                ble_con_pref_slave_latency_set
                0x00000000100114fc                ble_con_peer_sca_set
                0x0000000010011524                ble_event_start_hook_register
 .text.le.con   0x0000000010011622       0x84 ..\..\..\libs\ble\libbtstack.a(ble_con.o)
                0x0000000010011622                ble_get_con_var
                0x000000001001162a                ble_get_con_rssi
                0x0000000010011640                ble_con_init
 .text          0x00000000100116a6      0x150 ..\..\..\libs\ble\libbtstack.a(bb_int.o)
                0x00000000100116a6                bb_sleep_init
                0x00000000100116ce                bb_driver_init
 *fill*         0x00000000100117f6        0xa 
 .text.bb.aes   0x0000000010011800      0x1f4 ..\..\..\libs\ble\libbtstack.a(bb_int.o)
                0x0000000010011800                bb_aes_encrypt
 .text          0x00000000100119f4      0x24c ..\..\..\libs\ble\libbtstack.a(bb.o)
                0x00000000100119f4                bb_rand_init
                0x00000000100119fc                bb_get_heap_info
                0x0000000010011a0e                bb_var_init
                0x0000000010011a16                bb_nanos_mem_init
                0x0000000010011a60                bb_reset
                0x0000000010011ade                bb_init
                0x0000000010011bf0                bb_off
 .text          0x0000000010011c40       0x3a ..\..\..\libs\ble\libbtstack.a(extern_ble.o)
                0x0000000010011c64                att_user_read_callback
                0x0000000010011c68                att_user_write_callback
                0x0000000010011c70                ble_sync_link_info
                0x0000000010011c76                hci_event_debug_en
 .text          0x0000000010011c7a       0x72 ..\..\..\libs\ble\libbtstack.a(l2cap.o)
                0x0000000010011cd6                l2cap_register_packet_handler
                0x0000000010011cde                l2cap_max_le_mtu
 .text.stk.l2cap.txreq
                0x0000000010011cec       0x9e ..\..\..\libs\ble\libbtstack.a(l2cap.o)
 .text.stack.l2cap
                0x0000000010011d8a      0x12a ..\..\..\libs\ble\libbtstack.a(l2cap.o)
                0x0000000010011e6a                l2cap_clear_pending_tx
 .text.stack.handler.l2cap
                0x0000000010011eb4      0x11a ..\..\..\libs\ble\libbtstack.a(l2cap.o)
                0x0000000010011fc6                l2cap_can_send_fixed_channel_packet_now
 .text.stack.l2cap.gap
                0x0000000010011fce       0x20 ..\..\..\libs\ble\libbtstack.a(l2cap.o)
                0x0000000010011fce                gap_request_connection_parameter_update
 .text.stack.setup
                0x0000000010011fee       0x70 ..\..\..\libs\ble\libbtstack.a(l2cap.o)
                0x0000000010011fee                l2cap_init
                0x000000001001203c                l2cap_register_fixed_channel
 .text.stack.l2cap.connectionless
                0x000000001001205e       0x44 ..\..\..\libs\ble\libbtstack.a(l2cap.o)
                0x000000001001205e                l2cap_send_connectionless
 .text.stack.setup
                0x00000000100120a2        0x2 ..\..\..\libs\ble\libbtstack.a(hci_dump.o)
                0x00000000100120a2                hci_dump_open
 *fill*         0x00000000100120a4        0x0 
 .text.stack.hci_send
                0x00000000100120a4      0x28e ..\..\..\libs\ble\libbtstack.a(hci_cmd.o)
                0x00000000100120a4                hci_cmd_create_from_template
 .text          0x0000000010012332      0x2d0 ..\..\..\libs\ble\libbtstack.a(hci.o)
                0x0000000010012332                hci_get_state
                0x000000001001233c                hci_shutdown_connection
                0x000000001001235e                gap_le_get_own_address
                0x000000001001239a                hci_le_set_own_address_type
                0x00000000100123ce                hci_le_random_address_set
                0x00000000100123f2                gap_ctrl_connection_parameter_latency
                0x000000001001241a                gap_set_connection_parameters
                0x0000000010012432                gap_set_ext_connection_parameters
                0x000000001001245a                gap_get_connection_parameters
                0x0000000010012482                gap_get_connection_parameters_for_handle
                0x00000000100124b8                gap_update_connection_parameters_do
                0x00000000100124f0                gap_update_connection_parameters
                0x0000000010012524                gap_advertisements_set_data
                0x000000001001253c                gap_scan_response_set_data
                0x0000000010012554                gap_advertisements_enable
                0x0000000010012584                gap_ext_advertisements_set_data
                0x0000000010012586                gap_ext_scan_response_set_data
                0x0000000010012588                gap_ext_advertisements_enable
                0x000000001001258a                gap_ext_advertisements_set_params
                0x000000001001258c                ble_per_advertisements_set_data
                0x000000001001258e                ble_per_advertisements_enable
                0x0000000010012590                ble_per_advertisements_add_device_list
                0x0000000010012592                ble_per_advertisements_creat_sync
                0x0000000010012594                ble_per_advertisements_creat_sync_cancel
                0x0000000010012596                ble_per_advertisements_terminate_sync
                0x0000000010012598                ble_vs_tbox_prod_test_start
                0x00000000100125ae                gap_disconnect
                0x00000000100125fe                hci_rx_flush
 .text.stack.hci_init
                0x0000000010012602       0x96 ..\..\..\libs\ble\libbtstack.a(hci.o)
                0x0000000010012622                hci_power_control
 .text.stack.handler.acl
                0x0000000010012698       0x16 ..\..\..\libs\ble\libbtstack.a(hci.o)
 .text.stack.setup
                0x00000000100126ae       0xba ..\..\..\libs\ble\libbtstack.a(hci.o)
                0x00000000100126e8                hci_add_event_handler
                0x00000000100126f6                hci_register_acl_packet_handler
                0x0000000010012700                hci_init
 .text.stack.hci
                0x0000000010012768      0x174 ..\..\..\libs\ble\libbtstack.a(hci.o)
 .text.stack.hci.conn
                0x00000000100128dc       0xc8 ..\..\..\libs\ble\libbtstack.a(hci.o)
                0x00000000100128dc                get_free_hci_connection
                0x00000000100128fa                create_connection_for_bd_addr_and_type
                0x0000000010012970                hci_connection_for_bd_addr_and_type
 .text.ble.hci  0x00000000100129a4      0x194 ..\..\..\libs\ble\libbtstack.a(hci.o)
                0x00000000100129a4                ble_event_cmd_complete
                0x0000000010012a2c                ble_event_meta
 .text.stack.hci_send
                0x0000000010012b38       0xb6 ..\..\..\libs\ble\libbtstack.a(hci.o)
                0x0000000010012b38                hci_send_cmd_packet
                0x0000000010012b94                hci_send_cmd
 *fill*         0x0000000010012bee       0x12 
 .text.stack.hci.run
                0x0000000010012c00      0x3de ..\..\..\libs\ble\libbtstack.a(hci.o)
 .text.stack.hci_emit
                0x0000000010012fde       0x2e ..\..\..\libs\ble\libbtstack.a(hci.o)
                0x0000000010012fde                hci_emit_state
 .text.stack.hci.le.adv
                0x000000001001300c       0x46 ..\..\..\libs\ble\libbtstack.a(hci.o)
                0x000000001001300c                hci_le_advertisements_set_params
 .text          0x0000000010013052       0x42 ..\..\..\libs\ble\libbtstack.a(btstack_util.o)
                0x0000000010013052                log_info_hexdump
                0x0000000010013054                log_info_key
                0x0000000010013056                uuid_add_bluetooth_prefix
                0x0000000010013078                uuid_has_bluetooth_prefix
 .text.stack.util
                0x0000000010013094      0x126 ..\..\..\libs\ble\libbtstack.a(btstack_util.o)
                0x0000000010013094                bd_addr_cmp
                0x000000001001309a                bd_addr_copy
                0x00000000100130a0                big_endian_read_16
                0x00000000100130b0                big_endian_read_32
                0x00000000100130d0                big_endian_store_16
                0x00000000100130e4                big_endian_store_32
                0x0000000010013118                reverse_bytes
                0x0000000010013134                reverse_24
                0x0000000010013138                reverse_48
                0x000000001001313c                reverse_56
                0x0000000010013140                reverse_64
                0x0000000010013144                reverse_128
                0x0000000010013148                reverse_256
                0x000000001001314e                reverse_bd_addr
                0x0000000010013150                btstack_min
                0x0000000010013156                btstack_max
                0x000000001001315c                char_for_nibble
                0x0000000010013182                nibble_for_char
 .text.stack.hci_dump
                0x00000000100131ba       0x50 ..\..\..\libs\ble\libbtstack.a(btstack_util.o)
                0x00000000100131ba                bd_addr_to_str
 .text          0x000000001001320a        0x2 ..\..\..\libs\ble\libbtstack.a(btstack_run_loop.o)
                0x000000001001320a                thread_nanos_task_create
 *fill*         0x000000001001320c       0x74 
 .text.stack.run_loop
                0x0000000010013280      0x168 ..\..\..\libs\ble\libbtstack.a(btstack_run_loop.o)
                0x0000000010013280                btstack_run_loop_set_timer_handler
                0x0000000010013284                btstack_run_loop_set_data_source_handler
                0x0000000010013288                btstack_run_loop_set_data_source_fd
                0x000000001001328c                btstack_run_loop_get_data_source_fd
                0x0000000010013290                btstack_run_loop_enable_data_source_callbacks
                0x000000001001329c                btstack_run_loop_disable_data_source_callbacks
                0x00000000100132ac                btstack_run_loop_add_data_source
                0x00000000100132b6                btstack_run_loop_remove_data_source
                0x00000000100132c0                btstack_run_loop_set_timer
                0x00000000100132da                btstack_run_loop_set_timer_context
                0x00000000100132de                btstack_run_loop_get_timer_context
                0x0000000010013300                btstack_run_loop_set_trig_ticks
                0x000000001001333c                btstack_run_loop_add_timer
                0x000000001001336c                btstack_run_loop_remove_timer
                0x000000001001339c                btstack_run_loop_get_ticks
                0x00000000100133a6                btstack_run_loop_ticks_for_ms
                0x00000000100133ac                btstack_run_loop_get_time_ms
                0x00000000100133b8                btstack_run_loop_timer_dump
 .text.stack.setup
                0x00000000100133e8       0x2e ..\..\..\libs\ble\libbtstack.a(btstack_run_loop.o)
                0x00000000100133e8                btstack_run_loop_init
 .text          0x0000000010013416       0x2c ..\..\..\libs\ble\libbtstack.a(btstack_memory.o)
                0x0000000010013416                btstack_memory_gatt_client_get
                0x0000000010013420                btstack_memory_gatt_client_free
                0x000000001001342c                btstack_memory_gatt_client_init
 .text.stack.setup
                0x0000000010013442        0x2 ..\..\..\libs\ble\libbtstack.a(btstack_memory.o)
                0x0000000010013442                btstack_memory_init
 .text.stack.linked_list
                0x0000000010013444       0x78 ..\..\..\libs\ble\libbtstack.a(btstack_linked_list.o)
                0x0000000010013444                btstack_linked_list_get_last_item
                0x0000000010013452                btstack_linked_list_add
                0x0000000010013466                btstack_linked_list_add_tail
                0x000000001001347a                btstack_linked_list_remove
                0x0000000010013492                btstack_linked_list_count
                0x00000000100134a0                btstack_linked_list_iterator_remove
                0x00000000100134b0                btstack_linked_list_pop
 .text          0x00000000100134bc       0x2a ..\..\..\libs\ble\libbtstack.a(hci_transport_hcic.o)
                0x00000000100134bc                hcic_rx_flush
                0x00000000100134d8                hci_init_var
 .text.stack.hcic
                0x00000000100134e6       0x5c ..\..\..\libs\ble\libbtstack.a(hci_transport_hcic.o)
 .text          0x0000000010013542       0x10 ..\..\..\libs\ble\libbtstack.a(hci_transport_dummy.o)
                0x0000000010013542                hci_iodm_init
 .text          0x0000000010013552       0x10 ..\..\..\libs\ble\libbtstack.a(btstack_main.o)
                0x0000000010013552                btstack_ble_set_init_callback
                0x000000001001355a                btstack_ble_vs_tbox_set_init_callback
 .text.stack.handler
                0x0000000010013562       0x60 ..\..\..\libs\ble\libbtstack.a(btstack_main.o)
 .text.stack.ble.setup
                0x00000000100135c2        0x4 ..\..\..\libs\ble\libbtstack.a(btstack_main.o)
                0x00000000100135c2                btstack_ble_init
 .text.stack.setup
                0x00000000100135c6       0x34 ..\..\..\libs\ble\libbtstack.a(btstack_main.o)
                0x00000000100135c6                btstack_main
 .text          0x00000000100135fa       0x18 ..\..\..\libs\ble\libbtstack.a(btstack_hal.o)
                0x00000000100135fa                hal_tick_init
                0x0000000010013600                hal_tick_set_handler
 .text          0x0000000010013612       0x70 ..\..\..\libs\ble\libbtstack.a(nanos.o)
                0x0000000010013612                nanos_init
                0x0000000010013646                nanos_var_init
 .text          0x0000000010013682       0x34 ..\..\..\libs\ble\libbtstack.a(bb_sche.o)
                0x0000000010013682                bb_sche_frag_ble_dur_set
                0x0000000010013694                bb_sche_init
 .text          0x00000000100136b6       0xaa ..\..\..\libs\ble\libbtstack.a(patch.o)
                0x00000000100136b6                bb_patch_dummy
                0x00000000100136b8                bb_patch_init
 .text          0x0000000010013760       0xfe ..\..\..\libs\ble\libbtstack.a(bb_clk.o)
                0x0000000010013760                bb_clk_init
                0x000000001001385c                bb_clk_off
 .text.bb.aes   0x000000001001385e      0x25c ..\..\..\libs\ble\libbtstack.a(aes.o)
                0x000000001001385e                aes_init
                0x00000000100138a8                aes_alloc
                0x00000000100138ca                aes_start
                0x0000000010013908                aes_encrypt
                0x0000000010013954                aes_rand
                0x0000000010013990                aes_result_handler
                0x00000000100139f8                ble_ecpy
 .text          0x0000000010013aba       0x3c ..\..\..\libs\ble\libbtstack.a(extern.o)
                0x0000000010013acc                ble_adv_is_private_mode
                0x0000000010013ad0                ble_scan_is_private_mode
                0x0000000010013ad4                ble_private_access_code_get
                0x0000000010013ae6                ble_scan_freq_hop_en
                0x0000000010013aea                ble_tbox_feature_req_enabled
                0x0000000010013aee                ble_chmap_instant_pass_discon
                0x0000000010013af2                ble_adv_duration_get
 .text          0x0000000010013af6       0x9c ..\..\..\libs\ble\libbtstack.a(vs.o)
                0x0000000010013af6                vs_init
                0x0000000010013b32                vs_reset_complete_evt
 .text          0x0000000010013b92      0xc2a ..\..\..\libs\ble\libbtstack.a(rf_xbox.o)
                0x0000000010013e26                rfphy_rxdc_cal
                0x0000000010014130                rfphy_txdc_cal
                0x0000000010014786                rfphy_test
                0x0000000010014788                ble_rf_external_pa_init
 .text.bb.phy.pll
                0x00000000100147bc       0x9c ..\..\..\libs\ble\libbtstack.a(rf_xbox.o)
                0x00000000100147bc                rfphy_pll_afc
 .text.bb.phy.tx
                0x0000000010014858      0x10a ..\..\..\libs\ble\libbtstack.a(rf_xbox.o)
                0x0000000010014858                rfphy_tx
                0x00000000100148d8                rfphy_tx_tone
 .text.bb.rf    0x0000000010014962       0x7a ..\..\..\libs\ble\libbtstack.a(rf_xbox.o)
                0x0000000010014962                rfphy_tx_pwr
                0x00000000100149ac                rfphy_sw_ctrl
 .text          0x00000000100149dc       0x8e ..\..\..\libs\ble\libbtstack.a(complex.o)
                0x00000000100149dc                complexAdd
                0x00000000100149e6                complexSubtract
                0x00000000100149f0                complexMultiply
                0x0000000010014a0c                complexDivision
 .text          0x0000000010014a6a        0x2 ..\..\..\libs\ble\libbtstack.a(ble_hook.o)
                0x0000000010014a6a                ble_hal_init_hook
 *fill*         0x0000000010014a6c      0x194 
 .text          0x0000000010014c00      0x84c ..\..\..\libs\ble\libbtstack.a(hct_tl.o)
                0x0000000010015000                hci_tx_done_do
                0x0000000010015200                hci_tl_send
                0x0000000010015254                hci_tl_init
                0x0000000010015290                hci_cmd_received
 .text          0x000000001001544c      0x20a ..\..\..\libs\ble\libbtstack.a(hct_msg.o)
                0x000000001001552a                hci_look_for_cmd_desc
                0x00000000100155b8                hci_look_for_evt_desc
                0x00000000100155fa                hci_look_for_dbg_evt_desc
                0x0000000010015614                hci_look_for_le_evt_desc
 .text          0x0000000010015656       0x30 ..\..\..\libs\ble\libbtstack.a(hct.o)
                0x0000000010015656                hct_init
                0x0000000010015666                hci_send_2_host
                0x000000001001566c                hci_ble_conhdl_register
                0x000000001001567a                hci_ble_conhdl_unregister
 .text          0x0000000010015686      0x17a ..\..\..\libs\ble\libbtstack.a(mgr_hci.o)
                0x00000000100157ec                hci_le_rd_buff_size
 .text.le.mgr   0x0000000010015800       0x38 ..\..\..\libs\ble\libbtstack.a(mgr_hci.o)
                0x0000000010015800                hci_command_mgr_func
 .text          0x0000000010015838      0x452 ..\..\..\libs\ble\libbtstack.a(mgr.o)
                0x0000000010015838                mgr_cmd_cmp_send
                0x0000000010015860                mgr_cmd_stat_send
                0x0000000010015888                mgr_is_dev_connected
                0x00000000100158f2                mgr_ral_is_empty
                0x00000000100158f6                mgr_ch_map_update
                0x0000000010015a02                mgr_init
                0x0000000010015b20                mgr_clk_acc_set
                0x0000000010015b5e                mgr_link_disc
                0x0000000010015b92                mgr_le_evt_mask_check
                0x0000000010015bac                mgr_le_get_features
                0x0000000010015bfc                mgr_le_get_tbox_feat
                0x0000000010015c0a                mgr_plan_elt_get
                0x0000000010015c18                mgr_act_get_free
                0x0000000010015c68                mgr_act_set_free
 .text          0x0000000010015c8a      0x654 ..\..\..\libs\ble\libbtstack.a(ll_adv.o)
                0x0000000010015d14                ll_adv_hdl_to_idx
                0x0000000010015d64                hci_le_set_adv_param_cmd_func
                0x0000000010015f1a                hci_le_set_adv_data_cmd_func
                0x0000000010015fe6                hci_le_set_scan_rsp_data_cmd_func
                0x00000000100160b2                hci_le_set_adv_en_cmd_func
 .text.le.ll_adv.con
                0x00000000100162de      0x274 ..\..\..\libs\ble\libbtstack.a(ll_adv.o)
                0x00000000100162de                ble_adv_end_con_ind
 .text.le.ll_adv
                0x0000000010016552      0x2aa ..\..\..\libs\ble\libbtstack.a(ll_adv.o)
                0x0000000010016552                ble_adv_end_ind_func
 .text          0x00000000100167fc      0x268 ..\..\..\libs\ble\libbtstack.a(ll_tbox_freq_cal.o)
                0x00000000100168cc                ll_op_tbox_freq_cal_ind_func
                0x00000000100168f8                ll_op_tbox_freq_cal_end_ind_func
                0x00000000100169f2                ll_tbox_freq_cal_proc_start
 .text.le.ll_cntl.pdu
                0x0000000010016a64      0x130 ..\..\..\libs\ble\libbtstack.a(ll_tbox_freq_cal.o)
                0x0000000010016a64                ll_tbox_freq_cal_req_func
                0x0000000010016b14                ll_tbox_freq_cal_rsp_func
 *fill*         0x0000000010016b94        0x0 
 .text          0x0000000010016b94      0xc0c ..\..\..\libs\ble\libbtstack.a(ll_con_upd.o)
                0x0000000010017430                hci_le_con_upd_cmd_func
                0x000000001001755c                ll_op_con_upd_ind_func
                0x00000000100175ee                ble_con_param_upd_cfm_func
                0x000000001001765a                ble_con_offset_upd_ind_func
                0x00000000100176ac                ll_con_move_cb
 .text.le.ll_cntl.pdu
                0x00000000100177a0      0x308 ..\..\..\libs\ble\libbtstack.a(ll_con_upd.o)
                0x00000000100177a0                ll_con_update_ind_func
                0x00000000100178fe                ll_con_param_req_func
                0x0000000010017a12                ll_con_param_rsp_func
 .text          0x0000000010017aa8      0x22c ..\..\..\libs\ble\libbtstack.a(ll_cntl.o)
                0x0000000010017aa8                ll_pdu_send_reject_ind
                0x0000000010017afa                ble_cntl_rx_ind_func
                0x0000000010017c7c                ble_cntl_tx_cfm_func
 .text.le.ll_cntl.pdu
                0x0000000010017cd4       0x64 ..\..\..\libs\ble\libbtstack.a(ll_cntl.o)
 .text.le.ll_cntl.send
                0x0000000010017d38      0x18a ..\..\..\libs\ble\libbtstack.a(ll_cntl.o)
                0x0000000010017d38                ll_cntl_tx_check
                0x0000000010017e24                ll_cntl_send
 .text.le.ll_cntl.pdu
                0x0000000010017ec2       0xee ..\..\..\libs\ble\libbtstack.a(ll_clk_acc.o)
                0x0000000010017ec2                ll_clk_acc_req_func
                0x0000000010017f1c                ll_clk_acc_rsp_func
 .text          0x0000000010017fb0      0x174 ..\..\..\libs\ble\libbtstack.a(ll_chmap_upd.o)
                0x00000000100180a8                ll_op_ch_map_upd_ind_func
                0x0000000010018104                ble_ch_map_upd_cfm_func
 .text.le.ll_cntl.pdu
                0x0000000010018124      0x1c2 ..\..\..\libs\ble\libbtstack.a(ll_chmap_upd.o)
                0x0000000010018124                ll_channel_map_ind_func
                0x0000000010018244                ll_min_used_channels_ind_func
 .text.le.ll_cntl
                0x00000000100182e6      0x2d4 ..\..\..\libs\ble\libbtstack.a(ll.o)
                0x000000001001834e                ll_cleanup
                0x00000000100183d8                ll_init
                0x0000000010018430                ll_role_get
                0x0000000010018466                ll_proc_reg
                0x00000000100184b0                ll_proc_id_get
                0x00000000100184ce                ll_proc_state_get
                0x00000000100184d4                ll_proc_state_set
                0x00000000100184da                ll_proc_get
                0x00000000100184f0                ll_proc_err_ind
                0x0000000010018516                ll_proc_unreg
                0x0000000010018584                ll_proc_collision_check
 .text.le.ll_cntl.start
                0x00000000100185ba      0x22e ..\..\..\libs\ble\libbtstack.a(ll.o)
                0x00000000100185ba                ll_start
 .text.le.ll_cntl.state
                0x00000000100187e8       0x5e ..\..\..\libs\ble\libbtstack.a(ll.o)
                0x00000000100187e8                ll_cntl_state_set
 .text.le.ll_cntl.stop
                0x0000000010018846       0x46 ..\..\..\libs\ble\libbtstack.a(ll.o)
                0x0000000010018846                ll_stop
 .text.le.ll_cntl.timer
                0x000000001001888c       0xd4 ..\..\..\libs\ble\libbtstack.a(ll.o)
                0x000000001001888c                ll_proc_timer_set
                0x00000000100188fa                ll_proc_timer_set_state
 .text          0x0000000010018960      0x1fe ..\..\..\libs\ble\libbtstack.a(ble_hal.o)
                0x0000000010018960                ble_get_rslv_var
                0x0000000010018964                ble_hal_init
                0x0000000010018b56                ble_ch_assess_data_get
 *fill*         0x0000000010018b5e       0xa2 
 .text          0x0000000010018c00      0x6ac ..\..\..\libs\ble\libbtstack.a(ble_adv.o)
                0x0000000010018c00                ble_adv_start_do
                0x0000000010018ca8                ble_adv_start
                0x000000001001924a                ble_get_adv_var
                0x0000000010019252                ble_adv_init
 .text          0x00000000100192ac      0x142 ..\..\..\libs\ble\libbtstack.a(ble_buf.o)
                0x00000000100192ac                ble_buf_init_do
                0x00000000100193a6                ble_buf_init
 .text          0x00000000100193ee       0x42 ..\..\..\libs\ble\libbtstack.a(ble.o)
                0x00000000100193ee                ble_init
 .text.ble.var.init
                0x0000000010019430       0x58 ..\..\..\libs\ble\libbtstack.a(ble.o)
                0x0000000010019430                ble_var_init
 .text.stack.l2cap_sig
                0x0000000010019488       0xcc ..\..\..\libs\ble\libbtstack.a(l2cap_signaling.o)
                0x0000000010019552                l2cap_create_signaling_le
 .text.stack.memory
                0x0000000010019554       0x46 ..\..\..\libs\ble\libbtstack.a(btstack_memory_pool.o)
                0x0000000010019554                btstack_memory_pool_get
                0x0000000010019560                btstack_memory_pool_free
                0x0000000010019574                btstack_memory_pool_create
 .text          0x000000001001959a       0xa8 ..\..\..\libs\ble\libbtstack.a(vs_proc.o)
 .text.bb.vs.fcc_ble.do
                0x0000000010019642       0xa0 ..\..\..\libs\ble\libbtstack.a(vs_fcc.o)
                0x0000000010019642                vs_ble_test_do
 .text.bb.vs.fcc
                0x00000000100196e2       0xc8 ..\..\..\libs\ble\libbtstack.a(vs_fcc.o)
                0x00000000100196e2                vs_ble_test
                0x00000000100196e6                vs_fcc_test_cmd
 .text          0x00000000100197aa        0x4 ..\..\..\libs\ble\libbtstack.a(adv_hook.o)
                0x00000000100197aa                ble_adv_end_ind_hook
 .text          0x00000000100197ae      0x212 ..\..\..\libs\ble\libbtstack.a(mgr_test.o)
                0x00000000100197d0                ble_test_end_ind_func
                0x0000000010019808                hci_le_rx_test_v1_cmd_func
                0x000000001001984e                hci_le_tx_test_v1_cmd_func
                0x00000000100198b2                hci_le_rx_test_v2_cmd_func
                0x0000000010019912                hci_le_tx_test_v2_cmd_func
                0x0000000010019988                hci_le_test_end_cmd_func
 .text          0x00000000100199c0       0x3c ..\..\..\libs\ble\libbtstack.a(mgr_proc.o)
 .text          0x00000000100199fc       0x60 ..\..\..\libs\ble\libbtstack.a(ll_version.o)
                0x0000000010019a28                ble_ll_version_get
 .text.le.ll_cntl.pdu
                0x0000000010019a5c      0x120 ..\..\..\libs\ble\libbtstack.a(ll_version.o)
                0x0000000010019a5c                ll_version_ind_func
 .text          0x0000000010019b7c      0x152 ..\..\..\libs\ble\libbtstack.a(ll_tbox_prod_test.o)
                0x0000000010019c34                ll_op_tbox_prod_test_ind_func
                0x0000000010019c60                ll_tbox_prod_test_proc_start
 .text.le.ll_cntl.pdu
                0x0000000010019cce       0xa0 ..\..\..\libs\ble\libbtstack.a(ll_tbox_prod_test.o)
                0x0000000010019cce                ll_tbox_prod_test_req_func
                0x0000000010019d40                ll_tbox_prod_test_rsp_func
 .text          0x0000000010019d6e      0x134 ..\..\..\libs\ble\libbtstack.a(ll_tbox_feature.o)
                0x0000000010019dfc                ll_op_tbox_feat_exch_ind_func
                0x0000000010019e28                ll_tbox_feat_proc_start
 .text.le.ll_cntl.pdu
                0x0000000010019ea2      0x18a ..\..\..\libs\ble\libbtstack.a(ll_tbox_feature.o)
                0x0000000010019ea2                ll_tbox_feat_req_func
                0x0000000010019fc0                ll_tbox_feat_rsp_func
 .text          0x000000001001a02c      0x25e ..\..\..\libs\ble\libbtstack.a(ll_proc.o)
                0x000000001001a02c                hci_command_ll_func
                0x000000001001a07c                ble_acl_rx_ind_func
                0x000000001001a178                ble_acl_tx_cfm_func
                0x000000001001a1a0                ll_cmd_cmp_send
                0x000000001001a1ce                hci_vs_set_pref_slave_latency_cmd_func
                0x000000001001a21a                hci_vs_tbox_prod_test_req_cmd_func
                0x000000001001a23e                hci_vs_tbox_freq_cal_cmd_func
                0x000000001001a262                ll_cmd_stat_send
 .text          0x000000001001a28a      0x25e ..\..\..\libs\ble\libbtstack.a(ll_ping.o)
                0x000000001001a30a                ll_op_ping_ind_func
                0x000000001001a360                ll_auth_payl_nearly_to_func
                0x000000001001a3ce                ll_ping_restart
                0x000000001001a424                ll_auth_payl_real_to_func
                0x000000001001a482                ll_ping_set
 .text.le.ll_cntl.pdu
                0x000000001001a4e8       0x3c ..\..\..\libs\ble\libbtstack.a(ll_ping.o)
                0x000000001001a4e8                ll_ping_req_func
                0x000000001001a504                ll_ping_rsp_func
 *fill*         0x000000001001a524        0x0 
 .text          0x000000001001a524      0x978 ..\..\..\libs\ble\libbtstack.a(ll_phy_upd.o)
                0x000000001001ad58                ll_op_phy_upd_ind_func
                0x000000001001ade4                ble_phy_upd_cfm_func
                0x000000001001ae1e                ll_phy_upd_proc_start
 .text.le.ll_cntl.pdu
                0x000000001001ae9c      0x234 ..\..\..\libs\ble\libbtstack.a(ll_phy_upd.o)
                0x000000001001ae9c                ll_phy_req_func
                0x000000001001af5e                ll_phy_rsp_func
                0x000000001001aff0                ll_phy_update_ind_func
 .text          0x000000001001b0d0      0x368 ..\..\..\libs\ble\libbtstack.a(ll_length.o)
                0x000000001001b33c                ll_op_length_upd_ind_func
                0x000000001001b3a2                ll_length_proc_start_for_param
                0x000000001001b404                ll_length_proc_start
 .text.le.ll_cntl.pdu
                0x000000001001b438      0x206 ..\..\..\libs\ble\libbtstack.a(ll_length.o)
                0x000000001001b438                ll_length_req_func
                0x000000001001b5a4                ll_length_rsp_func
 .text          0x000000001001b63e      0x29c ..\..\..\libs\ble\libbtstack.a(ll_feature.o)
                0x000000001001b7e8                ll_op_feats_exch_ind_func
                0x000000001001b85c                ll_feature_exchange_proc_start
                0x000000001001b8a6                ble_ll_feature_exchange_get
 .text.le.ll_cntl.pdu
                0x000000001001b8da      0x162 ..\..\..\libs\ble\libbtstack.a(ll_feature.o)
                0x000000001001b8da                ll_feature_req_func
                0x000000001001b94e                ll_slave_feature_req_func
                0x000000001001b9c2                ll_feature_rsp_func
 *fill*         0x000000001001ba3c        0x0 
 .text          0x000000001001ba3c      0x762 ..\..\..\libs\ble\libbtstack.a(ll_encrypt.o)
                0x000000001001bf6a                hci_le_ltk_req_reply_cmd_func
                0x000000001001bfde                hci_le_ltk_req_neg_reply_cmd_func
                0x000000001001c06a                ll_encrypt_ind_func
                0x000000001001c13c                ll_op_encrypt_ind_func
 .text.le.ll_cntl.pdu
                0x000000001001c19e      0x30e ..\..\..\libs\ble\libbtstack.a(ll_encrypt.o)
                0x000000001001c19e                ll_pause_enc_req_func
                0x000000001001c21a                ll_pause_enc_rsp_func
                0x000000001001c27a                ll_enc_req_func
                0x000000001001c37e                ll_enc_rsp_func
                0x000000001001c3fe                ll_start_enc_req_func
                0x000000001001c456                ll_start_enc_rsp_func
 .text          0x000000001001c4ac      0x2de ..\..\..\libs\ble\libbtstack.a(ll_disconnect.o)
                0x000000001001c4ac                ble_disc_ind_func
                0x000000001001c502                ll_stopped_ind_func
                0x000000001001c570                hci_disconnect_cmd_func
                0x000000001001c6c0                ll_op_disconnect_ind_func
                0x000000001001c73a                ll_init_term_proc
 .text.le.ll_proc.disc
                0x000000001001c78a       0x3a ..\..\..\libs\ble\libbtstack.a(ll_disconnect.o)
                0x000000001001c78a                ll_disconnect
 .text.le.ll_cntl.pdu
                0x000000001001c7c4       0x42 ..\..\..\libs\ble\libbtstack.a(ll_disconnect.o)
                0x000000001001c7c4                ll_terminate_ind_func
 .text          0x000000001001c806       0x28 ..\..\..\libs\ble\libbtstack.a(ble_test.o)
                0x000000001001c806                ble_test_init
                0x000000001001c826                ble_get_test_var
 .text.bb.ble.test.start
                0x000000001001c82e       0x2e ..\..\..\libs\ble\libbtstack.a(ble_test.o)
                0x000000001001c82e                ble_test_start
 .text          0x000000001001c85c        0x4 ..\..\..\libs\ble\libbtstack.a(ble_sync.o)
                0x000000001001c85c                ble_get_sync_var
 .text          0x000000001001c860        0x8 ..\..\..\libs\ble\libbtstack.a(ble_scan.o)
                0x000000001001c860                ble_get_scan_var
                0x000000001001c864                ble_get_ssync_var
 .text          0x000000001001c868        0x4 ..\..\..\libs\ble\libbtstack.a(ble_init.o)
                0x000000001001c868                ble_get_init_var
 *(.rodata*)
 *fill*         0x000000001001c86c        0x0 
 .rodata.separate_wakeup_io
                0x000000001001c86c       0x80 Output\obj\driver\driver_gpio.o
                0x000000001001c86c                separate_wakeup_io
 .rodata.lowpwr_get_wakeup_source.str1.4
                0x000000001001c8ec       0x5f Output\obj\driver\driver_lowpwr.o
 *fill*         0x000000001001c94b        0x1 
 .rodata.ble_hid_event_selfie.str1.4
                0x000000001001c94c      0x142 Output\obj\project\solution\ble_hid_composite\app\app_hid_selfie.o
 *fill*         0x000000001001ca8e        0x2 
 .rodata.ble_hid_event_tiktok.str1.4
                0x000000001001ca90       0xef Output\obj\project\solution\ble_hid_composite\app\app_hid_tiktok.o
                                        0x13f (size before relaxing)
 *fill*         0x000000001001cb7f        0x1 
 .rodata.__func__.4319
                0x000000001001cb80        0x9 Output\obj\project\solution\ble_hid_composite\app\func.o
 .rodata.func.str1.4
                0x000000001001cb89       0xef Output\obj\project\solution\ble_hid_composite\app\func.o
                                          0x4 (size before relaxing)
 .rodata.func.bt.str1.4
                0x000000001001cb89        0x4 Output\obj\project\solution\ble_hid_composite\app\func_bt.o
 *fill*         0x000000001001cb89        0x3 
 .rodata.__func__.4139
                0x000000001001cb8c        0xa Output\obj\project\solution\ble_hid_composite\app\func_idle.o
 .rodata.func.idle.str1.4
                0x000000001001cb96        0x4 Output\obj\project\solution\ble_hid_composite\app\func_idle.o
 *fill*         0x000000001001cb96        0x2 
 .rodata.__func__.4997
                0x000000001001cb98        0xc Output\obj\project\solution\ble_hid_composite\app\func_lowpwr.o
 .rodata.__func__.5020
                0x000000001001cba4        0xc Output\obj\project\solution\ble_hid_composite\app\func_lowpwr.o
 .rodata.app.proc.sleep.str1.4
                0x000000001001cbb0       0x14 Output\obj\project\solution\ble_hid_composite\app\func_lowpwr.o
 .rodata.lowpwr.deep_sleep.str1.4
                0x000000001001cbc4       0x21 Output\obj\project\solution\ble_hid_composite\app\func_lowpwr.o
                                         0x25 (size before relaxing)
 *fill*         0x000000001001cbe5        0x3 
 .rodata.__func__.4141
                0x000000001001cbe8       0x1f Output\obj\project\solution\ble_hid_composite\ble\ble_battery_service.o
 *fill*         0x000000001001cc07        0x1 
 .rodata.__func__.4164
                0x000000001001cc08       0x19 Output\obj\project\solution\ble_hid_composite\ble\ble_battery_service.o
 *fill*         0x000000001001cc21        0x3 
 .rodata.battery_service_event_callback.str1.4
                0x000000001001cc24       0x17 Output\obj\project\solution\ble_hid_composite\ble\ble_battery_service.o
 .rodata.ble_battery_service_init.str1.4
                0x000000001001cc3b        0x4 Output\obj\project\solution\ble_hid_composite\ble\ble_battery_service.o
 *fill*         0x000000001001cc3b        0x1 
 .rodata.__func__.4156
                0x000000001001cc3c       0x1a Output\obj\project\solution\ble_hid_composite\ble\ble_client.o
 *fill*         0x000000001001cc56        0x2 
 .rodata.__func__.4172
                0x000000001001cc58       0x10 Output\obj\project\solution\ble_hid_composite\ble\ble_client.o
 .rodata.ble_client_event_callback.str1.4
                0x000000001001cc68      0x109 Output\obj\project\solution\ble_hid_composite\ble\ble_client.o
                                        0x121 (size before relaxing)
 .rodata.ble_client_init.str1.4
                0x000000001001cd71        0x4 Output\obj\project\solution\ble_hid_composite\ble\ble_client.o
 *fill*         0x000000001001cd71        0x3 
 .rodata.__func__.4258
                0x000000001001cd74       0x14 Output\obj\project\solution\ble_hid_composite\ble\ble_fota_service.o
 .rodata.ble_fota_service_init.str1.4
                0x000000001001cd88       0x17 Output\obj\project\solution\ble_hid_composite\ble\ble_fota_service.o
 *fill*         0x000000001001cd9f        0x1 
 .rodata.fot.cache.str1.4
                0x000000001001cda0       0x47 Output\obj\project\solution\ble_hid_composite\ble\ble_fota_service.o
 .rodata.fota_event_callback.str1.4
                0x000000001001cde7       0x17 Output\obj\project\solution\ble_hid_composite\ble\ble_fota_service.o
 *fill*         0x000000001001cde7        0x1 
 .rodata.__func__.4228
                0x000000001001cde8       0x1b Output\obj\project\solution\ble_hid_composite\ble\ble_hid_service.o
 *fill*         0x000000001001ce03        0x1 
 .rodata.__func__.4284
                0x000000001001ce04       0x15 Output\obj\project\solution\ble_hid_composite\ble\ble_hid_service.o
 .rodata.ble_hid_service_init.str1.4
                0x000000001001ce19        0x4 Output\obj\project\solution\ble_hid_composite\ble\ble_hid_service.o
 *fill*         0x000000001001ce19        0x3 
 .rodata.ble_service_event_callback.str1.4
                0x000000001001ce1c       0x38 Output\obj\project\solution\ble_hid_composite\ble\ble_hid_service.o
                                         0x50 (size before relaxing)
 .rodata.report_map_android
                0x000000001001ce54       0x8d Output\obj\project\solution\ble_hid_composite\ble\ble_hid_service.o
                0x000000001001ce54                report_map_android
 *fill*         0x000000001001cee1        0x3 
 .rodata.report_map_ios
                0x000000001001cee4      0x103 Output\obj\project\solution\ble_hid_composite\ble\ble_hid_service.o
                0x000000001001cee4                report_map_ios
 *fill*         0x000000001001cfe7        0x1 
 .rodata.__func__.4248
                0x000000001001cfe8       0x11 Output\obj\project\solution\ble_hid_composite\ble\ble_service.o
 *fill*         0x000000001001cff9        0x3 
 .rodata.adv_data_const
                0x000000001001cffc        0xb Output\obj\project\solution\ble_hid_composite\ble\ble_service.o
                0x000000001001cffc                adv_data_const
 *fill*         0x000000001001d007        0x1 
 .rodata.ble_get_adv_data.str1.4
                0x000000001001d008       0x28 Output\obj\project\solution\ble_hid_composite\ble\ble_service.o
 .rodata.ble_get_scan_data.str1.4
                0x000000001001d030       0x2c Output\obj\project\solution\ble_hid_composite\ble\ble_service.o
 .rodata.ble_service_init.str1.4
                0x000000001001d05c        0x4 Output\obj\project\solution\ble_hid_composite\ble\ble_service.o
 .rodata.profile_data
                0x000000001001d05c      0x208 Output\obj\project\solution\ble_hid_composite\ble\ble_service.o
                0x000000001001d05c                profile_data
 .rodata.__func__.4153
                0x000000001001d264       0x1c Output\obj\project\solution\ble_hid_composite\ble\ble_user_service.o
 .rodata.__func__.4177
                0x000000001001d280       0x16 Output\obj\project\solution\ble_hid_composite\ble\ble_user_service.o
 .rodata.ble_user_service_init.str1.4
                0x000000001001d296        0x4 Output\obj\project\solution\ble_hid_composite\ble\ble_user_service.o
 *fill*         0x000000001001d296        0x2 
 .rodata.user_service_event_callback.str1.4
                0x000000001001d298       0x43 Output\obj\project\solution\ble_hid_composite\ble\ble_user_service.o
                                         0x5b (size before relaxing)
 *fill*         0x000000001001d2db        0x1 
 .rodata.user_service_read_callback.str1.4
                0x000000001001d2dc       0x36 Output\obj\project\solution\ble_hid_composite\ble\ble_user_service.o
 *fill*         0x000000001001d312        0x2 
 .rodata.app.proc.charge.str1.4
                0x000000001001d314       0x27 Output\obj\project\solution\ble_hid_composite\bsp\bsp_charge.o
 *fill*         0x000000001001d33b        0x1 
 .rodata.charge_status_info
                0x000000001001d33c       0xae Output\obj\project\solution\ble_hid_composite\bsp\bsp_charge.o
                0x000000001001d33c                charge_status_info
 *fill*         0x000000001001d3ea        0x2 
 .rodata.app.proc.vbat.str1.4
                0x000000001001d3ec       0x28 Output\obj\project\solution\ble_hid_composite\bsp\bsp_saradc_vbat.o
 .rodata.__func__.4628
                0x000000001001d414        0xd Output\obj\project\solution\ble_hid_composite\bsp\bsp_sys.o
 *fill*         0x000000001001d421        0x3 
 .rodata.bsp.sys.init.str1.4
                0x000000001001d424       0x11 Output\obj\project\solution\ble_hid_composite\bsp\bsp_sys.o
                                         0x18 (size before relaxing)
 *fill*         0x000000001001d435        0x3 
 .rodata.sys_ram_info_dump.str1.4
                0x000000001001d438       0x9f Output\obj\project\solution\ble_hid_composite\bsp\bsp_sys.o
 *fill*         0x000000001001d4d7        0x1 
 .rodata.main.str1.4
                0x000000001001d4d8       0x2c Output\obj\project\solution\ble_hid_composite\main.o
 .rodata.str1.4
                0x000000001001d504       0x1e Output\obj\project\solution\ble_hid_composite\strong_symbol.o
 *fill*         0x000000001001d522        0x2 
 .rodata.thread_cfg
                0x000000001001d524       0x18 Output\obj\project\solution\ble_hid_composite\strong_symbol.o
 .rodata.cm_next_freepage.str1.4
                0x000000001001d53c        0xc ..\..\..\libs\cpu\libplatform.a(cm.o)
 .rodata.cm_movepage.str1.4
                0x000000001001d548       0x10 ..\..\..\libs\cpu\libplatform.a(cm.o)
 .rodata.cm_release.str1.4
                0x000000001001d558       0x22 ..\..\..\libs\cpu\libplatform.a(cm.o)
 *fill*         0x000000001001d57a        0x2 
 .rodata.cm_savepage.str1.4
                0x000000001001d57c       0x13 ..\..\..\libs\cpu\libplatform.a(cm.o)
 *fill*         0x000000001001d58f        0x1 
 .rodata.cm_check_loadpage.str1.4
                0x000000001001d590       0x3b ..\..\..\libs\cpu\libplatform.a(cm.o)
 *fill*         0x000000001001d5cb        0x1 
 .rodata.cm_init.str1.4
                0x000000001001d5cc       0x30 ..\..\..\libs\cpu\libplatform.a(cm.o)
 .rodata.platform_main.str1.4
                0x000000001001d5fc       0x10 ..\..\..\libs\cpu\libplatform.a(main.o)
 .rodata.thread_btstack_create.str1.4
                0x000000001001d60c        0xc ..\..\..\libs\cpu\libplatform.a(startup.o)
 .rodata.thread_main_entry.str1.4
                0x000000001001d618        0x4 ..\..\..\libs\cpu\libplatform.a(startup.o)
 .rodata.startup.init.str1.4
                0x000000001001d61c       0x2b ..\..\..\libs\cpu\libplatform.a(startup.o)
 *fill*         0x000000001001d647        0x1 
 .rodata.sys_rst_dump.str1.4
                0x000000001001d648       0x51 ..\..\..\libs\cpu\libplatform.a(sys.o)
 *fill*         0x000000001001d699        0x3 
 .rodata.ichsel
                0x000000001001d69c       0x80 ..\..\..\libs\cpu\libplatform.a(voltage_trim.o)
 .rodata.iends  0x000000001001d71c       0x10 ..\..\..\libs\cpu\libplatform.a(voltage_trim.o)
 .rodata.volt_trim
                0x000000001001d72c       0x40 ..\..\..\libs\cpu\libplatform.a(voltage_trim.o)
 .rodata.dfu_crc32_table
                0x000000001001d76c      0x400 ..\..\..\libs\cpu\libplatform.a(crc.o)
 .rodata.str1.4
                0x000000001001db6c       0x50 ..\..\..\libs\ble\libbtstack.a(sm.o)
 .rodata        0x000000001001dbbc       0x64 ..\..\..\libs\ble\libbtstack.a(sm.o)
 .rodata.str1.4
                0x000000001001dc20        0x4 ..\..\..\libs\ble\libbtstack.a(le_device_db_memory.o)
 .rodata        0x000000001001dc20       0x14 ..\..\..\libs\ble\libbtstack.a(gatt_client.o)
 .rodata        0x000000001001dc34       0x10 ..\..\..\libs\ble\libbtstack.a(att_db.o)
 .rodata.stack.api
                0x000000001001dc44       0xa0 ..\..\..\libs\ble\libbtstack.a(btstack_api.o)
                0x000000001001dc44                btstack_basic_tbl
                0x000000001001dc54                btstack_ctl_param_tbl
                0x000000001001dc78                btstack_ctl_tbl
 .rodata.bb.tbl
                0x000000001001dce4        0x8 ..\..\..\libs\ble\libbtstack.a(ble_con.o)
                0x000000001001dce4                connect_req_dur_tab
 .rodata.bb.tbl
                0x000000001001dcec       0x16 ..\..\..\libs\ble\libbtstack.a(bb_utils.o)
                0x000000001001dcec                null_array
                0x000000001001dcfc                dft_addr
 *fill*         0x000000001001dd02        0x2 
 .rodata.str1.4
                0x000000001001dd04       0x21 ..\..\..\libs\ble\libbtstack.a(bb.o)
 *fill*         0x000000001001dd25        0x3 
 .rodata        0x000000001001dd28       0x20 ..\..\..\libs\ble\libbtstack.a(bb.o)
                0x000000001001dd28                bb_hook
 .rodata.stack.l2cap
                0x000000001001dd48        0x2 ..\..\..\libs\ble\libbtstack.a(l2cap.o)
 *fill*         0x000000001001dd4a        0x2 
 .rodata.str1.4
                0x000000001001dd4c       0xa5 ..\..\..\libs\ble\libbtstack.a(hci_cmd.o)
                                         0xbd (size before relaxing)
 *fill*         0x000000001001ddf1        0x3 
 .rodata.stack.hci_send
                0x000000001001ddf4      0x150 ..\..\..\libs\ble\libbtstack.a(hci_cmd.o)
                0x000000001001ddf4                hci_le_tbox_prod_test_request
                0x000000001001ddfc                hci_le_set_pref_slave_latency
                0x000000001001de04                hci_le_write_rf_path_compensation
                0x000000001001de0c                hci_le_read_rf_path_compensation
                0x000000001001de14                hci_le_transmit_power
                0x000000001001de1c                hci_le_read_periodic_adv_list_size
                0x000000001001de24                hci_le_set_default_phy
                0x000000001001de2c                hci_le_long_term_key_negative_reply
                0x000000001001de34                hci_le_long_term_key_request_reply
                0x000000001001de3c                hci_le_rand
                0x000000001001de44                hci_le_encrypt
                0x000000001001de4c                hci_le_connection_update
                0x000000001001de54                hci_le_add_device_to_per_adv_list
                0x000000001001de5c                hci_le_per_advertising_terminate_sync
                0x000000001001de64                hci_le_per_advertising_creat_sync_cancel
                0x000000001001de6c                hci_le_per_advertising_creat_sync
                0x000000001001de74                hci_le_ext_create_connection
                0x000000001001de7c                hci_le_set_ext_scan_enable
                0x000000001001de84                hci_le_set_ext_scan_parameters
                0x000000001001de8c                hci_le_set_per_advertise_enable
                0x000000001001de94                hci_le_set_per_advertising_data
                0x000000001001de9c                hci_le_set_per_advertising_parameters
                0x000000001001dea4                hci_le_set_ext_advertise_enable
                0x000000001001deac                hci_le_set_ext_scan_response_data
                0x000000001001deb4                hci_le_set_ext_advertising_data
                0x000000001001debc                hci_le_set_ext_advertising_parameters
                0x000000001001dec4                hci_le_set_ext_adv_set_random_address
                0x000000001001decc                hci_le_set_advertise_enable
                0x000000001001ded4                hci_le_set_scan_response_data
                0x000000001001dedc                hci_le_set_advertising_data
                0x000000001001dee4                hci_le_set_advertising_parameters
                0x000000001001deec                hci_le_set_random_address
                0x000000001001def4                hci_le_read_buffer_size
                0x000000001001defc                hci_le_set_event_mask
                0x000000001001df04                hci_read_bd_addr
                0x000000001001df0c                hci_read_buffer_size
                0x000000001001df14                hci_read_local_supported_features
                0x000000001001df1c                hci_read_local_supported_commands
                0x000000001001df24                hci_write_le_host_supported
                0x000000001001df2c                hci_reset
                0x000000001001df34                hci_set_event_mask
                0x000000001001df3c                hci_disconnect
 .rodata        0x000000001001df44       0x20 ..\..\..\libs\ble\libbtstack.a(btstack_util.o)
                0x000000001001df54                bluetooth_base_uuid
 .rodata        0x000000001001df64       0x20 ..\..\..\libs\ble\libbtstack.a(hci_transport_dummy.o)
 .rodata        0x000000001001df84       0x24 ..\..\..\libs\ble\libbtstack.a(bb_sche.o)
 .rodata.bb.tbl
                0x000000001001dfa8       0x4f ..\..\..\libs\ble\libbtstack.a(rf_xbox.o)
 *fill*         0x000000001001dff7        0x1 
 .rodata.str1.4
                0x000000001001dff8       0x20 ..\..\..\libs\ble\libbtstack.a(hct_tl.o)
 .rodata.str1.4
                0x000000001001e018       0x9f ..\..\..\libs\ble\libbtstack.a(hct_msg.o)
                                         0xb7 (size before relaxing)
 *fill*         0x000000001001e0b7        0x1 
 .rodata        0x000000001001e0b8      0x22c ..\..\..\libs\ble\libbtstack.a(hct_msg.o)
                0x000000001001e0b8                hci_cmd_desc_root_tab
                0x000000001001e0f8                hci_evt_desc_tab
                0x000000001001e130                hci_evt_le_desc_tab
                0x000000001001e170                hci_cmd_desc_tab_vs
                0x000000001001e1a0                hci_cmd_desc_tab_le
                0x000000001001e278                hci_cmd_desc_tab_info_par
                0x000000001001e278                hci_cmd_desc_tab_stat_par
                0x000000001001e29c                hci_cmd_desc_tab_ctrl_bb
                0x000000001001e2d8                hci_cmd_desc_tab_lk_ctrl
 .rodata.le.mgr_cntl.tbl
                0x000000001001e2e4       0x68 ..\..\..\libs\ble\libbtstack.a(mgr_hci.o)
                0x000000001001e2e4                mgr_hci_cmd_tbl
 .rodata.str1.4
                0x000000001001e34c       0x49 ..\..\..\libs\ble\libbtstack.a(ll_cntl.o)
                                         0x60 (size before relaxing)
 *fill*         0x000000001001e395        0x3 
 .rodata.le.ll_cntl.tbl
                0x000000001001e398      0x408 ..\..\..\libs\ble\libbtstack.a(ll_cntl.o)
                0x000000001001e398                ll_cntl_pdu_tbl
 .rodata.bb.tbl
                0x000000001001e7a0       0x1c ..\..\..\libs\ble\libbtstack.a(ble.o)
                0x000000001001e7a0                ble_ctl
 .rodata.str1.4
                0x000000001001e7bc       0x1c ..\..\..\libs\ble\libbtstack.a(l2cap_signaling.o)
                                         0x2a (size before relaxing)
 .rodata        0x000000001001e7d8       0x58 ..\..\..\libs\ble\libbtstack.a(l2cap_signaling.o)
 .rodata        0x000000001001e830       0x10 ..\..\..\libs\ble\libbtstack.a(vs_proc.o)
 .rodata        0x000000001001e840       0x20 ..\..\..\libs\ble\libbtstack.a(mgr_proc.o)
 .rodata.le.ll_cntl.tbl
                0x000000001001e860      0x120 ..\..\..\libs\ble\libbtstack.a(ll_proc.o)
                0x000000001001e860                ll_msg_tbl
                0x000000001001e948                ll_hci_cmd_tbl
 *(.srodata*)
 .srodata       0x000000001001e980        0x8 ..\..\..\libs\ble\libbtstack.a(hct_msg.o)
                0x000000001001e980                hci_evt_dbg_desc_tab
 .srodata       0x000000001001e988       0x18 ..\..\..\libs\ble\libbtstack.a(mgr.o)
 .srodata       0x000000001001e9a0        0x5 ..\..\..\libs\ble\libbtstack.a(ll_adv.o)
 *fill*         0x000000001001e9a5        0x3 
 .srodata       0x000000001001e9a8        0x8 ..\..\..\libs\ble\libbtstack.a(vs_proc.o)
 *(.rela*)
 .rela.text.charge_init
                0x000000001001e9b0        0x0 Output\obj\driver\driver_charge.o
 .rela.text.app.proc.charge
                0x000000001001e9b0        0x0 Output\obj\driver\driver_charge.o
 .rela.text.clk_clk32k_rtc_get
                0x000000001001e9b0        0x0 Output\obj\driver\driver_charge.o
 .rela.text.clk_saradc_clk_get
                0x000000001001e9b0        0x0 Output\obj\driver\driver_charge.o
 .rela.text.clk_udet_clk_get
                0x000000001001e9b0        0x0 Output\obj\driver\driver_charge.o
 .rela.text.clk_hsut0_clk_get
                0x000000001001e9b0        0x0 Output\obj\driver\driver_charge.o
 .rela.text.clk_tmr_inc_get
                0x000000001001e9b0        0x0 Output\obj\driver\driver_charge.o
 .rela.text.clk_clk2m_ks_get
                0x000000001001e9b0        0x0 Output\obj\driver\driver_charge.o
 .rela.text.clk_sdadda_clk_get
                0x000000001001e9b0        0x0 Output\obj\driver\driver_charge.o
 .rela.text.clk_touch_key_clk_get
                0x000000001001e9b0        0x0 Output\obj\driver\driver_charge.o
 .rela.text.clk_ttmr_inc_get
                0x000000001001e9b0        0x0 Output\obj\driver\driver_charge.o
 .rela.text.wk0_edge_capture_config
                0x000000001001e9b0        0x0 Output\obj\driver\driver_charge.o
 .rela.text.gpio_edge_capture_config
                0x000000001001e9b0        0x0 Output\obj\driver\driver_charge.o
 .rela.text.gpio_edge_pic_config
                0x000000001001e9b0        0x0 Output\obj\driver\driver_charge.o
 .rela.text.hsuart_init
                0x000000001001e9b0        0x0 Output\obj\driver\driver_charge.o
 .rela.text.hsuart_baud_config
                0x000000001001e9b0        0x0 Output\obj\driver\driver_charge.o
 .rela.text.hsuart_pic_config
                0x000000001001e9b0        0x0 Output\obj\driver\driver_charge.o
 .rela.com_sleep.lv2_proc
                0x000000001001e9b0        0x0 Output\obj\driver\driver_charge.o
 .rela.com_sleep.lv2_wakeup
                0x000000001001e9b0        0x0 Output\obj\driver\driver_charge.o
 .rela.text.lowpwr_get_wakeup_source
                0x000000001001e9b0        0x0 Output\obj\driver\driver_charge.o
 .rela.text.lowpwr_wk0_wakeup_config
                0x000000001001e9b0        0x0 Output\obj\driver\driver_charge.o
 .rela.text.lowpwr_gpio_wakeup_config
                0x000000001001e9b0        0x0 Output\obj\driver\driver_charge.o
 .rela.text.lowpwr_wakeup_config_do
                0x000000001001e9b0        0x0 Output\obj\driver\driver_charge.o
 .rela.text.lowpwr_pwroff_mode1_do
                0x000000001001e9b0        0x0 Output\obj\driver\driver_charge.o
 .rela.com_text.lp_port_init
                0x000000001001e9b0        0x0 Output\obj\driver\driver_charge.o
 .rela.com_text.pwroff_mode2
                0x000000001001e9b0        0x0 Output\obj\driver\driver_charge.o
 .rela.com_sleep.sleep
                0x000000001001e9b0        0x0 Output\obj\driver\driver_charge.o
 .rela.text.saradc_init
                0x000000001001e9b0        0x0 Output\obj\driver\driver_charge.o
 .rela.text.saradc_deinit
                0x000000001001e9b0        0x0 Output\obj\driver\driver_charge.o
 .rela.text.saradc_set_baud
                0x000000001001e9b0        0x0 Output\obj\driver\driver_charge.o
 .rela.text.saradc_pic_config
                0x000000001001e9b0        0x0 Output\obj\driver\driver_charge.o
 .rela.com_periph.saradc.get_data
                0x000000001001e9b0        0x0 Output\obj\driver\driver_charge.o
 .rela.text.uart_init
                0x000000001001e9b0        0x0 Output\obj\driver\driver_charge.o
 .rela.text.uart_pic_config
                0x000000001001e9b0        0x0 Output\obj\driver\driver_charge.o
 .rela.text.uart_baud_config
                0x000000001001e9b0        0x0 Output\obj\driver\driver_charge.o
 .rela.text.ble_hid_post_msg_by_key
                0x000000001001e9b0        0x0 Output\obj\driver\driver_charge.o
 .rela.text.ble_hid_send_touch_cmd_android
                0x000000001001e9b0        0x0 Output\obj\driver\driver_charge.o
 .rela.text.ble_hid_send_touch_cmd_ios
                0x000000001001e9b0        0x0 Output\obj\driver\driver_charge.o
 .rela.text.ble_hid_send_mouse_cmd
                0x000000001001e9b0        0x0 Output\obj\driver\driver_charge.o
 .rela.text.ble_hid_send_consumer_cmd
                0x000000001001e9b0        0x0 Output\obj\driver\driver_charge.o
 .rela.text.ble_hid_send_keyboard_cmd
                0x000000001001e9b0        0x0 Output\obj\driver\driver_charge.o
 .rela.text.func.msg.hid
                0x000000001001e9b0        0x0 Output\obj\driver\driver_charge.o
 .rela.text.ble_hid_event_selfie
                0x000000001001e9b0        0x0 Output\obj\driver\driver_charge.o
 .rela.text.ble_hid_event_tiktok
                0x000000001001e9b0        0x0 Output\obj\driver\driver_charge.o
 .rela.text.func.process
                0x000000001001e9b0        0x0 Output\obj\driver\driver_charge.o
 .rela.text.func.msg.enter
                0x000000001001e9b0        0x0 Output\obj\driver\driver_charge.o
 .rela.text.func
                0x000000001001e9b0        0x0 Output\obj\driver\driver_charge.o
 .rela.text.app.proc.bt
                0x000000001001e9b0        0x0 Output\obj\driver\driver_charge.o
 .rela.text.func.bt
                0x000000001001e9b0        0x0 Output\obj\driver\driver_charge.o
 .rela.text.func.idle
                0x000000001001e9b0        0x0 Output\obj\driver\driver_charge.o
 .rela.com_text.gpio.isr
                0x000000001001e9b0        0x0 Output\obj\driver\driver_charge.o
 .rela.com_sleep.lv2
                0x000000001001e9b0        0x0 Output\obj\driver\driver_charge.o
 .rela.com_text.sleep_tick
                0x000000001001e9b0        0x0 Output\obj\driver\driver_charge.o
 .rela.text.bsp_gpio_wakeup_config
                0x000000001001e9b0        0x0 Output\obj\driver\driver_charge.o
 .rela.text.lowpwr_sleep_wakeup_config
                0x000000001001e9b0        0x0 Output\obj\driver\driver_charge.o
 .rela.com_sleep.lowpwr.sleep
                0x000000001001e9b0        0x0 Output\obj\driver\driver_charge.o
 .rela.text.lowpwr.deep_sleep_wk
                0x000000001001e9b0        0x0 Output\obj\driver\driver_charge.o
 .rela.text.lowpwr.deep_sleep
                0x000000001001e9b0        0x0 Output\obj\driver\driver_charge.o
 .rela.text.app.proc.sleep
                0x000000001001e9b0        0x0 Output\obj\driver\driver_charge.o
 .rela.text.lowpwr_pwroff_wakeup_config
                0x000000001001e9b0        0x0 Output\obj\driver\driver_charge.o
 .rela.text.lowpwr.pwroff
                0x000000001001e9b0        0x0 Output\obj\driver\driver_charge.o
 .rela.text.battery_service_event_callback
                0x000000001001e9b0        0x0 Output\obj\driver\driver_charge.o
 .rela.text.battery_service_read_callback
                0x000000001001e9b0        0x0 Output\obj\driver\driver_charge.o
 .rela.text.ble_battery_service_init
                0x000000001001e9b0        0x0 Output\obj\driver\driver_charge.o
 .rela.text.ble_battery_service_proc
                0x000000001001e9b0        0x0 Output\obj\driver\driver_charge.o
 .rela.text.ble_client_event_callback
                0x000000001001e9b0        0x0 Output\obj\driver\driver_charge.o
 .rela.text.ble_client_init
                0x000000001001e9b0        0x0 Output\obj\driver\driver_charge.o
 .rela.text.fot.cache
                0x000000001001e9b0        0x0 Output\obj\driver\driver_charge.o
 .rela.text.ab_fota_write
                0x000000001001e9b0        0x0 Output\obj\driver\driver_charge.o
 .rela.text.ab_fota_get_err
                0x000000001001e9b0        0x0 Output\obj\driver\driver_charge.o
 .rela.text.ab_fota_breakpoint_info_read
                0x000000001001e9b0        0x0 Output\obj\driver\driver_charge.o
 .rela.text.ab_fota_init
                0x000000001001e9b0        0x0 Output\obj\driver\driver_charge.o
 .rela.text.ab_fota_deinit
                0x000000001001e9b0        0x0 Output\obj\driver\driver_charge.o
 .rela.text.ab_fota_get_curaddr
                0x000000001001e9b0        0x0 Output\obj\driver\driver_charge.o
 .rela.text.ab_fota_is_update_success
                0x000000001001e9b0        0x0 Output\obj\driver\driver_charge.o
 .rela.text.fot.update
                0x000000001001e9b0        0x0 Output\obj\driver\driver_charge.o
 .rela.text.ble_fota_exit
                0x000000001001e9b0        0x0 Output\obj\driver\driver_charge.o
 .rela.com_text.fot.update
                0x000000001001e9b0        0x0 Output\obj\driver\driver_charge.o
 .rela.text.fota_ble_disconnect_callback
                0x000000001001e9b0        0x0 Output\obj\driver\driver_charge.o
 .rela.text.fota_event_callback
                0x000000001001e9b0        0x0 Output\obj\driver\driver_charge.o
 .rela.text.fota_write_callback
                0x000000001001e9b0        0x0 Output\obj\driver\driver_charge.o
 .rela.text.ble_fota_service_init
                0x000000001001e9b0        0x0 Output\obj\driver\driver_charge.o
 .rela.text.app.proc.fot
                0x000000001001e9b0        0x0 Output\obj\driver\driver_charge.o
 .rela.text.ble_service_event_callback
                0x000000001001e9b0        0x0 Output\obj\driver\driver_charge.o
 .rela.text.ble_service_read_callback
                0x000000001001e9b0        0x0 Output\obj\driver\driver_charge.o
 .rela.text.ble_service_write_callback
                0x000000001001e9b0        0x0 Output\obj\driver\driver_charge.o
 .rela.text.ble_hid_report_for_handle_kick
                0x000000001001e9b0        0x0 Output\obj\driver\driver_charge.o
 .rela.text.ble_hid_service_init
                0x000000001001e9b0        0x0 Output\obj\driver\driver_charge.o
 .rela.text.ble_hid_task_enqueue
                0x000000001001e9b0        0x0 Output\obj\driver\driver_charge.o
 .rela.text.ble_hid_service_proc
                0x000000001001e9b0        0x0 Output\obj\driver\driver_charge.o
 .rela.text.ble_txpkt_init
                0x000000001001e9b0        0x0 Output\obj\driver\driver_charge.o
 .rela.text.ble_sm_param_init
                0x000000001001e9b0        0x0 Output\obj\driver\driver_charge.o
 .rela.text.ble_adv_param_init
                0x000000001001e9b0        0x0 Output\obj\driver\driver_charge.o
 .rela.text.ble_periph_init
                0x000000001001e9b0        0x0 Output\obj\driver\driver_charge.o
 .rela.text.bsp_ble_init
                0x000000001001e9b0        0x0 Output\obj\driver\driver_charge.o
 .rela.text.ble_enter_sleep_proc
                0x000000001001e9b0        0x0 Output\obj\driver\driver_charge.o
 .rela.text.ble_exit_sleep_proc
                0x000000001001e9b0        0x0 Output\obj\driver\driver_charge.o
 .rela.com_sleep.ble.sleep
                0x000000001001e9b0        0x0 Output\obj\driver\driver_charge.o
 .rela.text.ble_app_proc
                0x000000001001e9b0        0x0 Output\obj\driver\driver_charge.o
 .rela.text.ble_get_scan_data
                0x000000001001e9b0        0x0 Output\obj\driver\driver_charge.o
 .rela.text.ble_get_adv_data
                0x000000001001e9b0        0x0 Output\obj\driver\driver_charge.o
 .rela.text.ble_service_init
                0x000000001001e9b0        0x0 Output\obj\driver\driver_charge.o
 .rela.text.user_service_event_callback
                0x000000001001e9b0        0x0 Output\obj\driver\driver_charge.o
 .rela.text.user_service_write_callback
                0x000000001001e9b0        0x0 Output\obj\driver\driver_charge.o
 .rela.text.user_service_read_callback
                0x000000001001e9b0        0x0 Output\obj\driver\driver_charge.o
 .rela.text.ble_user_service_init
                0x000000001001e9b0        0x0 Output\obj\driver\driver_charge.o
 .rela.text.bsp_charge_init
                0x000000001001e9b0        0x0 Output\obj\driver\driver_charge.o
 .rela.text.bsp_io_key_init
                0x000000001001e9b0        0x0 Output\obj\driver\driver_charge.o
 .rela.com_text.key.scan
                0x000000001001e9b0        0x0 Output\obj\driver\driver_charge.o
 .rela.text.bsp_key_init
                0x000000001001e9b0        0x0 Output\obj\driver\driver_charge.o
 .rela.text.bsp.param
                0x000000001001e9b0        0x0 Output\obj\driver\driver_charge.o
 .rela.text.bsp.param.fota
                0x000000001001e9b0        0x0 Output\obj\driver\driver_charge.o
 .rela.text.bsp_saradc_init
                0x000000001001e9b0        0x0 Output\obj\driver\driver_charge.o
 .rela.text.app.proc.saradc
                0x000000001001e9b0        0x0 Output\obj\driver\driver_charge.o
 .rela.text.app.proc.vbat
                0x000000001001e9b0        0x0 Output\obj\driver\driver_charge.o
 .rela.text.bsp_vbat_detect_init
                0x000000001001e9b0        0x0 Output\obj\driver\driver_charge.o
 .rela.text.power_on_vbat_check
                0x000000001001e9b0        0x0 Output\obj\driver\driver_charge.o
 .rela.text.sys_ram_info_dump
                0x000000001001e9b0        0x0 Output\obj\driver\driver_charge.o
 .rela.com_text.timer
                0x000000001001e9b0        0x0 Output\obj\driver\driver_charge.o
 .rela.text.bsp.sys.init
                0x000000001001e9b0        0x0 Output\obj\driver\driver_charge.o
 .rela.text.bsp_periph_init
                0x000000001001e9b0        0x0 Output\obj\driver\driver_charge.o
 .rela.text.bsp_uart_debug_init
                0x000000001001e9b0        0x0 Output\obj\driver\driver_charge.o
 .rela.text.startup.main
                0x000000001001e9b0        0x0 Output\obj\driver\driver_charge.o
 .rela.text.thread_create_callback
                0x000000001001e9b0        0x0 Output\obj\driver\driver_charge.o
 .rela.text.ble_get_local_bd_addr
                0x000000001001e9b0        0x0 Output\obj\driver\driver_charge.o
 .rela.text.bt_rf_get_param
                0x000000001001e9b0        0x0 Output\obj\driver\driver_charge.o
 .rela.text.bt_rf_get_tx_pwr
                0x000000001001e9b0        0x0 Output\obj\driver\driver_charge.o
 .rela.text.xosc_get_xcfg
                0x000000001001e9b0        0x0 Output\obj\driver\driver_charge.o
 .rela.text.param_xosc_write
                0x000000001001e9b0        0x0 Output\obj\driver\driver_charge.o
 .rela.com_text.spiflash
                0x000000001001e9b0        0x0 Output\obj\driver\driver_charge.o
 .rela.text.ble_get_link_info
                0x000000001001e9b0        0x0 Output\obj\driver\driver_charge.o
 .rela.text.ble_put_link_info
                0x000000001001e9b0        0x0 Output\obj\driver\driver_charge.o
 .rela.text.cm_loadpage
                0x000000001001e9b0        0x0 Output\obj\driver\driver_charge.o
 .rela.text.cm_next_freepage
                0x000000001001e9b0        0x0 Output\obj\driver\driver_charge.o
 .rela.text.cm_factory
                0x000000001001e9b0        0x0 Output\obj\driver\driver_charge.o
 .rela.text.cm_writepage
                0x000000001001e9b0        0x0 Output\obj\driver\driver_charge.o
 .rela.text.cm_movepage
                0x000000001001e9b0        0x0 Output\obj\driver\driver_charge.o
 .rela.text.cm_erase
                0x000000001001e9b0        0x0 Output\obj\driver\driver_charge.o
 .rela.text.cm_release
                0x000000001001e9b0        0x0 Output\obj\driver\driver_charge.o
 .rela.text.cm_savepage
                0x000000001001e9b0        0x0 Output\obj\driver\driver_charge.o
 .rela.text.cm_check_loadpage
                0x000000001001e9b0        0x0 Output\obj\driver\driver_charge.o
 .rela.text.cm_move_allpages
                0x000000001001e9b0        0x0 Output\obj\driver\driver_charge.o
 .rela.text.cm_sync
                0x000000001001e9b0        0x0 Output\obj\driver\driver_charge.o
 .rela.text.cm_release_all
                0x000000001001e9b0        0x0 Output\obj\driver\driver_charge.o
 .rela.text.cm_read
                0x000000001001e9b0        0x0 Output\obj\driver\driver_charge.o
 .rela.text.cm_read8
                0x000000001001e9b0        0x0 Output\obj\driver\driver_charge.o
 .rela.text.cm_read16
                0x000000001001e9b0        0x0 Output\obj\driver\driver_charge.o
 .rela.text.cm_read32
                0x000000001001e9b0        0x0 Output\obj\driver\driver_charge.o
 .rela.text.cm_write
                0x000000001001e9b0        0x0 Output\obj\driver\driver_charge.o
 .rela.text.cm_write8
                0x000000001001e9b0        0x0 Output\obj\driver\driver_charge.o
 .rela.text.cm_write16
                0x000000001001e9b0        0x0 Output\obj\driver\driver_charge.o
 .rela.text.cm_write32
                0x000000001001e9b0        0x0 Output\obj\driver\driver_charge.o
 .rela.text.cm_clear
                0x000000001001e9b0        0x0 Output\obj\driver\driver_charge.o
 .rela.text.cm_init
                0x000000001001e9b0        0x0 Output\obj\driver\driver_charge.o
 .rela.com_text.spiflash.id
                0x000000001001e9b0        0x0 Output\obj\driver\driver_charge.o
 .rela.com_text.spiflash.dev_id
                0x000000001001e9b0        0x0 Output\obj\driver\driver_charge.o
 .rela.com_text.spiflash.read
                0x000000001001e9b0        0x0 Output\obj\driver\driver_charge.o
 .rela.com_text.spiflash.protect.weak
                0x000000001001e9b0        0x0 Output\obj\driver\driver_charge.o
 .rela.com_text.spiflash.erase_2
                0x000000001001e9b0        0x0 Output\obj\driver\driver_charge.o
 .rela.com_text.spiflash.erase_32k
                0x000000001001e9b0        0x0 Output\obj\driver\driver_charge.o
 .rela.com_text.spiflash.erase_64k
                0x000000001001e9b0        0x0 Output\obj\driver\driver_charge.o
 .rela.text.xcfg_init
                0x000000001001e9b0        0x0 Output\obj\driver\driver_charge.o
 .rela.com_text.exception.hook
                0x000000001001e9b0        0x0 Output\obj\driver\driver_charge.o
 .rela.com_text.exception
                0x000000001001e9b0        0x0 Output\obj\driver\driver_charge.o
 .rela.com_text.delay
                0x000000001001e9b0        0x0 Output\obj\driver\driver_charge.o
 .rela.text.platform_main
                0x000000001001e9b0        0x0 Output\obj\driver\driver_charge.o
 .rela.text.main_startup
                0x000000001001e9b0        0x0 Output\obj\driver\driver_charge.o
 .rela.text.compiler
                0x000000001001e9b0        0x0 Output\obj\driver\driver_charge.o
 .rela.com_text.irq
                0x000000001001e9b0        0x0 Output\obj\driver\driver_charge.o
 .rela.text.sys_irq_init
                0x000000001001e9b0        0x0 Output\obj\driver\driver_charge.o
 .rela.text.soft_irq_init
                0x000000001001e9b0        0x0 Output\obj\driver\driver_charge.o
 .rela.text.bthw_irq_init
                0x000000001001e9b0        0x0 Output\obj\driver\driver_charge.o
 .rela.text.watch_point_set
                0x000000001001e9b0        0x0 Output\obj\driver\driver_charge.o
 .rela.text.usb_irq_init
                0x000000001001e9b0        0x0 Output\obj\driver\driver_charge.o
 .rela.text.sys_timer_init
                0x000000001001e9b0        0x0 Output\obj\driver\driver_charge.o
 .rela.text.thread_driver_create
                0x000000001001e9b0        0x0 Output\obj\driver\driver_charge.o
 .rela.text.thread_aupcm_create
                0x000000001001e9b0        0x0 Output\obj\driver\driver_charge.o
 .rela.text.thread_btstack_create
                0x000000001001e9b0        0x0 Output\obj\driver\driver_charge.o
 .rela.text.thread_main_entry
                0x000000001001e9b0        0x0 Output\obj\driver\driver_charge.o
 .rela.text.startup.init
                0x000000001001e9b0        0x0 Output\obj\driver\driver_charge.o
 .rela.com_text.thread.driver
                0x000000001001e9b0        0x0 Output\obj\driver\driver_charge.o
 .rela.com_text.thread.aupcm
                0x000000001001e9b0        0x0 Output\obj\driver\driver_charge.o
 .rela.com_text.thread.driver.usb
                0x000000001001e9b0        0x0 Output\obj\driver\driver_charge.o
 .rela.com_text.thread.driver.vs
                0x000000001001e9b0        0x0 Output\obj\driver\driver_charge.o
 .rela.text.thread.driver.usb
                0x000000001001e9b0        0x0 Output\obj\driver\driver_charge.o
 .rela.text.thread.driver.vs
                0x000000001001e9b0        0x0 Output\obj\driver\driver_charge.o
 .rela.com_text.thread.driver.enter
                0x000000001001e9b0        0x0 Output\obj\driver\driver_charge.o
 .rela.text.pll0_vco_band_trimming
                0x000000001001e9b0        0x0 Output\obj\driver\driver_charge.o
 .rela.text.pll0_init
                0x000000001001e9b0        0x0 Output\obj\driver\driver_charge.o
 .rela.com_text.trim.vddio_get
                0x000000001001e9b0        0x0 Output\obj\driver\driver_charge.o
 .rela.com_text.trim.vbg_get
                0x000000001001e9b0        0x0 Output\obj\driver\driver_charge.o
 .rela.com_text.trim.vddio_set
                0x000000001001e9b0        0x0 Output\obj\driver\driver_charge.o
 .rela.com_text.trim.core_get
                0x000000001001e9b0        0x0 Output\obj\driver\driver_charge.o
 .rela.com_text.trim.core_set
                0x000000001001e9b0        0x0 Output\obj\driver\driver_charge.o
 .rela.com_text.trim.lvd_get
                0x000000001001e9b0        0x0 Output\obj\driver\driver_charge.o
 .rela.com_text.trim.lvd_set
                0x000000001001e9b0        0x0 Output\obj\driver\driver_charge.o
 .rela.text.pmu_voltage_configure
                0x000000001001e9b0        0x0 Output\obj\driver\driver_charge.o
 .rela.text.pmu_init
                0x000000001001e9b0        0x0 Output\obj\driver\driver_charge.o
 .rela.reset    0x000000001001e9b0        0x0 Output\obj\driver\driver_charge.o
 .rela.com_text.spiflash.erase
                0x000000001001e9b0        0x0 Output\obj\driver\driver_charge.o
 .rela.com_text.spiflash.read_kick
                0x000000001001e9b0        0x0 Output\obj\driver\driver_charge.o
 .rela.text.ota_pack
                0x000000001001e9b0        0x0 Output\obj\driver\driver_charge.o
 .rela.text.lock_code_usbdev
                0x000000001001e9b0        0x0 Output\obj\driver\driver_charge.o
 .rela.text.patch_init
                0x000000001001e9b0        0x0 Output\obj\driver\driver_charge.o
 .rela.com_sleep.lp.sleep
                0x000000001001e9b0        0x0 Output\obj\driver\driver_charge.o
 .rela.text.set_sys_clk_do
                0x000000001001e9b0        0x0 Output\obj\driver\driver_charge.o
 .rela.text.sys_clk
                0x000000001001e9b0        0x0 Output\obj\driver\driver_charge.o
 .rela.text.voltage.trim
                0x000000001001e9b0        0x0 Output\obj\driver\driver_charge.o
 .rela.com_text.stack.api
                0x000000001001e9b0        0x0 Output\obj\driver\driver_charge.o
 .rela.com_text.stack.run_loop
                0x000000001001e9b0        0x0 Output\obj\driver\driver_charge.o
 .rela.text     0x000000001001e9b0        0x0 Output\obj\driver\driver_charge.o
 .rela.text.sm.aes
                0x000000001001e9b0        0x0 Output\obj\driver\driver_charge.o
 .rela.text.sm.get_handle
                0x000000001001e9b0        0x0 Output\obj\driver\driver_charge.o
 .rela.text.sm.rau_run
                0x000000001001e9b0        0x0 Output\obj\driver\driver_charge.o
 .rela.text.gap.rau.update
                0x000000001001e9b0        0x0 Output\obj\driver\driver_charge.o
 .rela.text.sm.request
                0x000000001001e9b0        0x0 Output\obj\driver\driver_charge.o
 .rela.text.sm.hdl
                0x000000001001e9b0        0x0 Output\obj\driver\driver_charge.o
 .rela.text.stack.ble.sm
                0x000000001001e9b0        0x0 Output\obj\driver\driver_charge.o
 .rela.text.sm.passkey.set
                0x000000001001e9b0        0x0 Output\obj\driver\driver_charge.o
 .rela.text.sm.passkey.get
                0x000000001001e9b0        0x0 Output\obj\driver\driver_charge.o
 .rela.text.sm.passkey.input
                0x000000001001e9b0        0x0 Output\obj\driver\driver_charge.o
 .rela.text.gap.rau.mode
                0x000000001001e9b0        0x0 Output\obj\driver\driver_charge.o
 .rela.text.sm.run
                0x000000001001e9b0        0x0 Output\obj\driver\driver_charge.o
 .rela.text.sm.pdu
                0x000000001001e9b0        0x0 Output\obj\driver\driver_charge.o
 .rela.text.sm.event
                0x000000001001e9b0        0x0 Output\obj\driver\driver_charge.o
 .rela.text.gap.rau_set
                0x000000001001e9b0        0x0 Output\obj\driver\driver_charge.o
 .rela.text.gap.adv
                0x000000001001e9b0        0x0 Output\obj\driver\driver_charge.o
 .rela.text.sm.delete_bonding
                0x000000001001e9b0        0x0 Output\obj\driver\driver_charge.o
 .rela.text.le.db.get
                0x000000001001e9b0        0x0 Output\obj\driver\driver_charge.o
 .rela.text.le.db.set
                0x000000001001e9b0        0x0 Output\obj\driver\driver_charge.o
 .rela.text.le.db.write
                0x000000001001e9b0        0x0 Output\obj\driver\driver_charge.o
 .rela.text.le.db.read
                0x000000001001e9b0        0x0 Output\obj\driver\driver_charge.o
 .rela.text.le.db.init
                0x000000001001e9b0        0x0 Output\obj\driver\driver_charge.o
 .rela.text.le.db.remove
                0x000000001001e9b0        0x0 Output\obj\driver\driver_charge.o
 .rela.text.le.db.remove_all
                0x000000001001e9b0        0x0 Output\obj\driver\driver_charge.o
 .rela.text.le.db.add
                0x000000001001e9b0        0x0 Output\obj\driver\driver_charge.o
 .rela.text.le.db
                0x000000001001e9b0        0x0 Output\obj\driver\driver_charge.o
 .rela.text.le.db.dump
                0x000000001001e9b0        0x0 Output\obj\driver\driver_charge.o
 .rela.text.stack.send.ntf_do
                0x000000001001e9b0        0x0 Output\obj\driver\driver_charge.o
 .rela.text.stack.send.ntf
                0x000000001001e9b0        0x0 Output\obj\driver\driver_charge.o
 .rela.text.ble.indicate
                0x000000001001e9b0        0x0 Output\obj\driver\driver_charge.o
 .rela.text.stack.send.server
                0x000000001001e9b0        0x0 Output\obj\driver\driver_charge.o
 .rela.com_text.server.send_req
                0x000000001001e9b0        0x0 Output\obj\driver\driver_charge.o
 .rela.text.client.request_can_send
                0x000000001001e9b0        0x0 Output\obj\driver\driver_charge.o
 .rela.text.client.write_req
                0x000000001001e9b0        0x0 Output\obj\driver\driver_charge.o
 .rela.text.client.stop_listening
                0x000000001001e9b0        0x0 Output\obj\driver\driver_charge.o
 .rela.text.sm.client
                0x000000001001e9b0        0x0 Output\obj\driver\driver_charge.o
 .rela.text.client.deserialize_service
                0x000000001001e9b0        0x0 Output\obj\driver\driver_charge.o
 .rela.text.client.deserialize_characteristic
                0x000000001001e9b0        0x0 Output\obj\driver\driver_charge.o
 .rela.text.client.deserialize_characteristic_descriptor
                0x000000001001e9b0        0x0 Output\obj\driver\driver_charge.o
 .rela.text.client.send
                0x000000001001e9b0        0x0 Output\obj\driver\driver_charge.o
 .rela.text.client.find_services_uuid16
                0x000000001001e9b0        0x0 Output\obj\driver\driver_charge.o
 .rela.text.client.find_character_uuid16
                0x000000001001e9b0        0x0 Output\obj\driver\driver_charge.o
 .rela.text.client.read_value_uuid16
                0x000000001001e9b0        0x0 Output\obj\driver\driver_charge.o
 .rela.text.sm.server
                0x000000001001e9b0        0x0 Output\obj\driver\driver_charge.o
 .rela.text.server.register_service
                0x000000001001e9b0        0x0 Output\obj\driver\driver_charge.o
 .rela.text.server.init
                0x000000001001e9b0        0x0 Output\obj\driver\driver_charge.o
 .rela.com_text.server.req_can_send
                0x000000001001e9b0        0x0 Output\obj\driver\driver_charge.o
 .rela.text.server.packet_handler
                0x000000001001e9b0        0x0 Output\obj\driver\driver_charge.o
 .rela.text.att.event_handler
                0x000000001001e9b0        0x0 Output\obj\driver\driver_charge.o
 .rela.text.server.indicate
                0x000000001001e9b0        0x0 Output\obj\driver\driver_charge.o
 .rela.com_text.server.mtu_get
                0x000000001001e9b0        0x0 Output\obj\driver\driver_charge.o
 .rela.text.att.register_client
                0x000000001001e9b0        0x0 Output\obj\driver\driver_charge.o
 .rela.text.att.register_server
                0x000000001001e9b0        0x0 Output\obj\driver\driver_charge.o
 .rela.text.att.dispatch
                0x000000001001e9b0        0x0 Output\obj\driver\driver_charge.o
 .rela.text.att.dispatch_client
                0x000000001001e9b0        0x0 Output\obj\driver\driver_charge.o
 .rela.com_text.att.dispatch_server
                0x000000001001e9b0        0x0 Output\obj\driver\driver_charge.o
 .rela.text.att.dump
                0x000000001001e9b0        0x0 Output\obj\driver\driver_charge.o
 .rela.text.att.mtu_request
                0x000000001001e9b0        0x0 Output\obj\driver\driver_charge.o
 .rela.text.att_server.mtu_rsp
                0x000000001001e9b0        0x0 Output\obj\driver\driver_charge.o
 .rela.text.gatt.get_client_config
                0x000000001001e9b0        0x0 Output\obj\driver\driver_charge.o
 .rela.text.stack.sleep
                0x000000001001e9b0        0x0 Output\obj\driver\driver_charge.o
 .rela.text.stack.api
                0x000000001001e9b0        0x0 Output\obj\driver\driver_charge.o
 .rela.text.stack.setup
                0x000000001001e9b0        0x0 Output\obj\driver\driver_charge.o
 .rela.text.ble.hci
                0x000000001001e9b0        0x0 Output\obj\driver\driver_charge.o
 .rela.com_text.ret.bb.sleep
                0x000000001001e9b0        0x0 Output\obj\driver\driver_charge.o
 .rela.rodata.stack.api
                0x000000001001e9b0        0x0 Output\obj\driver\driver_charge.o
 .rela.com_text.bt.timer
                0x000000001001e9b0        0x0 Output\obj\driver\driver_charge.o
 .rela.text.ble.api.max_mtu
                0x000000001001e9b0        0x0 Output\obj\driver\driver_charge.o
 .rela.text.ble.api.adv_is_en
                0x000000001001e9b0        0x0 Output\obj\driver\driver_charge.o
 .rela.text.ble.api.adv_data.set
                0x000000001001e9b0        0x0 Output\obj\driver\driver_charge.o
 .rela.text.ble.api.scan
                0x000000001001e9b0        0x0 Output\obj\driver\driver_charge.o
 .rela.text.ble.api.adv_interval.set
                0x000000001001e9b0        0x0 Output\obj\driver\driver_charge.o
 .rela.text.ble.api.adv.adv_interval.get
                0x000000001001e9b0        0x0 Output\obj\driver\driver_charge.o
 .rela.text.ble.api.conn_param.get
                0x000000001001e9b0        0x0 Output\obj\driver\driver_charge.o
 .rela.text.ble.api.latency.dis
                0x000000001001e9b0        0x0 Output\obj\driver\driver_charge.o
 .rela.text.ble.api.latency.en
                0x000000001001e9b0        0x0 Output\obj\driver\driver_charge.o
 .rela.text.ble.api.adv_param.set
                0x000000001001e9b0        0x0 Output\obj\driver\driver_charge.o
 .rela.text.ble.adv_param.get
                0x000000001001e9b0        0x0 Output\obj\driver\driver_charge.o
 .rela.text.ble.api.regist
                0x000000001001e9b0        0x0 Output\obj\driver\driver_charge.o
 .rela.com_sleep.bb
                0x000000001001e9b0        0x0 Output\obj\driver\driver_charge.o
 .rela.text.rf.tx_tone
                0x000000001001e9b0        0x0 Output\obj\driver\driver_charge.o
 .rela.com_text.ble.isr.con.end
                0x000000001001e9b0        0x0 Output\obj\driver\driver_charge.o
 .rela.com_text.bb.isr.timer
                0x000000001001e9b0        0x0 Output\obj\driver\driver_charge.o
 .rela.com_text.bb.isr
                0x000000001001e9b0        0x0 Output\obj\driver\driver_charge.o
 .rela.com_text.bb.sleep
                0x000000001001e9b0        0x0 Output\obj\driver\driver_charge.o
 .rela.text.bb.aes
                0x000000001001e9b0        0x0 Output\obj\driver\driver_charge.o
 .rela.com_text.bb.run_loop
                0x000000001001e9b0        0x0 Output\obj\driver\driver_charge.o
 .rela.rodata   0x000000001001e9b0        0x0 Output\obj\driver\driver_charge.o
 .rela.text.stk.l2cap.txreq
                0x000000001001e9b0        0x0 Output\obj\driver\driver_charge.o
 .rela.text.stack.l2cap
                0x000000001001e9b0        0x0 Output\obj\driver\driver_charge.o
 .rela.text.stack.handler.l2cap
                0x000000001001e9b0        0x0 Output\obj\driver\driver_charge.o
 .rela.text.stack.l2cap.gap
                0x000000001001e9b0        0x0 Output\obj\driver\driver_charge.o
 .rela.com_text.stack.l2cap
                0x000000001001e9b0        0x0 Output\obj\driver\driver_charge.o
 .rela.text.stack.send.l2cap
                0x000000001001e9b0        0x0 Output\obj\driver\driver_charge.o
 .rela.text.stack.l2cap.connectionless
                0x000000001001e9b0        0x0 Output\obj\driver\driver_charge.o
 .rela.text.stack.hci_init
                0x000000001001e9b0        0x0 Output\obj\driver\driver_charge.o
 .rela.text.stack.hci
                0x000000001001e9b0        0x0 Output\obj\driver\driver_charge.o
 .rela.text.stack.hci.conn
                0x000000001001e9b0        0x0 Output\obj\driver\driver_charge.o
 .rela.com_text.stack.linked_list
                0x000000001001e9b0        0x0 Output\obj\driver\driver_charge.o
 .rela.com_text.stack.hci
                0x000000001001e9b0        0x0 Output\obj\driver\driver_charge.o
 .rela.text.stack.send.hci
                0x000000001001e9b0        0x0 Output\obj\driver\driver_charge.o
 .rela.text.stack.hci_send
                0x000000001001e9b0        0x0 Output\obj\driver\driver_charge.o
 .rela.com_text.stack.hci_recv
                0x000000001001e9b0        0x0 Output\obj\driver\driver_charge.o
 .rela.text.stack.run_loop
                0x000000001001e9b0        0x0 Output\obj\driver\driver_charge.o
 .rela.com_text.stack.hcic
                0x000000001001e9b0        0x0 Output\obj\driver\driver_charge.o
 .rela.text.stack.h3c
                0x000000001001e9b0        0x0 Output\obj\driver\driver_charge.o
 .rela.com_text.stack.h3c
                0x000000001001e9b0        0x0 Output\obj\driver\driver_charge.o
 .rela.com_text.stack.util
                0x000000001001e9b0        0x0 Output\obj\driver\driver_charge.o
 .rela.text.stack.ble.setup
                0x000000001001e9b0        0x0 Output\obj\driver\driver_charge.o
 .rela.com_text.stack.uart_isr
                0x000000001001e9b0        0x0 Output\obj\driver\driver_charge.o
 .rela.text.stack.hal
                0x000000001001e9b0        0x0 Output\obj\driver\driver_charge.o
 .rela.com_text.bb.prog
                0x000000001001e9b0        0x0 Output\obj\driver\driver_charge.o
 .rela.com_sleep.rfphy
                0x000000001001e9b0        0x0 Output\obj\driver\driver_charge.o
 .rela.com_text.ble.isr
                0x000000001001e9b0        0x0 Output\obj\driver\driver_charge.o
 .rela.text.le.mgr
                0x000000001001e9b0        0x0 Output\obj\driver\driver_charge.o
 .rela.rodata.le.mgr_cntl.tbl
                0x000000001001e9b0        0x0 Output\obj\driver\driver_charge.o
 .rela.text.le.ll_adv.con
                0x000000001001e9b0        0x0 Output\obj\driver\driver_charge.o
 .rela.text.le.ll_adv
                0x000000001001e9b0        0x0 Output\obj\driver\driver_charge.o
 .rela.text.le.ll_cntl.pdu
                0x000000001001e9b0        0x0 Output\obj\driver\driver_charge.o
 .rela.com_text.ble.isr.con
                0x000000001001e9b0        0x0 Output\obj\driver\driver_charge.o
 .rela.text.le.ll_cntl.send
                0x000000001001e9b0        0x0 Output\obj\driver\driver_charge.o
 .rela.rodata.le.ll_cntl.tbl
                0x000000001001e9b0        0x0 Output\obj\driver\driver_charge.o
 .rela.text.le.ll_cntl
                0x000000001001e9b0        0x0 Output\obj\driver\driver_charge.o
 .rela.text.le.ll_cntl.start
                0x000000001001e9b0        0x0 Output\obj\driver\driver_charge.o
 .rela.text.le.ll_cntl.state
                0x000000001001e9b0        0x0 Output\obj\driver\driver_charge.o
 .rela.text.le.ll_cntl.stop
                0x000000001001e9b0        0x0 Output\obj\driver\driver_charge.o
 .rela.text.ble.var.init
                0x000000001001e9b0        0x0 Output\obj\driver\driver_charge.o
 .rela.text.bb.vs.fcc_ble.do
                0x000000001001e9b0        0x0 Output\obj\driver\driver_charge.o
 .rela.text.bb.vs.fcc
                0x000000001001e9b0        0x0 Output\obj\driver\driver_charge.o
 .rela.com_rodata.bb.tbl
                0x000000001001e9b0        0x0 Output\obj\driver\driver_charge.o
 .rela.text.le.ll_proc.disc
                0x000000001001e9b0        0x0 Output\obj\driver\driver_charge.o
 .rela.text.bb.ble.test.start
                0x000000001001e9b0        0x0 Output\obj\driver\driver_charge.o
                0x000000001001e9b0        0x4 LONG 0x0
                0x000000001001ea00                . = ALIGN (0x200)
 *fill*         0x000000001001e9b4       0x4c 

.stack          0x0000000000010800      0x400
                0x0000000000010800                __irq_stack_start = .
                0x0000000000000400                . = 0x400
 *fill*         0x0000000000010800      0x400 
                0x0000000000010c00                __irq_stack = .
                0x0000000000000400                __irq_stack_size = (__irq_stack - __irq_stack_start)

.bss            0x0000000000013e00     0x1d80
                0x0000000000013e00                __heap_start = .
 *(.mem_heap)
 .mem_heap      0x0000000000013e00     0x11b4 Output\obj\project\solution\ble_hid_composite\strong_symbol.o
                0x0000000000013e00                mem_heap
                0x0000000000014fb4                __heap_end = .
                0x0000000000014fb4                __bss_start = .
 *(COMMON)
 COMMON         0x0000000000014fb4       0x20 Output\obj\project\solution\ble_hid_composite\app\func_lowpwr.o
                0x0000000000014fb4                sfr_user_backup
 COMMON         0x0000000000014fd4       0x21 Output\obj\project\solution\ble_hid_composite\ble\ble_fota_service.o
                0x0000000000014fd4                fot_var
 *fill*         0x0000000000014ff5        0x3 
 COMMON         0x0000000000014ff8       0x38 Output\obj\project\solution\ble_hid_composite\bsp\bsp_sys.o
                0x0000000000014ff8                tmr5ms_cnt
                0x0000000000014ffc                xcfg_cb
 COMMON         0x0000000000015030        0x1 Output\obj\project\solution\ble_hid_composite\strong_symbol.o
                0x0000000000015030                cfg_bt_rf_def_txpwr
 *(.bss*)
 *fill*         0x0000000000015031        0x3 
 .bss.charge_ctrl
                0x0000000000015034       0x10 Output\obj\driver\driver_charge.o
 .bss.sfr_backup
                0x0000000000015044       0x60 Output\obj\driver\driver_lowpwr.o
 .bss.battery_service
                0x00000000000150a4       0x14 Output\obj\project\solution\ble_hid_composite\ble\ble_battery_service.o
 .bss.client_handler
                0x00000000000150b8       0x10 Output\obj\project\solution\ble_hid_composite\ble\ble_client.o
 .bss.server_info
                0x00000000000150c8       0x1a Output\obj\project\solution\ble_hid_composite\ble\ble_client.o
 *fill*         0x00000000000150e2        0x2 
 .bss.fota_service
                0x00000000000150e4       0x14 Output\obj\project\solution\ble_hid_composite\ble\ble_fota_service.o
 .bss.ble_hid_tasks
                0x00000000000150f8      0x43c Output\obj\project\solution\ble_hid_composite\ble\ble_hid_service.o
 .bss.ble_service
                0x0000000000015534       0x14 Output\obj\project\solution\ble_hid_composite\ble\ble_hid_service.o
 .bss.generic_access_service
                0x0000000000015548       0x14 Output\obj\project\solution\ble_hid_composite\ble\ble_user_service.o
 .bss.generic_attribute_service
                0x000000000001555c       0x14 Output\obj\project\solution\ble_hid_composite\ble\ble_user_service.o
 .bss.filter_buf.4720
                0x0000000000015570       0x14 Output\obj\project\solution\ble_hid_composite\bsp\bsp_saradc_vbat.o
 .bss.cpu_gprs  0x0000000000015584       0x80 ..\..\..\libs\cpu\libplatform.a(main.o)
                0x0000000000015584                cpu_gprs
 .bss.sys       0x0000000000015604       0x18 ..\..\..\libs\cpu\libplatform.a(main.o)
                0x0000000000015604                sys
 .bss.irq_tbl   0x000000000001561c       0x84 ..\..\..\libs\cpu\libplatform.a(interrupt.o)
                0x000000000001561c                tbl_irq_vector
                0x000000000001569c                irq_mask
 .bss.soft_timer
                0x00000000000156a0       0x28 ..\..\..\libs\cpu\libplatform.a(startup.o)
 .bss.thread.btstack
                0x00000000000156c8        0x8 ..\..\..\libs\cpu\libplatform.a(startup.o)
                0x00000000000156c8                psem_btstack
                0x00000000000156cc                pmq_btstack
 .bss.lock_cb   0x00000000000156d0       0x10 ..\..\..\libs\cpu\libplatform.a(lock.o)
 .bss.fix_buf   0x00000000000156e0        0xc ..\..\..\libs\cpu\libplatform.a(sleep.o)
                0x00000000000156e0                fix_buf
 .bss.sys_trim  0x00000000000156ec       0x10 ..\..\..\libs\cpu\libplatform.a(voltage_trim.o)
                0x00000000000156ec                sys_trim
 .bss           0x00000000000156fc       0x30 ..\..\..\libs\ble\libbtstack.a(sm.o)
 .bss           0x000000000001572c       0x74 ..\..\..\libs\ble\libbtstack.a(btstack_memory.o)
 .bss           0x00000000000157a0      0x128 ..\..\..\libs\ble\libbtstack.a(bb_sche.o)
 .bss           0x00000000000158c8        0xc ..\..\..\libs\ble\libbtstack.a(aes.o)
                0x00000000000158c8                aes_env
 .bss           0x00000000000158d4       0x1c ..\..\..\libs\ble\libbtstack.a(hct_tl.o)
 .bss           0x00000000000158f0       0x28 ..\..\..\libs\ble\libbtstack.a(ll_tbox_freq_cal.o)
 .bss           0x0000000000015918       0xc0 ..\..\..\libs\ble\libbtstack.a(ble_buf.o)
 *(.sbss*)
 .sbss.charge_status
                0x00000000000159d8        0x7 Output\obj\driver\driver_charge.o
 *fill*         0x00000000000159df        0x1 
 .sbss.wkupedg_bak
                0x00000000000159e0        0x4 Output\obj\driver\driver_lowpwr.o
 .sbss.photograph_flag.4298
                0x00000000000159e4        0x1 Output\obj\project\solution\ble_hid_composite\app\app_hid_selfie.o
 .sbss.zoom_delay_cnt
                0x00000000000159e5        0x1 Output\obj\project\solution\ble_hid_composite\app\app_hid_selfie.o
 .sbss.like_delay_cnt
                0x00000000000159e6        0x1 Output\obj\project\solution\ble_hid_composite\app\app_hid_tiktok.o
 *fill*         0x00000000000159e7        0x1 
 .sbss.battery_check_timeout.4168
                0x00000000000159e8        0x4 Output\obj\project\solution\ble_hid_composite\ble\ble_battery_service.o
 .sbss.battery_connect_handle
                0x00000000000159ec        0x2 Output\obj\project\solution\ble_hid_composite\ble\ble_battery_service.o
 .sbss.battery_level_client_config
                0x00000000000159ee        0x2 Output\obj\project\solution\ble_hid_composite\ble\ble_battery_service.o
 .sbss.battery_level_last.4169
                0x00000000000159f0        0x1 Output\obj\project\solution\ble_hid_composite\ble\ble_battery_service.o
 *fill*         0x00000000000159f1        0x3 
 .sbss.tc_state
                0x00000000000159f4        0x4 Output\obj\project\solution\ble_hid_composite\ble\ble_client.o
 .sbss.fota_client_config
                0x00000000000159f8        0x2 Output\obj\project\solution\ble_hid_composite\ble\ble_fota_service.o
 .sbss.ble_connect_handle
                0x00000000000159fa        0x2 Output\obj\project\solution\ble_hid_composite\ble\ble_hid_service.o
 .sbss.ble_report_consumer_client_config
                0x00000000000159fc        0x2 Output\obj\project\solution\ble_hid_composite\ble\ble_hid_service.o
 .sbss.ble_report_digitizer_client_config
                0x00000000000159fe        0x2 Output\obj\project\solution\ble_hid_composite\ble\ble_hid_service.o
 .sbss.ble_report_keyboard_client_config
                0x0000000000015a00        0x2 Output\obj\project\solution\ble_hid_composite\ble\ble_hid_service.o
 .sbss.ble_report_mouse_client_config
                0x0000000000015a02        0x2 Output\obj\project\solution\ble_hid_composite\ble\ble_hid_service.o
 .sbss.delay_cnt.4294
                0x0000000000015a04        0x4 Output\obj\project\solution\ble_hid_composite\ble\ble_hid_service.o
 .sbss.cfg_bt_work_mode
                0x0000000000015a08        0x4 Output\obj\project\solution\ble_hid_composite\ble\ble_init.o
                0x0000000000015a08                cfg_bt_work_mode
 .sbss.ble_param
                0x0000000000015a0c        0x8 Output\obj\project\solution\ble_hid_composite\ble\ble_proc.o
 .sbss.delay_cnt1.4645
                0x0000000000015a14        0x4 Output\obj\project\solution\ble_hid_composite\bsp\bsp_charge.o
 .sbss.delay_cnt2.4646
                0x0000000000015a18        0x4 Output\obj\project\solution\ble_hid_composite\bsp\bsp_charge.o
 .sbss.key_status
                0x0000000000015a1c        0x6 Output\obj\project\solution\ble_hid_composite\bsp\bsp_key.o
 *fill*         0x0000000000015a22        0x2 
 .sbss.tick.4559
                0x0000000000015a24        0x4 Output\obj\project\solution\ble_hid_composite\bsp\bsp_saradc.o
 .sbss.auto_off_count.4730
                0x0000000000015a28        0x1 Output\obj\project\solution\ble_hid_composite\bsp\bsp_saradc_vbat.o
 .sbss.index.4719
                0x0000000000015a29        0x1 Output\obj\project\solution\ble_hid_composite\bsp\bsp_saradc_vbat.o
 *fill*         0x0000000000015a2a        0x2 
 .sbss.vbat_voltage
                0x0000000000015a2c        0x4 Output\obj\project\solution\ble_hid_composite\bsp\bsp_saradc_vbat.o
 .sbss.cfg_bt_hsec_wakeup_en
                0x0000000000015a30        0x1 Output\obj\project\solution\ble_hid_composite\strong_symbol.o
                0x0000000000015a30                cfg_bt_hsec_wakeup_en
 *fill*         0x0000000000015a31        0x3 
 .sbss.spi_baud_r
                0x0000000000015a34        0x4 ..\..\..\libs\cpu\libplatform.a(os_flash.o)
                0x0000000000015a34                spi_baud_r
 .sbss.spi_baud_w
                0x0000000000015a38        0x4 ..\..\..\libs\cpu\libplatform.a(os_flash.o)
                0x0000000000015a38                spi_baud_w
 .sbss.ms_tick  0x0000000000015a3c        0x4 ..\..\..\libs\cpu\libplatform.a(interrupt.o)
                0x0000000000015a3c                ms_tick
 .sbss.os_tick_cnt
                0x0000000000015a40        0x4 ..\..\..\libs\cpu\libplatform.a(interrupt.o)
                0x0000000000015a40                os_tick_cnt
 .sbss.p_thread_cfg_cb
                0x0000000000015a44        0x4 ..\..\..\libs\cpu\libplatform.a(startup.o)
                0x0000000000015a44                p_thread_cfg_cb
 .sbss.pmutex_clk
                0x0000000000015a48        0x4 ..\..\..\libs\cpu\libplatform.a(startup.o)
                0x0000000000015a48                pmutex_clk
 .sbss.pmutex_cm
                0x0000000000015a4c        0x4 ..\..\..\libs\cpu\libplatform.a(startup.o)
                0x0000000000015a4c                pmutex_cm
 .sbss.soft_timer_isr_en
                0x0000000000015a50        0x4 ..\..\..\libs\cpu\libplatform.a(startup.o)
                0x0000000000015a50                soft_timer_isr_en
 .sbss.flash_manufacturer_id
                0x0000000000015a54        0x1 ..\..\..\libs\cpu\libplatform.a(spiflash.o)
                0x0000000000015a54                flash_manufacturer_id
 .sbss.fot_update_init
                0x0000000000015a55        0x1 ..\..\..\libs\cpu\libplatform.a(fot_pack.o)
 .sbss.fot_update_success
                0x0000000000015a56        0x1 ..\..\..\libs\cpu\libplatform.a(fot_pack.o)
 .sbss.spiflash_protect_dis
                0x0000000000015a57        0x1 ..\..\..\libs\cpu\libplatform.a(fot_pack.o)
 .sbss.tbl_double_key
                0x0000000000015a58        0x4 ..\..\..\libs\cpu\libplatform.a(key.o)
 .sbss.tbl_double_key_cnt
                0x0000000000015a5c        0x1 ..\..\..\libs\cpu\libplatform.a(key.o)
 *fill*         0x0000000000015a5d        0x3 
 .sbss.lowpwr_sfr_save
                0x0000000000015a60        0x8 ..\..\..\libs\cpu\libplatform.a(sleep.o)
 .sbss.bt_thread_res
                0x0000000000015a68        0x4 ..\..\..\libs\cpu\libplatform.a(bt.o)
                0x0000000000015a68                bt_thread_res
 .sbss          0x0000000000015a6c       0x10 ..\..\..\libs\ble\libbtstack.a(sm.o)
 .sbss          0x0000000000015a7c        0x4 ..\..\..\libs\ble\libbtstack.a(gatt_client.o)
 .sbss          0x0000000000015a80        0xc ..\..\..\libs\ble\libbtstack.a(att_server.o)
 .sbss          0x0000000000015a8c        0xc ..\..\..\libs\ble\libbtstack.a(att_dispatch.o)
 .sbss          0x0000000000015a98       0x10 ..\..\..\libs\ble\libbtstack.a(att_db.o)
 .sbss          0x0000000000015aa8       0x1c ..\..\..\libs\ble\libbtstack.a(btstack_api.o)
                0x0000000000015aa8                fcc_cfg_cb
                0x0000000000015ab0                random_static_addr
                0x0000000000015ab8                btstack_cb
                0x0000000000015abc                conn_param
 .sbss          0x0000000000015ac4        0x2 ..\..\..\libs\ble\libbtstack.a(bb.o)
 .sbss          0x0000000000015ac6        0x2 ..\..\..\libs\ble\libbtstack.a(l2cap.o)
 .sbss          0x0000000000015ac8        0x4 ..\..\..\libs\ble\libbtstack.a(hci.o)
 .sbss          0x0000000000015acc        0x4 ..\..\..\libs\ble\libbtstack.a(btstack_memory.o)
 .sbss          0x0000000000015ad0        0x4 ..\..\..\libs\ble\libbtstack.a(hci_transport_hcic.o)
 .sbss          0x0000000000015ad4       0x10 ..\..\..\libs\ble\libbtstack.a(btstack_main.o)
 .sbss          0x0000000000015ae4        0x8 ..\..\..\libs\ble\libbtstack.a(bb_sche.o)
                0x0000000000015ae4                ss_params
 .sbss          0x0000000000015aec        0x8 ..\..\..\libs\ble\libbtstack.a(rf_xbox.o)
                0x0000000000015aec                q_sum
                0x0000000000015af0                i_sum
 .sbss          0x0000000000015af4        0x1 ..\..\..\libs\ble\libbtstack.a(mgr_proc.o)
 *fill*         0x0000000000015af5        0x3 
 .sbss          0x0000000000015af8        0x5 ..\..\..\libs\ble\libbtstack.a(ll_tbox_prod_test.o)
 *fill*         0x0000000000015afd        0x3 
 .sbss          0x0000000000015b00        0x2 ..\..\..\libs\ble\libbtstack.a(ll_proc.o)
 *(.buf*)
 *fill*         0x0000000000015b02        0x2 
 .buf.func_cb   0x0000000000015b04        0x2 Output\obj\project\solution\ble_hid_composite\app\func.o
                0x0000000000015b04                func_cb
 *fill*         0x0000000000015b06        0x2 
 .buf.bsp.sys_cb
                0x0000000000015b08       0x14 Output\obj\project\solution\ble_hid_composite\bsp\bsp_sys.o
                0x0000000000015b08                sys_cb
 .buf.key.cb    0x0000000000015b1c       0x10 ..\..\..\libs\cpu\libplatform.a(key.o)
 *(.btmem.stack.l2cap)
 .btmem.stack.l2cap
                0x0000000000015b2c       0x54 ..\..\..\libs\ble\libbtstack.a(l2cap.o)
                0x0000000000015b80                __bss_end = .
                0x0000000000000bcc                __bss_size = (__bss_end - __bss_start)
                0x00000000000011b4                __heap_size = (__heap_end - __heap_start)

.bram           0x0000000000018000     0x37b8
                0x0000000000018000                __bram_start = .
 *(.btmem.bthw)
 .btmem.bthw    0x0000000000018000     0x1718 ..\..\..\libs\ble\libbtstack.a(bb.o)
                0x0000000000018000                bthw_mem
 *(.btmem*)
 .btmem.spi     0x0000000000019718      0x28c ..\..\..\libs\cpu\libplatform.a(cm.o)
 .btmem.rf.dc   0x00000000000199a4       0x48 ..\..\..\libs\ble\libbtstack.a(rf.o)
                0x00000000000199a4                rf_dc_trim
 .btmem.ble.con
                0x00000000000199ec        0x8 ..\..\..\libs\ble\libbtstack.a(ble_con.o)
                0x00000000000199ec                ble_con_env
 .btmem.bb.env  0x00000000000199f4       0x68 ..\..\..\libs\ble\libbtstack.a(bb_int.o)
                0x00000000000199f4                bb_env
 .btmem.alloc.bb.buf
                0x0000000000019a5c      0x698 ..\..\..\libs\ble\libbtstack.a(bb.o)
 .btmem.bb.buf  0x000000000001a0f4      0x1f0 ..\..\..\libs\ble\libbtstack.a(bb.o)
 .btmem.bb.rf   0x000000000001a2e4        0x6 ..\..\..\libs\ble\libbtstack.a(bb.o)
                0x000000000001a2e4                rf_api
 *fill*         0x000000000001a2ea        0x2 
 .btmem.cache.stack.hci
                0x000000000001a2ec      0x41d ..\..\..\libs\ble\libbtstack.a(hci.o)
 *fill*         0x000000000001a709        0x3 
 .btmem.stack.hci_buf
                0x000000000001a70c      0x318 ..\..\..\libs\ble\libbtstack.a(hci.o)
 .btmem.stack.util
                0x000000000001aa24       0x12 ..\..\..\libs\ble\libbtstack.a(btstack_util.o)
 *fill*         0x000000000001aa36        0x2 
 .btmem.stack   0x000000000001aa38       0x14 ..\..\..\libs\ble\libbtstack.a(btstack_run_loop.o)
 .btmem.hci.transport
                0x000000000001aa4c       0x24 ..\..\..\libs\ble\libbtstack.a(hci_transport_hcic.o)
                0x000000000001aa6c                p_hci_transport
 .btmem.bb.buf  0x000000000001aa70       0x2c ..\..\..\libs\ble\libbtstack.a(nanos.o)
 .btmem.bb.rf   0x000000000001aa9c        0x7 ..\..\..\libs\ble\libbtstack.a(rf_xbox.o)
 *fill*         0x000000000001aaa3        0x1 
 .btmem.bb.hci  0x000000000001aaa4        0x2 ..\..\..\libs\ble\libbtstack.a(hct.o)
                0x000000000001aaa4                hci_env
 *fill*         0x000000000001aaa6        0x2 
 .btmem.ble.lm  0x000000000001aaa8       0xe8 ..\..\..\libs\ble\libbtstack.a(mgr.o)
                0x000000000001aaa8                mgr_env
 .btmem.ble.lc  0x000000000001ab90        0x8 ..\..\..\libs\ble\libbtstack.a(ll.o)
                0x000000000001ab90                ll_env
 .btmem.ble.hal
                0x000000000001ab98      0x124 ..\..\..\libs\ble\libbtstack.a(ble_hal.o)
                0x000000000001ab98                ble_env
                0x000000000001acb4                ble_exp_sync_pos_tab
 .btmem.ble.adv
                0x000000000001acbc        0x8 ..\..\..\libs\ble\libbtstack.a(ble_adv.o)
 .btmem.ble.buf
                0x000000000001acc4       0x30 ..\..\..\libs\ble\libbtstack.a(ble_buf.o)
 .btmem.bb.ble.tbl
                0x000000000001acf4       0x10 ..\..\..\libs\ble\libbtstack.a(ble.o)
 .btmem.bb.vs   0x000000000001ad04        0xd ..\..\..\libs\ble\libbtstack.a(vs_proc.o)
                0x000000000001ad04                vs_env
 *fill*         0x000000000001ad11        0x3 
 .btmem.ble.test
                0x000000000001ad14        0x4 ..\..\..\libs\ble\libbtstack.a(ble_test.o)
 *(.ble_cache*)
 .ble_cache.att
                0x000000000001ad18      0x4ec Output\obj\project\solution\ble_hid_composite\ble\ble_init.o
                0x000000000001ad18                ble_tx_pool
 .ble_cache.att
                0x000000000001b204       0x10 ..\..\..\libs\ble\libbtstack.a(txpkt.o)
                0x000000000001b204                ble_tx
 .ble_cache.sm  0x000000000001b214        0x8 ..\..\..\libs\ble\libbtstack.a(sm.o)
 .ble_cache.sm.addr
                0x000000000001b21c        0x6 ..\..\..\libs\ble\libbtstack.a(sm.o)
 *fill*         0x000000000001b222        0x2 
 .ble_cache.sm.aes
                0x000000000001b224        0x8 ..\..\..\libs\ble\libbtstack.a(sm.o)
 .ble_cache.sm.auth
                0x000000000001b22c        0x1 ..\..\..\libs\ble\libbtstack.a(sm.o)
 *fill*         0x000000000001b22d        0x3 
 .ble_cache.sm.cmac
                0x000000000001b230       0x45 ..\..\..\libs\ble\libbtstack.a(sm.o)
 *fill*         0x000000000001b275        0x3 
 .ble_cache.sm.dhk
                0x000000000001b278       0x10 ..\..\..\libs\ble\libbtstack.a(sm.o)
 .ble_cache.sm.er
                0x000000000001b288       0x10 ..\..\..\libs\ble\libbtstack.a(sm.o)
 .ble_cache.sm.io
                0x000000000001b298        0x1 ..\..\..\libs\ble\libbtstack.a(sm.o)
 *fill*         0x000000000001b299        0x3 
 .ble_cache.sm.ir
                0x000000000001b29c       0x10 ..\..\..\libs\ble\libbtstack.a(sm.o)
 .ble_cache.sm.irk
                0x000000000001b2ac       0x10 ..\..\..\libs\ble\libbtstack.a(sm.o)
 .ble_cache.sm.rand
                0x000000000001b2bc        0x4 ..\..\..\libs\ble\libbtstack.a(sm.o)
 .ble_cache.sm.req
                0x000000000001b2c0        0x1 ..\..\..\libs\ble\libbtstack.a(sm.o)
 *fill*         0x000000000001b2c1        0x3 
 .ble_cache.sm.resolution
                0x000000000001b2c4       0x18 ..\..\..\libs\ble\libbtstack.a(sm.o)
 .ble_cache.sm.setup
                0x000000000001b2dc      0x100 ..\..\..\libs\ble\libbtstack.a(sm.o)
 .ble_cache.sm.sta
                0x000000000001b3dc        0x8 ..\..\..\libs\ble\libbtstack.a(sm.o)
 .ble_cache.att
                0x000000000001b3e4       0x50 ..\..\..\libs\ble\libbtstack.a(ad_parser.o)
                0x000000000001b3e4                ad_param
 *(.ble_buf*)
 .ble_buf.var   0x000000000001b434        0x4 Output\obj\project\solution\ble_hid_composite\ble\ble_init.o
                0x000000000001b434                ble_cb
 .ble_buf.att   0x000000000001b438       0xe0 ..\..\..\libs\ble\libbtstack.a(le_device_db_memory.o)
                0x000000000001b438                le_devices
 .ble_buf.att   0x000000000001b518       0x28 ..\..\..\libs\ble\libbtstack.a(gatt_client.o)
 .ble_buf.att   0x000000000001b540       0x10 ..\..\..\libs\ble\libbtstack.a(att_server.o)
 *(.codec*)
 *(.fot_data.*)
 .fot_data.buf  0x000000000001b550      0x200 Output\obj\project\solution\ble_hid_composite\ble\ble_fota_service.o
 .fot_data.com.pack
                0x000000000001b750       0x68 ..\..\..\libs\cpu\libplatform.a(fot_pack.o)
 *(.tbox.*)
 *(.dut.huart_buf)
 *(.hci.h3*)
 *(.prod_test*)
                0x000000000001b7b8                __bram_end = .
                0x00000000000037b8                __bram_size = (__bram_end - __bram_start)
                0x000000000001b600                __bank_size = SIZEOF (.flash)
                0x0000000010000200                __comm_lma = LOADADDR (.comm)
                0x0000000000003200                __comm_size = SIZEOF (.comm)
LOAD ..\..\..\libs\cpu\libplatform.a
LOAD ..\..\..\libs\cpu\libm.a
LOAD ..\..\..\libs\cpu\libc.a
LOAD ..\..\..\libs\cpu\libgcc.a
LOAD ..\..\..\libs\ble\libbtstack.a
OUTPUT(Output\bin\app.rv32 elf32-littleriscv)

.comment        0x0000000000000000       0x23
 .comment       0x0000000000000000       0x11 Output\obj\driver\driver_charge.o
                                         0x12 (size before relaxing)
 .comment       0x0000000000000011       0x12 Output\obj\driver\driver_clk.o
 .comment       0x0000000000000011       0x12 Output\obj\driver\driver_gpio.o
 .comment       0x0000000000000011       0x12 Output\obj\driver\driver_lowpwr.o
 .comment       0x0000000000000011       0x12 Output\obj\driver\driver_saradc.o
 .comment       0x0000000000000011       0x12 Output\obj\driver\driver_uart.o
 .comment       0x0000000000000011       0x12 Output\obj\project\solution\ble_hid_composite\app\app_hid_event.o
 .comment       0x0000000000000011       0x12 Output\obj\project\solution\ble_hid_composite\app\app_hid_selfie.o
 .comment       0x0000000000000011       0x12 Output\obj\project\solution\ble_hid_composite\app\app_hid_tiktok.o
 .comment       0x0000000000000011       0x12 Output\obj\project\solution\ble_hid_composite\app\func.o
 .comment       0x0000000000000011       0x12 Output\obj\project\solution\ble_hid_composite\app\func_bt.o
 .comment       0x0000000000000011       0x12 Output\obj\project\solution\ble_hid_composite\app\func_idle.o
 .comment       0x0000000000000011       0x12 Output\obj\project\solution\ble_hid_composite\app\func_lowpwr.o
 .comment       0x0000000000000011       0x12 Output\obj\project\solution\ble_hid_composite\app\msg_bt.o
 .comment       0x0000000000000011       0x12 Output\obj\project\solution\ble_hid_composite\app\msg_idle.o
 .comment       0x0000000000000011       0x12 Output\obj\project\solution\ble_hid_composite\ble\ble_battery_service.o
 .comment       0x0000000000000011       0x12 Output\obj\project\solution\ble_hid_composite\ble\ble_client.o
 .comment       0x0000000000000011       0x12 Output\obj\project\solution\ble_hid_composite\ble\ble_fota_service.o
 .comment       0x0000000000000011       0x12 Output\obj\project\solution\ble_hid_composite\ble\ble_hid_service.o
 .comment       0x0000000000000011       0x12 Output\obj\project\solution\ble_hid_composite\ble\ble_init.o
 .comment       0x0000000000000011       0x12 Output\obj\project\solution\ble_hid_composite\ble\ble_proc.o
 .comment       0x0000000000000011       0x12 Output\obj\project\solution\ble_hid_composite\ble\ble_service.o
 .comment       0x0000000000000011       0x12 Output\obj\project\solution\ble_hid_composite\ble\ble_user_service.o
 .comment       0x0000000000000011       0x12 Output\obj\project\solution\ble_hid_composite\bsp\bsp_charge.o
 .comment       0x0000000000000011       0x12 Output\obj\project\solution\ble_hid_composite\bsp\bsp_io_key.o
 .comment       0x0000000000000011       0x12 Output\obj\project\solution\ble_hid_composite\bsp\bsp_key.o
 .comment       0x0000000000000011       0x12 Output\obj\project\solution\ble_hid_composite\bsp\bsp_param.o
 .comment       0x0000000000000011       0x12 Output\obj\project\solution\ble_hid_composite\bsp\bsp_saradc.o
 .comment       0x0000000000000011       0x12 Output\obj\project\solution\ble_hid_composite\bsp\bsp_saradc_vbat.o
 .comment       0x0000000000000011       0x12 Output\obj\project\solution\ble_hid_composite\bsp\bsp_sys.o
 .comment       0x0000000000000011       0x12 Output\obj\project\solution\ble_hid_composite\bsp\bsp_uart_debug.o
 .comment       0x0000000000000011       0x12 Output\obj\project\solution\ble_hid_composite\main.o
 .comment       0x0000000000000011       0x12 Output\obj\project\solution\ble_hid_composite\production_test\prod_test.o
 .comment       0x0000000000000011       0x12 Output\obj\project\solution\ble_hid_composite\strong_symbol.o
 .comment       0x0000000000000011       0x12 ..\..\..\libs\cpu\libplatform.a(cm.o)
                                         0x13 (size before relaxing)
 .comment       0x0000000000000023       0x13 ..\..\..\libs\cpu\libplatform.a(os_flash.o)
 .comment       0x0000000000000023       0x13 ..\..\..\libs\cpu\libplatform.a(xcfg.o)
 .comment       0x0000000000000023       0x13 ..\..\..\libs\cpu\libplatform.a(main.o)
 .comment       0x0000000000000023       0x13 ..\..\..\libs\cpu\libplatform.a(interrupt.o)
 .comment       0x0000000000000023       0x13 ..\..\..\libs\cpu\libplatform.a(startup.o)
 .comment       0x0000000000000023       0x13 ..\..\..\libs\cpu\libplatform.a(sys_hook.o)
 .comment       0x0000000000000023       0x13 ..\..\..\libs\cpu\libplatform.a(pll.o)
 .comment       0x0000000000000023       0x13 ..\..\..\libs\cpu\libplatform.a(pmu.o)
 .comment       0x0000000000000023       0x13 ..\..\..\libs\cpu\libplatform.a(rc.o)
 .comment       0x0000000000000023       0x13 ..\..\..\libs\cpu\libplatform.a(spiflash.o)
 .comment       0x0000000000000023       0x13 ..\..\..\libs\cpu\libplatform.a(debug.o)
 .comment       0x0000000000000023       0x13 ..\..\..\libs\cpu\libplatform.a(fot_pack.o)
 .comment       0x0000000000000023       0x13 ..\..\..\libs\cpu\libplatform.a(key.o)
 .comment       0x0000000000000023       0x13 ..\..\..\libs\cpu\libplatform.a(lock.o)
 .comment       0x0000000000000023       0x13 ..\..\..\libs\cpu\libplatform.a(patch.o)
 .comment       0x0000000000000023       0x13 ..\..\..\libs\cpu\libplatform.a(sleep.o)
 .comment       0x0000000000000023       0x13 ..\..\..\libs\cpu\libplatform.a(sys.o)
 .comment       0x0000000000000023       0x13 ..\..\..\libs\cpu\libplatform.a(sys_clk.o)
 .comment       0x0000000000000023       0x13 ..\..\..\libs\cpu\libplatform.a(voltage_trim.o)
 .comment       0x0000000000000023       0x13 ..\..\..\libs\cpu\libplatform.a(weak_symbol.o)
 .comment       0x0000000000000023       0x13 ..\..\..\libs\cpu\libplatform.a(bt.o)
 .comment       0x0000000000000023       0x13 ..\..\..\libs\cpu\libplatform.a(crc.o)
 .comment       0x0000000000000023       0x13 ..\..\..\libs\ble\libbtstack.a(txpkt.o)
 .comment       0x0000000000000023       0x13 ..\..\..\libs\ble\libbtstack.a(sm.o)
 .comment       0x0000000000000023       0x13 ..\..\..\libs\ble\libbtstack.a(le_device_db_memory.o)
 .comment       0x0000000000000023       0x13 ..\..\..\libs\ble\libbtstack.a(gatt_server.o)
 .comment       0x0000000000000023       0x13 ..\..\..\libs\ble\libbtstack.a(gatt_client.o)
 .comment       0x0000000000000023       0x13 ..\..\..\libs\ble\libbtstack.a(att_server.o)
 .comment       0x0000000000000023       0x13 ..\..\..\libs\ble\libbtstack.a(att_dispatch.o)
 .comment       0x0000000000000023       0x13 ..\..\..\libs\ble\libbtstack.a(att_db.o)
 .comment       0x0000000000000023       0x13 ..\..\..\libs\ble\libbtstack.a(btstack_api.o)
 .comment       0x0000000000000023       0x13 ..\..\..\libs\ble\libbtstack.a(bt_api.o)
 .comment       0x0000000000000023       0x13 ..\..\..\libs\ble\libbtstack.a(ble_api.o)
 .comment       0x0000000000000023       0x13 ..\..\..\libs\ble\libbtstack.a(rf.o)
 .comment       0x0000000000000023       0x13 ..\..\..\libs\ble\libbtstack.a(ble_con.o)
 .comment       0x0000000000000023       0x13 ..\..\..\libs\ble\libbtstack.a(bb_utils.o)
 .comment       0x0000000000000023       0x13 ..\..\..\libs\ble\libbtstack.a(bb_int.o)
 .comment       0x0000000000000023       0x13 ..\..\..\libs\ble\libbtstack.a(bb.o)
 .comment       0x0000000000000023       0x13 ..\..\..\libs\ble\libbtstack.a(platform.o)
 .comment       0x0000000000000023       0x13 ..\..\..\libs\ble\libbtstack.a(extern_ble.o)
 .comment       0x0000000000000023       0x13 ..\..\..\libs\ble\libbtstack.a(extern.o)
 .comment       0x0000000000000023       0x13 ..\..\..\libs\ble\libbtstack.a(l2cap.o)
 .comment       0x0000000000000023       0x13 ..\..\..\libs\ble\libbtstack.a(hci_dump.o)
 .comment       0x0000000000000023       0x13 ..\..\..\libs\ble\libbtstack.a(hci_cmd.o)
 .comment       0x0000000000000023       0x13 ..\..\..\libs\ble\libbtstack.a(hci.o)
 .comment       0x0000000000000023       0x13 ..\..\..\libs\ble\libbtstack.a(btstack_util.o)
 .comment       0x0000000000000023       0x13 ..\..\..\libs\ble\libbtstack.a(btstack_run_loop.o)
 .comment       0x0000000000000023       0x13 ..\..\..\libs\ble\libbtstack.a(btstack_memory.o)
 .comment       0x0000000000000023       0x13 ..\..\..\libs\ble\libbtstack.a(btstack_linked_list.o)
 .comment       0x0000000000000023       0x13 ..\..\..\libs\ble\libbtstack.a(ad_parser.o)
 .comment       0x0000000000000023       0x13 ..\..\..\libs\ble\libbtstack.a(hci_transport_hcic.o)
 .comment       0x0000000000000023       0x13 ..\..\..\libs\ble\libbtstack.a(hci_transport_h3_controller.o)
 .comment       0x0000000000000023       0x13 ..\..\..\libs\ble\libbtstack.a(hci_transport_dummy.o)
 .comment       0x0000000000000023       0x13 ..\..\..\libs\ble\libbtstack.a(btstack_main.o)
 .comment       0x0000000000000023       0x13 ..\..\..\libs\ble\libbtstack.a(btstack_hal.o)
 .comment       0x0000000000000023       0x13 ..\..\..\libs\ble\libbtstack.a(nanos.o)
 .comment       0x0000000000000023       0x13 ..\..\..\libs\ble\libbtstack.a(bb_sche.o)
 .comment       0x0000000000000023       0x13 ..\..\..\libs\ble\libbtstack.a(patch.o)
 .comment       0x0000000000000023       0x13 ..\..\..\libs\ble\libbtstack.a(bb_dbg.o)
 .comment       0x0000000000000023       0x13 ..\..\..\libs\ble\libbtstack.a(bb_clk.o)
 .comment       0x0000000000000023       0x13 ..\..\..\libs\ble\libbtstack.a(aes.o)
 .comment       0x0000000000000023       0x13 ..\..\..\libs\ble\libbtstack.a(extern.o)
 .comment       0x0000000000000023       0x13 ..\..\..\libs\ble\libbtstack.a(vs.o)
 .comment       0x0000000000000023       0x13 ..\..\..\libs\ble\libbtstack.a(rf_xbox.o)
 .comment       0x0000000000000023       0x13 ..\..\..\libs\ble\libbtstack.a(complex.o)
 .comment       0x0000000000000023       0x13 ..\..\..\libs\ble\libbtstack.a(ble_hook.o)
 .comment       0x0000000000000023       0x13 ..\..\..\libs\ble\libbtstack.a(hct_tl.o)
 .comment       0x0000000000000023       0x13 ..\..\..\libs\ble\libbtstack.a(hct_msg.o)
 .comment       0x0000000000000023       0x13 ..\..\..\libs\ble\libbtstack.a(hct.o)
 .comment       0x0000000000000023       0x13 ..\..\..\libs\ble\libbtstack.a(mgr_hci.o)
 .comment       0x0000000000000023       0x13 ..\..\..\libs\ble\libbtstack.a(mgr.o)
 .comment       0x0000000000000023       0x13 ..\..\..\libs\ble\libbtstack.a(ll_adv.o)
 .comment       0x0000000000000023       0x13 ..\..\..\libs\ble\libbtstack.a(ll_tbox_freq_cal.o)
 .comment       0x0000000000000023       0x13 ..\..\..\libs\ble\libbtstack.a(ll_con_upd.o)
 .comment       0x0000000000000023       0x13 ..\..\..\libs\ble\libbtstack.a(ll_cntl.o)
 .comment       0x0000000000000023       0x13 ..\..\..\libs\ble\libbtstack.a(ll_clk_acc.o)
 .comment       0x0000000000000023       0x13 ..\..\..\libs\ble\libbtstack.a(ll_chmap_upd.o)
 .comment       0x0000000000000023       0x13 ..\..\..\libs\ble\libbtstack.a(ll.o)
 .comment       0x0000000000000023       0x13 ..\..\..\libs\ble\libbtstack.a(ble_hal.o)
 .comment       0x0000000000000023       0x13 ..\..\..\libs\ble\libbtstack.a(ble_adv.o)
 .comment       0x0000000000000023       0x13 ..\..\..\libs\ble\libbtstack.a(ble_buf.o)
 .comment       0x0000000000000023       0x13 ..\..\..\libs\ble\libbtstack.a(ble.o)
 .comment       0x0000000000000023       0x13 ..\..\..\libs\ble\libbtstack.a(bb_sleep.o)
 .comment       0x0000000000000023       0x13 ..\..\..\libs\ble\libbtstack.a(l2cap_signaling.o)
 .comment       0x0000000000000023       0x13 ..\..\..\libs\ble\libbtstack.a(btstack_memory_pool.o)
 .comment       0x0000000000000023       0x13 ..\..\..\libs\ble\libbtstack.a(platform.o)
 .comment       0x0000000000000023       0x13 ..\..\..\libs\ble\libbtstack.a(vs_proc.o)
 .comment       0x0000000000000023       0x13 ..\..\..\libs\ble\libbtstack.a(vs_fcc.o)
 .comment       0x0000000000000023       0x13 ..\..\..\libs\ble\libbtstack.a(adv_hook.o)
 .comment       0x0000000000000023       0x13 ..\..\..\libs\ble\libbtstack.a(mgr_test.o)
 .comment       0x0000000000000023       0x13 ..\..\..\libs\ble\libbtstack.a(mgr_proc.o)
 .comment       0x0000000000000023       0x13 ..\..\..\libs\ble\libbtstack.a(ll_version.o)
 .comment       0x0000000000000023       0x13 ..\..\..\libs\ble\libbtstack.a(ll_tbox_prod_test.o)
 .comment       0x0000000000000023       0x13 ..\..\..\libs\ble\libbtstack.a(ll_tbox_feature.o)
 .comment       0x0000000000000023       0x13 ..\..\..\libs\ble\libbtstack.a(ll_proc.o)
 .comment       0x0000000000000023       0x13 ..\..\..\libs\ble\libbtstack.a(ll_ping.o)
 .comment       0x0000000000000023       0x13 ..\..\..\libs\ble\libbtstack.a(ll_phy_upd.o)
 .comment       0x0000000000000023       0x13 ..\..\..\libs\ble\libbtstack.a(ll_length.o)
 .comment       0x0000000000000023       0x13 ..\..\..\libs\ble\libbtstack.a(ll_feature.o)
 .comment       0x0000000000000023       0x13 ..\..\..\libs\ble\libbtstack.a(ll_encrypt.o)
 .comment       0x0000000000000023       0x13 ..\..\..\libs\ble\libbtstack.a(ll_disconnect.o)
 .comment       0x0000000000000023       0x13 ..\..\..\libs\ble\libbtstack.a(ble_test.o)
 .comment       0x0000000000000023       0x13 ..\..\..\libs\ble\libbtstack.a(ble_sync.o)
 .comment       0x0000000000000023       0x13 ..\..\..\libs\ble\libbtstack.a(ble_scan.o)
 .comment       0x0000000000000023       0x13 ..\..\..\libs\ble\libbtstack.a(ble_init.o)

.riscv.attributes
                0x0000000000000000     0x1548
 .riscv.attributes
                0x0000000000000000       0x32 ..\..\..\libs\cpu\libplatform.a(cm.o)
 .riscv.attributes
                0x0000000000000032       0x32 ..\..\..\libs\cpu\libplatform.a(os_flash.o)
 .riscv.attributes
                0x0000000000000064       0x32 ..\..\..\libs\cpu\libplatform.a(xcfg.o)
 .riscv.attributes
                0x0000000000000096       0x32 ..\..\..\libs\cpu\libplatform.a(main.o)
 .riscv.attributes
                0x00000000000000c8       0x32 ..\..\..\libs\cpu\libplatform.a(interrupt.o)
 .riscv.attributes
                0x00000000000000fa       0x32 ..\..\..\libs\cpu\libplatform.a(startup.o)
 .riscv.attributes
                0x000000000000012c       0x32 ..\..\..\libs\cpu\libplatform.a(sys_hook.o)
 .riscv.attributes
                0x000000000000015e       0x32 ..\..\..\libs\cpu\libplatform.a(pll.o)
 .riscv.attributes
                0x0000000000000190       0x32 ..\..\..\libs\cpu\libplatform.a(pmu.o)
 .riscv.attributes
                0x00000000000001c2       0x32 ..\..\..\libs\cpu\libplatform.a(rc.o)
 .riscv.attributes
                0x00000000000001f4       0x34 ..\..\..\libs\cpu\libplatform.a(reset.o)
 .riscv.attributes
                0x0000000000000228       0x32 ..\..\..\libs\cpu\libplatform.a(spiflash.o)
 .riscv.attributes
                0x000000000000025a       0x32 ..\..\..\libs\cpu\libplatform.a(debug.o)
 .riscv.attributes
                0x000000000000028c       0x32 ..\..\..\libs\cpu\libplatform.a(fot_pack.o)
 .riscv.attributes
                0x00000000000002be       0x32 ..\..\..\libs\cpu\libplatform.a(key.o)
 .riscv.attributes
                0x00000000000002f0       0x32 ..\..\..\libs\cpu\libplatform.a(lock.o)
 .riscv.attributes
                0x0000000000000322       0x32 ..\..\..\libs\cpu\libplatform.a(patch.o)
 .riscv.attributes
                0x0000000000000354       0x30 ..\..\..\libs\cpu\libplatform.a(s_sys.o)
 .riscv.attributes
                0x0000000000000384       0x32 ..\..\..\libs\cpu\libplatform.a(sleep.o)
 .riscv.attributes
                0x00000000000003b6       0x32 ..\..\..\libs\cpu\libplatform.a(sys.o)
 .riscv.attributes
                0x00000000000003e8       0x32 ..\..\..\libs\cpu\libplatform.a(sys_clk.o)
 .riscv.attributes
                0x000000000000041a       0x32 ..\..\..\libs\cpu\libplatform.a(voltage_trim.o)
 .riscv.attributes
                0x000000000000044c       0x32 ..\..\..\libs\cpu\libplatform.a(weak_symbol.o)
 .riscv.attributes
                0x000000000000047e       0x32 ..\..\..\libs\cpu\libplatform.a(bt.o)
 .riscv.attributes
                0x00000000000004b0       0x32 ..\..\..\libs\cpu\libplatform.a(crc.o)
 .riscv.attributes
                0x00000000000004e2       0x32 ..\..\..\libs\ble\libbtstack.a(txpkt.o)
 .riscv.attributes
                0x0000000000000514       0x32 ..\..\..\libs\ble\libbtstack.a(sm.o)
 .riscv.attributes
                0x0000000000000546       0x32 ..\..\..\libs\ble\libbtstack.a(le_device_db_memory.o)
 .riscv.attributes
                0x0000000000000578       0x32 ..\..\..\libs\ble\libbtstack.a(gatt_server.o)
 .riscv.attributes
                0x00000000000005aa       0x32 ..\..\..\libs\ble\libbtstack.a(gatt_client.o)
 .riscv.attributes
                0x00000000000005dc       0x32 ..\..\..\libs\ble\libbtstack.a(att_server.o)
 .riscv.attributes
                0x000000000000060e       0x32 ..\..\..\libs\ble\libbtstack.a(att_dispatch.o)
 .riscv.attributes
                0x0000000000000640       0x32 ..\..\..\libs\ble\libbtstack.a(att_db.o)
 .riscv.attributes
                0x0000000000000672       0x32 ..\..\..\libs\ble\libbtstack.a(btstack_api.o)
 .riscv.attributes
                0x00000000000006a4       0x32 ..\..\..\libs\ble\libbtstack.a(bt_api.o)
 .riscv.attributes
                0x00000000000006d6       0x32 ..\..\..\libs\ble\libbtstack.a(ble_api.o)
 .riscv.attributes
                0x0000000000000708       0x32 ..\..\..\libs\ble\libbtstack.a(rf.o)
 .riscv.attributes
                0x000000000000073a       0x32 ..\..\..\libs\ble\libbtstack.a(ble_con.o)
 .riscv.attributes
                0x000000000000076c       0x32 ..\..\..\libs\ble\libbtstack.a(bb_utils.o)
 .riscv.attributes
                0x000000000000079e       0x32 ..\..\..\libs\ble\libbtstack.a(bb_int.o)
 .riscv.attributes
                0x00000000000007d0       0x32 ..\..\..\libs\ble\libbtstack.a(bb.o)
 .riscv.attributes
                0x0000000000000802       0x32 ..\..\..\libs\ble\libbtstack.a(platform.o)
 .riscv.attributes
                0x0000000000000834       0x32 ..\..\..\libs\ble\libbtstack.a(extern_ble.o)
 .riscv.attributes
                0x0000000000000866       0x32 ..\..\..\libs\ble\libbtstack.a(extern.o)
 .riscv.attributes
                0x0000000000000898       0x32 ..\..\..\libs\ble\libbtstack.a(l2cap.o)
 .riscv.attributes
                0x00000000000008ca       0x32 ..\..\..\libs\ble\libbtstack.a(hci_dump.o)
 .riscv.attributes
                0x00000000000008fc       0x32 ..\..\..\libs\ble\libbtstack.a(hci_cmd.o)
 .riscv.attributes
                0x000000000000092e       0x32 ..\..\..\libs\ble\libbtstack.a(hci.o)
 .riscv.attributes
                0x0000000000000960       0x32 ..\..\..\libs\ble\libbtstack.a(btstack_util.o)
 .riscv.attributes
                0x0000000000000992       0x32 ..\..\..\libs\ble\libbtstack.a(btstack_run_loop.o)
 .riscv.attributes
                0x00000000000009c4       0x32 ..\..\..\libs\ble\libbtstack.a(btstack_memory.o)
 .riscv.attributes
                0x00000000000009f6       0x32 ..\..\..\libs\ble\libbtstack.a(btstack_linked_list.o)
 .riscv.attributes
                0x0000000000000a28       0x32 ..\..\..\libs\ble\libbtstack.a(ad_parser.o)
 .riscv.attributes
                0x0000000000000a5a       0x32 ..\..\..\libs\ble\libbtstack.a(hci_transport_hcic.o)
 .riscv.attributes
                0x0000000000000a8c       0x32 ..\..\..\libs\ble\libbtstack.a(hci_transport_h3_controller.o)
 .riscv.attributes
                0x0000000000000abe       0x32 ..\..\..\libs\ble\libbtstack.a(hci_transport_dummy.o)
 .riscv.attributes
                0x0000000000000af0       0x32 ..\..\..\libs\ble\libbtstack.a(btstack_main.o)
 .riscv.attributes
                0x0000000000000b22       0x32 ..\..\..\libs\ble\libbtstack.a(btstack_hal.o)
 .riscv.attributes
                0x0000000000000b54       0x32 ..\..\..\libs\ble\libbtstack.a(nanos.o)
 .riscv.attributes
                0x0000000000000b86       0x32 ..\..\..\libs\ble\libbtstack.a(bb_sche.o)
 .riscv.attributes
                0x0000000000000bb8       0x32 ..\..\..\libs\ble\libbtstack.a(patch.o)
 .riscv.attributes
                0x0000000000000bea       0x32 ..\..\..\libs\ble\libbtstack.a(bb_dbg.o)
 .riscv.attributes
                0x0000000000000c1c       0x32 ..\..\..\libs\ble\libbtstack.a(bb_clk.o)
 .riscv.attributes
                0x0000000000000c4e       0x32 ..\..\..\libs\ble\libbtstack.a(aes.o)
 .riscv.attributes
                0x0000000000000c80       0x32 ..\..\..\libs\ble\libbtstack.a(extern.o)
 .riscv.attributes
                0x0000000000000cb2       0x32 ..\..\..\libs\ble\libbtstack.a(vs.o)
 .riscv.attributes
                0x0000000000000ce4       0x32 ..\..\..\libs\ble\libbtstack.a(rf_xbox.o)
 .riscv.attributes
                0x0000000000000d16       0x32 ..\..\..\libs\ble\libbtstack.a(complex.o)
 .riscv.attributes
                0x0000000000000d48       0x32 ..\..\..\libs\ble\libbtstack.a(ble_hook.o)
 .riscv.attributes
                0x0000000000000d7a       0x32 ..\..\..\libs\ble\libbtstack.a(hct_tl.o)
 .riscv.attributes
                0x0000000000000dac       0x32 ..\..\..\libs\ble\libbtstack.a(hct_msg.o)
 .riscv.attributes
                0x0000000000000dde       0x32 ..\..\..\libs\ble\libbtstack.a(hct.o)
 .riscv.attributes
                0x0000000000000e10       0x32 ..\..\..\libs\ble\libbtstack.a(mgr_hci.o)
 .riscv.attributes
                0x0000000000000e42       0x32 ..\..\..\libs\ble\libbtstack.a(mgr.o)
 .riscv.attributes
                0x0000000000000e74       0x32 ..\..\..\libs\ble\libbtstack.a(ll_adv.o)
 .riscv.attributes
                0x0000000000000ea6       0x32 ..\..\..\libs\ble\libbtstack.a(ll_tbox_freq_cal.o)
 .riscv.attributes
                0x0000000000000ed8       0x32 ..\..\..\libs\ble\libbtstack.a(ll_con_upd.o)
 .riscv.attributes
                0x0000000000000f0a       0x32 ..\..\..\libs\ble\libbtstack.a(ll_cntl.o)
 .riscv.attributes
                0x0000000000000f3c       0x32 ..\..\..\libs\ble\libbtstack.a(ll_clk_acc.o)
 .riscv.attributes
                0x0000000000000f6e       0x32 ..\..\..\libs\ble\libbtstack.a(ll_chmap_upd.o)
 .riscv.attributes
                0x0000000000000fa0       0x32 ..\..\..\libs\ble\libbtstack.a(ll.o)
 .riscv.attributes
                0x0000000000000fd2       0x32 ..\..\..\libs\ble\libbtstack.a(ble_hal.o)
 .riscv.attributes
                0x0000000000001004       0x32 ..\..\..\libs\ble\libbtstack.a(ble_adv.o)
 .riscv.attributes
                0x0000000000001036       0x32 ..\..\..\libs\ble\libbtstack.a(ble_buf.o)
 .riscv.attributes
                0x0000000000001068       0x32 ..\..\..\libs\ble\libbtstack.a(ble.o)
 .riscv.attributes
                0x000000000000109a       0x32 ..\..\..\libs\ble\libbtstack.a(bb_sleep.o)
 .riscv.attributes
                0x00000000000010cc       0x32 ..\..\..\libs\ble\libbtstack.a(l2cap_signaling.o)
 .riscv.attributes
                0x00000000000010fe       0x32 ..\..\..\libs\ble\libbtstack.a(btstack_memory_pool.o)
 .riscv.attributes
                0x0000000000001130       0x30 ..\..\..\libs\ble\libbtstack.a(patch_asm.o)
 .riscv.attributes
                0x0000000000001160       0x32 ..\..\..\libs\ble\libbtstack.a(platform.o)
 .riscv.attributes
                0x0000000000001192       0x32 ..\..\..\libs\ble\libbtstack.a(vs_proc.o)
 .riscv.attributes
                0x00000000000011c4       0x32 ..\..\..\libs\ble\libbtstack.a(vs_fcc.o)
 .riscv.attributes
                0x00000000000011f6       0x32 ..\..\..\libs\ble\libbtstack.a(adv_hook.o)
 .riscv.attributes
                0x0000000000001228       0x32 ..\..\..\libs\ble\libbtstack.a(mgr_test.o)
 .riscv.attributes
                0x000000000000125a       0x32 ..\..\..\libs\ble\libbtstack.a(mgr_proc.o)
 .riscv.attributes
                0x000000000000128c       0x32 ..\..\..\libs\ble\libbtstack.a(ll_version.o)
 .riscv.attributes
                0x00000000000012be       0x32 ..\..\..\libs\ble\libbtstack.a(ll_tbox_prod_test.o)
 .riscv.attributes
                0x00000000000012f0       0x32 ..\..\..\libs\ble\libbtstack.a(ll_tbox_feature.o)
 .riscv.attributes
                0x0000000000001322       0x32 ..\..\..\libs\ble\libbtstack.a(ll_proc.o)
 .riscv.attributes
                0x0000000000001354       0x32 ..\..\..\libs\ble\libbtstack.a(ll_ping.o)
 .riscv.attributes
                0x0000000000001386       0x32 ..\..\..\libs\ble\libbtstack.a(ll_phy_upd.o)
 .riscv.attributes
                0x00000000000013b8       0x32 ..\..\..\libs\ble\libbtstack.a(ll_length.o)
 .riscv.attributes
                0x00000000000013ea       0x32 ..\..\..\libs\ble\libbtstack.a(ll_feature.o)
 .riscv.attributes
                0x000000000000141c       0x32 ..\..\..\libs\ble\libbtstack.a(ll_encrypt.o)
 .riscv.attributes
                0x000000000000144e       0x32 ..\..\..\libs\ble\libbtstack.a(ll_disconnect.o)
 .riscv.attributes
                0x0000000000001480       0x32 ..\..\..\libs\ble\libbtstack.a(ble_test.o)
 .riscv.attributes
                0x00000000000014b2       0x32 ..\..\..\libs\ble\libbtstack.a(ble_sync.o)
 .riscv.attributes
                0x00000000000014e4       0x32 ..\..\..\libs\ble\libbtstack.a(ble_scan.o)
 .riscv.attributes
                0x0000000000001516       0x32 ..\..\..\libs\ble\libbtstack.a(ble_init.o)
