Archive member included to satisfy reference by file (symbol)

..\..\libs\cpu\libplatform.a(sdadc.o)
                              Output\obj\driver\driver_sdadc.o (mic_adc_init)
..\..\libs\cpu\libplatform.a(cm.o)
                              Output\obj\project\ble_central\bsp\bsp_param.o (cm_sync)
..\..\libs\cpu\libplatform.a(os_flash.o)
                              ..\..\libs\cpu\libplatform.a(cm.o) (os_spiflash_read)
..\..\libs\cpu\libplatform.a(xcfg.o)
                              Output\obj\project\ble_central\bsp\bsp_sys.o (xcfg_init)
..\..\libs\cpu\libplatform.a(main.o)
                              Output\obj\driver\driver_touch_key.o (delay_5ms)
..\..\libs\cpu\libplatform.a(interrupt.o)
                              Output\obj\driver\driver_gpio.o (sys_irq_init)
..\..\libs\cpu\libplatform.a(startup.o)
                              Output\obj\project\ble_central\strong_symbol.o (thread_btstack_create)
..\..\libs\cpu\libplatform.a(sys_hook.o)
                              ..\..\libs\cpu\libplatform.a(startup.o) (sys_hook_init)
..\..\libs\cpu\libplatform.a(thread_aupcm.o)
                              ..\..\libs\cpu\libplatform.a(sdadc.o) (os_mq_aupcm_post)
..\..\libs\cpu\libplatform.a(thread_driver.o)
                              ..\..\libs\cpu\libplatform.a(startup.o) (thread_driver_entry)
..\..\libs\cpu\libplatform.a(pll.o)
                              ..\..\libs\cpu\libplatform.a(main.o) (pll0_disable)
..\..\libs\cpu\libplatform.a(pmu.o)
                              Output\obj\driver\driver_lowpwr.o (pmu_get_vddcore)
..\..\libs\cpu\libplatform.a(rc.o)
                              ..\..\libs\cpu\libplatform.a(main.o) (rc_compile)
..\..\libs\cpu\libplatform.a(reset.o)
                              (_start)
..\..\libs\cpu\libplatform.a(spiflash.o)
                              ..\..\libs\cpu\libplatform.a(os_flash.o) (spi_delay)
..\..\libs\cpu\libplatform.a(debug.o)
                              ..\..\libs\cpu\libplatform.a(main.o) (debug_set)
..\..\libs\cpu\libplatform.a(fot_pack.o)
                              ..\..\libs\cpu\libplatform.a(os_flash.o) (ota_pack_is_update_success)
..\..\libs\cpu\libplatform.a(key.o)
                              Output\obj\project\ble_central\bsp\bsp_key.o (multiple_key_init)
..\..\libs\cpu\libplatform.a(lock.o)
                              ..\..\libs\cpu\libplatform.a(main.o) (lock_init)
..\..\libs\cpu\libplatform.a(patch.o)
                              ..\..\libs\cpu\libplatform.a(main.o) (patch_init)
..\..\libs\cpu\libplatform.a(s_sys.o)
                              ..\..\libs\cpu\libplatform.a(startup.o) (dummy_func)
..\..\libs\cpu\libplatform.a(sleep.o)
                              Output\obj\driver\driver_lowpwr.o (lowpwr_sleep_sfr_save)
..\..\libs\cpu\libplatform.a(sys.o)
                              Output\obj\project\ble_central\main.o (sys_rst_init)
..\..\libs\cpu\libplatform.a(sys_clk.o)
                              Output\obj\driver\driver_spi.o (sys_clk_nhz_get)
..\..\libs\cpu\libplatform.a(voltage_trim.o)
                              Output\obj\driver\driver_charge.o (charge_const_curr_trim)
..\..\libs\cpu\libplatform.a(weak_symbol.o)
                              ..\..\libs\cpu\libplatform.a(main.o) (xosc_24m_div_get)
..\..\libs\cpu\libplatform.a(sddac.o)
                              ..\..\libs\cpu\libplatform.a(thread_aupcm.o) (sddac_dma_done_do)
..\..\libs\cpu\libplatform.a(bt.o)
                              ..\..\libs\cpu\libplatform.a(startup.o) (thread_btstack_entry)
..\..\libs\cpu\libplatform.a(crc.o)
                              ..\..\libs\cpu\libplatform.a(fot_pack.o) (calc_crc32)
..\..\libs\cpu\libgcc.a(divdf3.o)
                              Output\obj\driver\driver_irrx.o (__divdf3)
..\..\libs\cpu\libgcc.a(muldf3.o)
                              Output\obj\driver\driver_irrx.o (__muldf3)
..\..\libs\cpu\libgcc.a(fixunsdfsi.o)
                              Output\obj\driver\driver_irrx.o (__fixunsdfsi)
..\..\libs\cpu\libgcc.a(floatsidf.o)
                              Output\obj\driver\driver_irtx.o (__floatsidf)
..\..\libs\cpu\libgcc.a(floatunsidf.o)
                              Output\obj\driver\driver_irrx.o (__floatunsidf)
..\..\libs\cpu\libgcc.a(_clzsi2.o)
                              ..\..\libs\cpu\libgcc.a(divdf3.o) (__clzsi2)
..\..\libs\cpu\libgcc.a(_clz.o)
                              ..\..\libs\cpu\libgcc.a(_clzsi2.o) (__clz_tab)
..\..\libs\ble\libbtstack_central.a(txpkt.o)
                              Output\obj\project\ble_central\ble\ble_init.o (txpkt_init)
..\..\libs\ble\libbtstack_central.a(hci.o)
                              Output\obj\project\ble_central\ble\ble_client.o (ble_get_scan_sta)
..\..\libs\ble\libbtstack_central.a(btstack_util.o)
                              ..\..\libs\ble\libbtstack_central.a(hci.o) (bd_addr_copy)
..\..\libs\ble\libbtstack_central.a(btstack_linked_list.o)
                              ..\..\libs\ble\libbtstack_central.a(hci.o) (btstack_linked_list_add)
..\..\libs\ble\libbtstack_central.a(sm.o)
                              Output\obj\project\ble_central\ble\ble_init.o (ble_sm_init)
..\..\libs\ble\libbtstack_central.a(le_device_db_memory.o)
                              ..\..\libs\ble\libbtstack_central.a(sm.o) (ble_bonding_info_max_count)
..\..\libs\ble\libbtstack_central.a(gatt_client.o)
                              Output\obj\project\ble_central\ble\ble_client.o (att_client_register_handler)
..\..\libs\ble\libbtstack_central.a(att_server.o)
                              ..\..\libs\ble\libbtstack_central.a(gatt_client.o) (att_server_request_can_send_now_event)
..\..\libs\ble\libbtstack_central.a(att_dispatch.o)
                              ..\..\libs\ble\libbtstack_central.a(gatt_client.o) (att_dispatch_register_client)
..\..\libs\ble\libbtstack_central.a(att_db.o)
                              ..\..\libs\ble\libbtstack_central.a(att_server.o) (att_set_db)
..\..\libs\ble\libbtstack_central.a(ad_parser.o)
                              Output\obj\project\ble_central\ble\ble_client.o (ble_adv_report_info_analyse)
..\..\libs\ble\libbtstack_central.a(hci_transport_hcic.o)
                              ..\..\libs\ble\libbtstack_central.a(hci.o) (hcic_rx_flush)
..\..\libs\ble\libbtstack_central.a(btstack_api.o)
                              Output\obj\project\ble_central\ble\ble_init.o (bt_init)
..\..\libs\ble\libbtstack_central.a(bt_api.o)
                              Output\obj\project\ble_central\app\func_bt.o (bt_off)
..\..\libs\ble\libbtstack_central.a(ble_api.o)
                              Output\obj\project\ble_central\ble\ble_client.o (ble_update_conn_param)
..\..\libs\ble\libbtstack_central.a(rf.o)
                              ..\..\libs\ble\libbtstack_central.a(btstack_api.o) (rf_single_tone_enter)
..\..\libs\ble\libbtstack_central.a(hct_tl.o)
                              ..\..\libs\ble\libbtstack_central.a(hci_transport_hcic.o) (hci_tx_done)
..\..\libs\ble\libbtstack_central.a(hct_msg.o)
                              ..\..\libs\ble\libbtstack_central.a(hct_tl.o) (hci_look_for_cmd_desc)
..\..\libs\ble\libbtstack_central.a(hct.o)
                              ..\..\libs\ble\libbtstack_central.a(hct_tl.o) (hci_send_2_host)
..\..\libs\ble\libbtstack_central.a(mgr_hci.o)
                              ..\..\libs\ble\libbtstack_central.a(hci.o) (hci_le_rd_buff_size)
..\..\libs\ble\libbtstack_central.a(mgr.o)
                              ..\..\libs\ble\libbtstack_central.a(mgr_hci.o) (mgr_cmd_cmp_send)
..\..\libs\ble\libbtstack_central.a(ll_scan.o)
                              ..\..\libs\ble\libbtstack_central.a(mgr_hci.o) (hci_le_set_scan_param_cmd_func)
..\..\libs\ble\libbtstack_central.a(ble_scan.o)
                              ..\..\libs\ble\libbtstack_central.a(ll_scan.o) (ble_scan_private_init_hook)
..\..\libs\ble\libbtstack_central.a(ble_hal.o)
                              ..\..\libs\ble\libbtstack_central.a(mgr.o) (ble_ch_assess_data_get)
..\..\libs\ble\libbtstack_central.a(ble_con.o)
                              ..\..\libs\ble\libbtstack_central.a(btstack_api.o) (ble_get_con_rssi)
..\..\libs\ble\libbtstack_central.a(ble_buf.o)
                              ..\..\libs\ble\libbtstack_central.a(hct_tl.o) (ble_buf_rx_free)
..\..\libs\ble\libbtstack_central.a(bb_utils.o)
                              ..\..\libs\ble\libbtstack_central.a(ll_scan.o) (bb_rate_to_phy)
..\..\libs\ble\libbtstack_central.a(bb_int.o)
                              ..\..\libs\ble\libbtstack_central.a(bt_api.o) (bb_timer_init)
..\..\libs\ble\libbtstack_central.a(bb.o)
                              ..\..\libs\ble\libbtstack_central.a(btstack_api.o) (bb_var_init)
..\..\libs\ble\libbtstack_central.a(platform.o)
                              ..\..\libs\ble\libbtstack_central.a(bb.o) (dummy_void)
..\..\libs\ble\libbtstack_central.a(extern_ble.o)
                              ..\..\libs\ble\libbtstack_central.a(att_server.o) (att_user_read_callback)
..\..\libs\ble\libbtstack_central.a(extern.o)
                              ..\..\libs\ble\libbtstack_central.a(bb_int.o) (sys_sleep_check)
..\..\libs\ble\libbtstack_central.a(l2cap.o)
                              ..\..\libs\ble\libbtstack_central.a(sm.o) (l2cap_request_can_send_fix_channel_now_event)
..\..\libs\ble\libbtstack_central.a(hci_dump.o)
                              ..\..\libs\ble\libbtstack_central.a(btstack_api.o) (hci_dump_open)
..\..\libs\ble\libbtstack_central.a(hci_cmd.o)
                              ..\..\libs\ble\libbtstack_central.a(hci.o) (hci_cmd_create_from_template)
..\..\libs\ble\libbtstack_central.a(btstack_run_loop.o)
                              ..\..\libs\ble\libbtstack_central.a(sm.o) (btstack_run_loop_set_timer_handler)
..\..\libs\ble\libbtstack_central.a(btstack_memory.o)
                              ..\..\libs\ble\libbtstack_central.a(gatt_client.o) (btstack_memory_gatt_client_get)
..\..\libs\ble\libbtstack_central.a(gatt_server.o)
                              ..\..\libs\ble\libbtstack_central.a(att_server.o) (att_event_server_send)
..\..\libs\ble\libbtstack_central.a(hci_transport_h3_controller.o)
                              ..\..\libs\ble\libbtstack_central.a(btstack_run_loop.o) (hci_is_sleep)
..\..\libs\ble\libbtstack_central.a(hci_transport_dummy.o)
                              ..\..\libs\ble\libbtstack_central.a(btstack_api.o) (hci_iodm_init)
..\..\libs\ble\libbtstack_central.a(btstack_main.o)
                              ..\..\libs\ble\libbtstack_central.a(ble_api.o) (btstack_ble_set_init_callback)
..\..\libs\ble\libbtstack_central.a(btstack_hal.o)
                              ..\..\libs\ble\libbtstack_central.a(btstack_run_loop.o) (hal_tick_init)
..\..\libs\ble\libbtstack_central.a(nanos.o)
                              ..\..\libs\ble\libbtstack_central.a(bb_int.o) (nanos_event_set)
..\..\libs\ble\libbtstack_central.a(bb_sche.o)
                              ..\..\libs\ble\libbtstack_central.a(bb.o) (bb_sche_init)
..\..\libs\ble\libbtstack_central.a(patch.o)
                              ..\..\libs\ble\libbtstack_central.a(bb.o) (bb_patch_dummy)
..\..\libs\ble\libbtstack_central.a(bb_dbg.o)
                              ..\..\libs\ble\libbtstack_central.a(bb.o) (bb_dbg_init)
..\..\libs\ble\libbtstack_central.a(bb_clk.o)
                              ..\..\libs\ble\libbtstack_central.a(bb.o) (bb_clk_init)
..\..\libs\ble\libbtstack_central.a(aes.o)
                              ..\..\libs\ble\libbtstack_central.a(bb.o) (aes_init)
..\..\libs\ble\libbtstack_central.a(extern.o)
                              ..\..\libs\ble\libbtstack_central.a(bb_int.o) (ble_sleep_duration_max_get)
..\..\libs\ble\libbtstack_central.a(vs.o)
                              ..\..\libs\ble\libbtstack_central.a(bb.o) (vs_init)
..\..\libs\ble\libbtstack_central.a(rf_xbox.o)
                              ..\..\libs\ble\libbtstack_central.a(rf.o) (rfphy_deep_sleep)
..\..\libs\ble\libbtstack_central.a(complex.o)
                              ..\..\libs\ble\libbtstack_central.a(rf_xbox.o) (complexSubtract)
..\..\libs\ble\libbtstack_central.a(scan_hook.o)
                              ..\..\libs\ble\libbtstack_central.a(ll_scan.o) (ble_scan_end_ind_hook)
..\..\libs\ble\libbtstack_central.a(ble_hook.o)
                              ..\..\libs\ble\libbtstack_central.a(ble_hal.o) (ble_hal_init_hook)
..\..\libs\ble\libbtstack_central.a(mgr_test.o)
                              ..\..\libs\ble\libbtstack_central.a(mgr_hci.o) (hci_le_rx_test_v1_cmd_func)
..\..\libs\ble\libbtstack_central.a(mgr_proc.o)
                              ..\..\libs\ble\libbtstack_central.a(mgr.o) (mgr_msg_env)
..\..\libs\ble\libbtstack_central.a(mgr_init.o)
                              ..\..\libs\ble\libbtstack_central.a(mgr_hci.o) (hci_le_create_con_cmd_func)
..\..\libs\ble\libbtstack_central.a(ll_con_upd.o)
                              ..\..\libs\ble\libbtstack_central.a(mgr_init.o) (ll_con_move_cb)
..\..\libs\ble\libbtstack_central.a(ll_cntl.o)
                              ..\..\libs\ble\libbtstack_central.a(ll_con_upd.o) (ll_cntl_send)
..\..\libs\ble\libbtstack_central.a(ll_clk_acc.o)
                              ..\..\libs\ble\libbtstack_central.a(ll_cntl.o) (ll_clk_acc_req_func)
..\..\libs\ble\libbtstack_central.a(ll_chmap_upd.o)
                              ..\..\libs\ble\libbtstack_central.a(ll_cntl.o) (ll_channel_map_ind_func)
..\..\libs\ble\libbtstack_central.a(ll.o)
                              ..\..\libs\ble\libbtstack_central.a(mgr_init.o) (ll_start)
..\..\libs\ble\libbtstack_central.a(ble_test.o)
                              ..\..\libs\ble\libbtstack_central.a(mgr_test.o) (ble_test_start)
..\..\libs\ble\libbtstack_central.a(ble_init.o)
                              ..\..\libs\ble\libbtstack_central.a(mgr_init.o) (ble_init_start)
..\..\libs\ble\libbtstack_central.a(ble.o)
                              ..\..\libs\ble\libbtstack_central.a(bb.o) (ble_var_init)
..\..\libs\ble\libbtstack_central.a(bb_sleep.o)
                              ..\..\libs\ble\libbtstack_central.a(bb_int.o) (bb_sleep_suspend)
..\..\libs\ble\libbtstack_central.a(periph.o)
                              ..\..\libs\ble\libbtstack_central.a(btstack_hal.o) (bt_uart_init)
..\..\libs\ble\libbtstack_central.a(l2cap_signaling.o)
                              ..\..\libs\ble\libbtstack_central.a(l2cap.o) (l2cap_create_signaling_le)
..\..\libs\ble\libbtstack_central.a(btstack_memory_pool.o)
                              ..\..\libs\ble\libbtstack_central.a(btstack_memory.o) (btstack_memory_pool_get)
..\..\libs\ble\libbtstack_central.a(patch_asm.o)
                              ..\..\libs\ble\libbtstack_central.a(patch.o) (bb_v1_patch0)
..\..\libs\ble\libbtstack_central.a(platform.o)
                              ..\..\libs\ble\libbtstack_central.a(ll_cntl.o) (bb_ll_tx_cb)
..\..\libs\ble\libbtstack_central.a(vs_proc.o)
                              ..\..\libs\ble\libbtstack_central.a(vs.o) (vs_env)
..\..\libs\ble\libbtstack_central.a(vs_fcc.o)
                              ..\..\libs\ble\libbtstack_central.a(vs_proc.o) (vs_fcc_test_cmd)
..\..\libs\ble\libbtstack_central.a(ll_version.o)
                              ..\..\libs\ble\libbtstack_central.a(ll_cntl.o) (ll_version_ind_func)
..\..\libs\ble\libbtstack_central.a(ll_proc.o)
                              ..\..\libs\ble\libbtstack_central.a(ll_con_upd.o) (ll_cmd_stat_send)
..\..\libs\ble\libbtstack_central.a(ll_ping.o)
                              ..\..\libs\ble\libbtstack_central.a(ll_cntl.o) (ll_ping_req_func)
..\..\libs\ble\libbtstack_central.a(ll_phy_upd.o)
                              ..\..\libs\ble\libbtstack_central.a(ll_cntl.o) (ll_phy_req_func)
..\..\libs\ble\libbtstack_central.a(ll_length.o)
                              ..\..\libs\ble\libbtstack_central.a(ll_cntl.o) (ll_length_req_func)
..\..\libs\ble\libbtstack_central.a(ll_feature.o)
                              ..\..\libs\ble\libbtstack_central.a(ll_cntl.o) (ll_feature_req_func)
..\..\libs\ble\libbtstack_central.a(ll_encrypt.o)
                              ..\..\libs\ble\libbtstack_central.a(ll_cntl.o) (ll_pause_enc_req_func)
..\..\libs\ble\libbtstack_central.a(ll_disconnect.o)
                              ..\..\libs\ble\libbtstack_central.a(ll_proc.o) (ble_disc_ind_func)
..\..\libs\ble\libbtstack_central.a(ble_sync.o)
                              ..\..\libs\ble\libbtstack_central.a(ble.o) (ble_get_sync_var)

Allocating common symbols
Common symbol       size              file

tmr5ms_cnt          0x2               Output\obj\project\ble_central\bsp\bsp_sys.o
g_variance          0x10              Output\obj\driver\driver_touch_key.o
cfg_bt_rf_def_txpwr
                    0x1               Output\obj\project\ble_central\strong_symbol.o
sfr_user_backup     0x20              Output\obj\project\ble_central\app\func_lowpwr.o
xcfg_cb             0x34              Output\obj\project\ble_central\bsp\bsp_sys.o
g_avg               0x10              Output\obj\driver\driver_touch_key.o

Discarded input sections

 .text          0x0000000000000000        0x0 Output\obj\driver\driver_adv_timer.o
 .data          0x0000000000000000        0x0 Output\obj\driver\driver_adv_timer.o
 .bss           0x0000000000000000        0x0 Output\obj\driver\driver_adv_timer.o
 .text.tim_timebaseinit
                0x0000000000000000       0x50 Output\obj\driver\driver_adv_timer.o
 .text.tim_oc1init
                0x0000000000000000       0x78 Output\obj\driver\driver_adv_timer.o
 .text.tim_oc2init
                0x0000000000000000       0x9c Output\obj\driver\driver_adv_timer.o
 .text.tim_oc3init
                0x0000000000000000       0x96 Output\obj\driver\driver_adv_timer.o
 .text.tim_oc4init
                0x0000000000000000       0x74 Output\obj\driver\driver_adv_timer.o
 .text.tim_bdtrconfig
                0x0000000000000000       0x30 Output\obj\driver\driver_adv_timer.o
 .text.tim_timebasestructinit
                0x0000000000000000       0x18 Output\obj\driver\driver_adv_timer.o
 .text.tim_ocstructinit
                0x0000000000000000       0x22 Output\obj\driver\driver_adv_timer.o
 .text.tim_bdtrstructinit
                0x0000000000000000       0x1e Output\obj\driver\driver_adv_timer.o
 .com_text.tim.cmd
                0x0000000000000000       0x14 Output\obj\driver\driver_adv_timer.o
 .com_text.tim.ctrlpwmoutputs
                0x0000000000000000       0x12 Output\obj\driver\driver_adv_timer.o
 .text.tim_itconfig
                0x0000000000000000       0x16 Output\obj\driver\driver_adv_timer.o
 .com_periph.tim.generateevent
                0x0000000000000000        0x4 Output\obj\driver\driver_adv_timer.o
 .com_periph.tim.internalclock
                0x0000000000000000        0xc Output\obj\driver\driver_adv_timer.o
 .com_periph.tim.itrxexternalclock
                0x0000000000000000       0x18 Output\obj\driver\driver_adv_timer.o
 .com_periph.tim.tixexternalclock
                0x0000000000000000       0xb0 Output\obj\driver\driver_adv_timer.o
 .com_periph.tim.etrconfig
                0x0000000000000000       0x16 Output\obj\driver\driver_adv_timer.o
 .com_periph.etrclockmode1
                0x0000000000000000       0x2a Output\obj\driver\driver_adv_timer.o
 .com_periph.tim.etrclockmode2
                0x0000000000000000       0x22 Output\obj\driver\driver_adv_timer.o
 .com_periph.tim.prescaler
                0x0000000000000000        0x6 Output\obj\driver\driver_adv_timer.o
 .com_periph.tim.countermode
                0x0000000000000000       0x10 Output\obj\driver\driver_adv_timer.o
 .com_periph.tim.selectinputtrigger
                0x0000000000000000       0x10 Output\obj\driver\driver_adv_timer.o
 .text.tim_encoderinterfaceconfig
                0x0000000000000000       0x3a Output\obj\driver\driver_adv_timer.o
 .com_periph.tim.forcedoc1
                0x0000000000000000       0x10 Output\obj\driver\driver_adv_timer.o
 .com_periph.tim.forcedoc2
                0x0000000000000000       0x18 Output\obj\driver\driver_adv_timer.o
 .com_periph.tim.forcedoc3
                0x0000000000000000       0x10 Output\obj\driver\driver_adv_timer.o
 .com_periph.tim.forcedoc4
                0x0000000000000000       0x18 Output\obj\driver\driver_adv_timer.o
 .com_periph.tim.arrpreload
                0x0000000000000000       0x16 Output\obj\driver\driver_adv_timer.o
 .com_periph.tim.selectcom
                0x0000000000000000       0x14 Output\obj\driver\driver_adv_timer.o
 .com_periph.tim.ccpreloadcontrol
                0x0000000000000000       0x14 Output\obj\driver\driver_adv_timer.o
 .com_periph.tim.oc1preload
                0x0000000000000000        0xe Output\obj\driver\driver_adv_timer.o
 .com_periph.tim.oc2preload
                0x0000000000000000       0x1a Output\obj\driver\driver_adv_timer.o
 .com_periph.tim.oc3preload
                0x0000000000000000        0xe Output\obj\driver\driver_adv_timer.o
 .com_periph.tim.oc4preload
                0x0000000000000000       0x1a Output\obj\driver\driver_adv_timer.o
 .com_periph.tim.clearoc1
                0x0000000000000000       0x10 Output\obj\driver\driver_adv_timer.o
 .com_periph.tim.clearoc2
                0x0000000000000000       0x12 Output\obj\driver\driver_adv_timer.o
 .com_periph.tim.clearoc3
                0x0000000000000000       0x10 Output\obj\driver\driver_adv_timer.o
 .com_periph.tim.clearoc4
                0x0000000000000000       0x12 Output\obj\driver\driver_adv_timer.o
 .com_periph.tim.oc1polarity
                0x0000000000000000        0xe Output\obj\driver\driver_adv_timer.o
 .com_periph.oc1npolarity
                0x0000000000000000        0xe Output\obj\driver\driver_adv_timer.o
 .com_periph.oc2polarity
                0x0000000000000000       0x16 Output\obj\driver\driver_adv_timer.o
 .com_periph.oc2npolarity
                0x0000000000000000       0x16 Output\obj\driver\driver_adv_timer.o
 .com_periph.oc3polarity
                0x0000000000000000       0x16 Output\obj\driver\driver_adv_timer.o
 .com_periph.oc3npolarity
                0x0000000000000000       0x1a Output\obj\driver\driver_adv_timer.o
 .com_periph.oc4polarity
                0x0000000000000000       0x18 Output\obj\driver\driver_adv_timer.o
 .com_periph.ccxcmd
                0x0000000000000000       0x24 Output\obj\driver\driver_adv_timer.o
 .com_periph.ccxncmd
                0x0000000000000000       0x24 Output\obj\driver\driver_adv_timer.o
 .com_periph.selectocxm
                0x0000000000000000       0x58 Output\obj\driver\driver_adv_timer.o
 .com_periph.tim.updatedisable
                0x0000000000000000       0x14 Output\obj\driver\driver_adv_timer.o
 .com_periph.tim.updaterequest
                0x0000000000000000       0x14 Output\obj\driver\driver_adv_timer.o
 .com_periph.selectonepulsemode
                0x0000000000000000       0x12 Output\obj\driver\driver_adv_timer.o
 .com_periph.tim.selectoutputtrigger
                0x0000000000000000       0x14 Output\obj\driver\driver_adv_timer.o
 .com_periph.tim.selectslavemode
                0x0000000000000000       0x12 Output\obj\driver\driver_adv_timer.o
 .com_periph.tim.setcounter
                0x0000000000000000        0x4 Output\obj\driver\driver_adv_timer.o
 .com_periph.tim.setautoreload
                0x0000000000000000        0x4 Output\obj\driver\driver_adv_timer.o
 .com_periph.setcompare1
                0x0000000000000000        0x4 Output\obj\driver\driver_adv_timer.o
 .com_periph.setcompare2
                0x0000000000000000        0x4 Output\obj\driver\driver_adv_timer.o
 .com_periph.setcompare3
                0x0000000000000000        0x4 Output\obj\driver\driver_adv_timer.o
 .com_periph.setcompare4
                0x0000000000000000        0x4 Output\obj\driver\driver_adv_timer.o
 .com_periph.setic1prescaler
                0x0000000000000000       0x12 Output\obj\driver\driver_adv_timer.o
 .com_periph.setic2prescaler
                0x0000000000000000       0x1a Output\obj\driver\driver_adv_timer.o
 .com_periph.setic3prescaler
                0x0000000000000000       0x12 Output\obj\driver\driver_adv_timer.o
 .com_periph.setic4prescaler
                0x0000000000000000       0x1a Output\obj\driver\driver_adv_timer.o
 .com_periph.tim.setclockdivision
                0x0000000000000000       0x14 Output\obj\driver\driver_adv_timer.o
 .com_periph.tim.getcounter
                0x0000000000000000        0x8 Output\obj\driver\driver_adv_timer.o
 .com_periph.tim.getprescaler
                0x0000000000000000        0x8 Output\obj\driver\driver_adv_timer.o
 .com_periph.getflagstatus
                0x0000000000000000        0xa Output\obj\driver\driver_adv_timer.o
 .com_periph.clearflag
                0x0000000000000000        0x4 Output\obj\driver\driver_adv_timer.o
 .com_periph.getitstatus
                0x0000000000000000       0x14 Output\obj\driver\driver_adv_timer.o
 .com_periph.clearitpendingbit
                0x0000000000000000        0x4 Output\obj\driver\driver_adv_timer.o
 .com_periph.tim.trgosaradc
                0x0000000000000000       0x12 Output\obj\driver\driver_adv_timer.o
 .comment       0x0000000000000000       0x12 Output\obj\driver\driver_adv_timer.o
 .text          0x0000000000000000        0x0 Output\obj\driver\driver_charge.o
 .data          0x0000000000000000        0x0 Output\obj\driver\driver_charge.o
 .bss           0x0000000000000000        0x0 Output\obj\driver\driver_charge.o
 .text.charge_deinit
                0x0000000000000000       0x24 Output\obj\driver\driver_charge.o
 .text.charge_change_mode
                0x0000000000000000       0x10 Output\obj\driver\driver_charge.o
 .text.charge_get_mode
                0x0000000000000000        0xa Output\obj\driver\driver_charge.o
 .text.charge_cutoff_cur_condition
                0x0000000000000000        0xa Output\obj\driver\driver_charge.o
 .text.charge_cutoff_vol_condition
                0x0000000000000000        0xa Output\obj\driver\driver_charge.o
 .text.charge_trickle_vol_condition
                0x0000000000000000        0xa Output\obj\driver\driver_charge.o
 .text.charge_cutoff_vol_to_stop_time_set
                0x0000000000000000        0xa Output\obj\driver\driver_charge.o
 .text.charge_pwrup_charge_cur_sel
                0x0000000000000000       0x12 Output\obj\driver\driver_charge.o
 .text.charge_cutoff_vol_triming
                0x0000000000000000       0x2e Output\obj\driver\driver_charge.o
 .text          0x0000000000000000        0x0 Output\obj\driver\driver_clk.o
 .data          0x0000000000000000        0x0 Output\obj\driver\driver_clk.o
 .bss           0x0000000000000000        0x0 Output\obj\driver\driver_clk.o
 .text.clk_gate1_cmd
                0x0000000000000000       0x16 Output\obj\driver\driver_clk.o
 .text.clk_gate2_cmd
                0x0000000000000000       0x16 Output\obj\driver\driver_clk.o
 .text.clk_clkout_set
                0x0000000000000000       0x4e Output\obj\driver\driver_clk.o
 .text.clk_clk32k_rtc_set
                0x0000000000000000       0x28 Output\obj\driver\driver_clk.o
 .text.clk_clk32k_rtc_get
                0x0000000000000000       0x46 Output\obj\driver\driver_clk.o
 .text.clk_hsut0_clk_set
                0x0000000000000000       0x4a Output\obj\driver\driver_clk.o
 .text.clk_saradc_clk_set
                0x0000000000000000       0x18 Output\obj\driver\driver_clk.o
 .text.clk_udet_clk_set
                0x0000000000000000       0x18 Output\obj\driver\driver_clk.o
 .text.clk_hsut0_clk_get
                0x0000000000000000       0x6c Output\obj\driver\driver_clk.o
 .text.clk_tmr_inc_set
                0x0000000000000000       0x18 Output\obj\driver\driver_clk.o
 .text.clk_tmr_inc_get
                0x0000000000000000       0x60 Output\obj\driver\driver_clk.o
 .text.clk_uart_inc_set
                0x0000000000000000       0x16 Output\obj\driver\driver_clk.o
 .text.clk_clk2m_ks_set
                0x0000000000000000       0x18 Output\obj\driver\driver_clk.o
 .text.clk_clk2m_ks_get
                0x0000000000000000       0x3a Output\obj\driver\driver_clk.o
 .text.clk_sdadda_clk_set
                0x0000000000000000       0x40 Output\obj\driver\driver_clk.o
 .text.clk_sdadda_clk_get
                0x0000000000000000       0x54 Output\obj\driver\driver_clk.o
 .text.clk_ledc_clk_set
                0x0000000000000000       0x18 Output\obj\driver\driver_clk.o
 .text.clk_ledc_clk_get
                0x0000000000000000       0x24 Output\obj\driver\driver_clk.o
 .text.clk_touch_key_clk_set
                0x0000000000000000       0x54 Output\obj\driver\driver_clk.o
 .text.clk_touch_key_clk_get
                0x0000000000000000       0x34 Output\obj\driver\driver_clk.o
 .text.clk_ttmr_inc_set
                0x0000000000000000       0x16 Output\obj\driver\driver_clk.o
 .text.clk_ttmr_inc_get
                0x0000000000000000       0x60 Output\obj\driver\driver_clk.o
 .text.clk_qdec_set
                0x0000000000000000       0x16 Output\obj\driver\driver_clk.o
 .text          0x0000000000000000        0x0 Output\obj\driver\driver_gpio.o
 .data          0x0000000000000000        0x0 Output\obj\driver\driver_gpio.o
 .bss           0x0000000000000000        0x0 Output\obj\driver\driver_gpio.o
 .text.gpio_deinit
                0x0000000000000000       0x1c Output\obj\driver\driver_gpio.o
 .com_periph.gpio.set
                0x0000000000000000        0x4 Output\obj\driver\driver_gpio.o
 .com_periph.gpio.reset
                0x0000000000000000        0x4 Output\obj\driver\driver_gpio.o
 .com_periph.gpio.write
                0x0000000000000000        0x4 Output\obj\driver\driver_gpio.o
 .com_periph.gpio.toggle
                0x0000000000000000        0x8 Output\obj\driver\driver_gpio.o
 .com_periph.gpio.read_data
                0x0000000000000000        0x8 Output\obj\driver\driver_gpio.o
 .com_periph.gpio.read_bit
                0x0000000000000000        0xa Output\obj\driver\driver_gpio.o
 .text.gpio_func_mapping_clear
                0x0000000000000000       0x84 Output\obj\driver\driver_gpio.o
 .com_periph.gpio.pending_clr
                0x0000000000000000        0xc Output\obj\driver\driver_gpio.o
 .com_periph.gpio.pending_is
                0x0000000000000000       0x12 Output\obj\driver\driver_gpio.o
 .text.gpio_edge_pic_disable
                0x0000000000000000       0x1c Output\obj\driver\driver_gpio.o
 .text.gpio_reset_init
                0x0000000000000000       0x84 Output\obj\driver\driver_gpio.o
 .text.gpio_reset_10s_sel
                0x0000000000000000       0x3a Output\obj\driver\driver_gpio.o
 .text          0x0000000000000000        0x0 Output\obj\driver\driver_hsuart.o
 .data          0x0000000000000000        0x0 Output\obj\driver\driver_hsuart.o
 .bss           0x0000000000000000        0x0 Output\obj\driver\driver_hsuart.o
 .text.hsuart_init
                0x0000000000000000       0x92 Output\obj\driver\driver_hsuart.o
 .text.hsuart_deinit
                0x0000000000000000       0x14 Output\obj\driver\driver_hsuart.o
 .text.hsuart_cmd
                0x0000000000000000       0x16 Output\obj\driver\driver_hsuart.o
 .com_periph.hsuart.send
                0x0000000000000000       0x1a Output\obj\driver\driver_hsuart.o
 .com_periph.hsuart.recv
                0x0000000000000000        0xa Output\obj\driver\driver_hsuart.o
 .com_periph.hsuart.receive_data
                0x0000000000000000       0x44 Output\obj\driver\driver_hsuart.o
 .com_periph.hsuart.fifo_get
                0x0000000000000000        0xa Output\obj\driver\driver_hsuart.o
 .text.hsuart_clear_fifo_counter
                0x0000000000000000        0xe Output\obj\driver\driver_hsuart.o
 .text.hsuart_baud_config
                0x0000000000000000       0x2c Output\obj\driver\driver_hsuart.o
 .text.hsuart_pic_config
                0x0000000000000000       0x6c Output\obj\driver\driver_hsuart.o
 .com_periph.hsuart.get_flag
                0x0000000000000000       0x32 Output\obj\driver\driver_hsuart.o
 .com_periph.hsuart.clear
                0x0000000000000000       0x32 Output\obj\driver\driver_hsuart.o
 .text.hsuart_rx_idle_config
                0x0000000000000000       0x1e Output\obj\driver\driver_hsuart.o
 .com_periph.hsuart.dma
                0x0000000000000000       0x20 Output\obj\driver\driver_hsuart.o
 .com_periph.hsuart.stop
                0x0000000000000000       0x18 Output\obj\driver\driver_hsuart.o
 .comment       0x0000000000000000       0x12 Output\obj\driver\driver_hsuart.o
 .text          0x0000000000000000        0x0 Output\obj\driver\driver_iic.o
 .data          0x0000000000000000        0x0 Output\obj\driver\driver_iic.o
 .bss           0x0000000000000000        0x0 Output\obj\driver\driver_iic.o
 .text.iic_transmit_config
                0x0000000000000000       0xc6 Output\obj\driver\driver_iic.o
 .text.iic_init
                0x0000000000000000       0x80 Output\obj\driver\driver_iic.o
 .text.iic_deinit
                0x0000000000000000       0x10 Output\obj\driver\driver_iic.o
 .text.iic_cmd  0x0000000000000000       0x14 Output\obj\driver\driver_iic.o
 .text.iic_send_data
                0x0000000000000000       0x6a Output\obj\driver\driver_iic.o
 .com_periph.iic.dma
                0x0000000000000000      0x10e Output\obj\driver\driver_iic.o
 .text.iic_receive_data
                0x0000000000000000       0x6c Output\obj\driver\driver_iic.o
 .text.iic_pic_config
                0x0000000000000000       0x3e Output\obj\driver\driver_iic.o
 .com_periph.iic.get
                0x0000000000000000       0x20 Output\obj\driver\driver_iic.o
 .com_periph.iic.clear
                0x0000000000000000        0xe Output\obj\driver\driver_iic.o
 .com_periph.iic.nack_en
                0x0000000000000000       0x16 Output\obj\driver\driver_iic.o
 .com_periph.iic.smp_sel
                0x0000000000000000       0x16 Output\obj\driver\driver_iic.o
 .text.iic_slave_addr_set
                0x0000000000000000        0x6 Output\obj\driver\driver_iic.o
 .com_periph.iic.slave_status_get
                0x0000000000000000        0x6 Output\obj\driver\driver_iic.o
 .com_periph.iic.slave_data_len_get
                0x0000000000000000        0xa Output\obj\driver\driver_iic.o
 .com_periph.iic.slave_data_get
                0x0000000000000000        0x6 Output\obj\driver\driver_iic.o
 .com_periph.iic.slave_data_send
                0x0000000000000000       0x10 Output\obj\driver\driver_iic.o
 .com_periph.iic.clear_done_flag
                0x0000000000000000        0xe Output\obj\driver\driver_iic.o
 .com_periph.iic.clear_slave_tx_status
                0x0000000000000000        0xe Output\obj\driver\driver_iic.o
 .com_periph.iic.clear_slave_rx_status
                0x0000000000000000       0x10 Output\obj\driver\driver_iic.o
 .com_periph.iic.slave_is_rx_status
                0x0000000000000000        0x6 Output\obj\driver\driver_iic.o
 .com_periph.iic.slave_is_tx_status
                0x0000000000000000        0x6 Output\obj\driver\driver_iic.o
 .com_periph.iic.slave_rx_stop_sign
                0x0000000000000000        0xa Output\obj\driver\driver_iic.o
 .comment       0x0000000000000000       0x12 Output\obj\driver\driver_iic.o
 .text          0x0000000000000000        0x0 Output\obj\driver\driver_irrx.o
 .data          0x0000000000000000        0x0 Output\obj\driver\driver_irrx.o
 .bss           0x0000000000000000        0x0 Output\obj\driver\driver_irrx.o
 .text.irrx_init
                0x0000000000000000       0x8a Output\obj\driver\driver_irrx.o
 .text.irrx_decode_config
                0x0000000000000000      0x1a0 Output\obj\driver\driver_irrx.o
 .text.irrx_base_init
                0x0000000000000000       0x28 Output\obj\driver\driver_irrx.o
 .text.irrx_wake_init
                0x0000000000000000       0x38 Output\obj\driver\driver_irrx.o
 .text.irrx_decode_init
                0x0000000000000000        0x8 Output\obj\driver\driver_irrx.o
 .rodata.irrx_decode_config.cst8
                0x0000000000000000       0x48 Output\obj\driver\driver_irrx.o
 .rodata.timing_freq
                0x0000000000000000       0x10 Output\obj\driver\driver_irrx.o
 .comment       0x0000000000000000       0x12 Output\obj\driver\driver_irrx.o
 .text          0x0000000000000000        0x0 Output\obj\driver\driver_irtx.o
 .data          0x0000000000000000        0x0 Output\obj\driver\driver_irtx.o
 .bss           0x0000000000000000        0x0 Output\obj\driver\driver_irtx.o
 .text.ir_clk_init
                0x0000000000000000       0xce Output\obj\driver\driver_irtx.o
 .text.irtx_clk_init
                0x0000000000000000       0x30 Output\obj\driver\driver_irtx.o
 .text.irtx_timing_set
                0x0000000000000000      0x212 Output\obj\driver\driver_irtx.o
 .text.irtx_timing_init
                0x0000000000000000       0x7e Output\obj\driver\driver_irtx.o
 .text.irtx_capture_edge
                0x0000000000000000       0x18 Output\obj\driver\driver_irtx.o
 .text.irtx_carrier_init
                0x0000000000000000       0x66 Output\obj\driver\driver_irtx.o
 .text.irtx_dma_init
                0x0000000000000000       0x40 Output\obj\driver\driver_irtx.o
 .text.irtx_data_set
                0x0000000000000000        0x4 Output\obj\driver\driver_irtx.o
 .text.irtx_init
                0x0000000000000000       0x3c Output\obj\driver\driver_irtx.o
 .text.irtx_set_repeat
                0x0000000000000000       0x20 Output\obj\driver\driver_irtx.o
 .text.irfilter_set
                0x0000000000000000       0x34 Output\obj\driver\driver_irtx.o
 .text.irtx_kick_wait
                0x0000000000000000       0x26 Output\obj\driver\driver_irtx.o
 .text.irtx_capture_dma_init
                0x0000000000000000       0x22 Output\obj\driver\driver_irtx.o
 .text.irtx_capture_dma_kick
                0x0000000000000000       0x10 Output\obj\driver\driver_irtx.o
 .text.irtx_learn_dma_init
                0x0000000000000000        0x8 Output\obj\driver\driver_irtx.o
 .text.irtx_learn_kick
                0x0000000000000000       0x10 Output\obj\driver\driver_irtx.o
 .text.irtx_base_init
                0x0000000000000000       0x6e Output\obj\driver\driver_irtx.o
 .text.irtx_repeat_send
                0x0000000000000000       0x1c Output\obj\driver\driver_irtx.o
 .text.irtx_send
                0x0000000000000000        0x8 Output\obj\driver\driver_irtx.o
 .text.irtx_capture_init
                0x0000000000000000       0x32 Output\obj\driver\driver_irtx.o
 .text.irtx_capture_buf_init
                0x0000000000000000       0x24 Output\obj\driver\driver_irtx.o
 .text.irtx_learn_init
                0x0000000000000000       0x52 Output\obj\driver\driver_irtx.o
 .text.irtx_learn_buf_init
                0x0000000000000000        0xe Output\obj\driver\driver_irtx.o
 .text.irtx_pic_config
                0x0000000000000000       0x4a Output\obj\driver\driver_irtx.o
 .rodata.Nec    0x0000000000000000       0x24 Output\obj\driver\driver_irtx.o
 .rodata.Rc5    0x0000000000000000       0x24 Output\obj\driver\driver_irtx.o
 .rodata.Rc6    0x0000000000000000       0x24 Output\obj\driver\driver_irtx.o
 .rodata.Tc9012
                0x0000000000000000       0x24 Output\obj\driver\driver_irtx.o
 .rodata.irtx_timing_set.cst8
                0x0000000000000000        0x8 Output\obj\driver\driver_irtx.o
 .rodata.timing_freq
                0x0000000000000000       0x10 Output\obj\driver\driver_irtx.o
 .comment       0x0000000000000000       0x12 Output\obj\driver\driver_irtx.o
 .text          0x0000000000000000        0x0 Output\obj\driver\driver_keyscan.o
 .data          0x0000000000000000        0x0 Output\obj\driver\driver_keyscan.o
 .bss           0x0000000000000000        0x0 Output\obj\driver\driver_keyscan.o
 .text.keyscan_init
                0x0000000000000000       0xc8 Output\obj\driver\driver_keyscan.o
 .text.keyscan_deinit
                0x0000000000000000        0xc Output\obj\driver\driver_keyscan.o
 .com_periph.keyscan.en_ctrl
                0x0000000000000000       0x16 Output\obj\driver\driver_keyscan.o
 .text.keyscan_pic_config
                0x0000000000000000       0x3a Output\obj\driver\driver_keyscan.o
 .com_periph.keyscan.flag
                0x0000000000000000       0x44 Output\obj\driver\driver_keyscan.o
 .com_periph.keyscan.query
                0x0000000000000000       0xca Output\obj\driver\driver_keyscan.o
 .com_periph.keyscan.lowpwr_mode
                0x0000000000000000        0xc Output\obj\driver\driver_keyscan.o
 .comment       0x0000000000000000       0x12 Output\obj\driver\driver_keyscan.o
 .text          0x0000000000000000        0x0 Output\obj\driver\driver_ledc.o
 .data          0x0000000000000000        0x0 Output\obj\driver\driver_ledc.o
 .bss           0x0000000000000000        0x0 Output\obj\driver\driver_ledc.o
 .text.ledc_init
                0x0000000000000000       0x3e Output\obj\driver\driver_ledc.o
 .text.ledc_timing_init
                0x0000000000000000       0x5c Output\obj\driver\driver_ledc.o
 .text.ledc_deinit
                0x0000000000000000       0x20 Output\obj\driver\driver_ledc.o
 .com_text.ledc.cmd
                0x0000000000000000       0x16 Output\obj\driver\driver_ledc.o
 .com_periph.ledc.transport
                0x0000000000000000       0x20 Output\obj\driver\driver_ledc.o
 .text.ledc_pic_config
                0x0000000000000000       0x44 Output\obj\driver\driver_ledc.o
 .com_periph.ledc.flag
                0x0000000000000000       0x42 Output\obj\driver\driver_ledc.o
 .text.ledc_set_frame_length
                0x0000000000000000        0xe Output\obj\driver\driver_ledc.o
 .text.ledc_set_loop_number
                0x0000000000000000        0xc Output\obj\driver\driver_ledc.o
 .text.ledc_get_frame_length
                0x0000000000000000       0x10 Output\obj\driver\driver_ledc.o
 .text.ledc_get_loop_number
                0x0000000000000000        0xc Output\obj\driver\driver_ledc.o
 .comment       0x0000000000000000       0x12 Output\obj\driver\driver_ledc.o
 .text          0x0000000000000000        0x0 Output\obj\driver\driver_lowpwr.o
 .data          0x0000000000000000        0x0 Output\obj\driver\driver_lowpwr.o
 .bss           0x0000000000000000        0x0 Output\obj\driver\driver_lowpwr.o
 .com_sleep.lv2_get_wksrc
                0x0000000000000000        0xa Output\obj\driver\driver_lowpwr.o
 .com_sleep.lv2_clr_wksrc
                0x0000000000000000        0xa Output\obj\driver\driver_lowpwr.o
 .text.lowpwr_wakeup_config
                0x0000000000000000       0x1a Output\obj\driver\driver_lowpwr.o
 .text.lowpwr_pwroff_mode1_do
                0x0000000000000000      0x400 Output\obj\driver\driver_lowpwr.o
 .com_sleep.lv2
                0x0000000000000000        0x4 Output\obj\driver\driver_lowpwr.o
 .text          0x0000000000000000        0x0 Output\obj\driver\driver_lpwm.o
 .data          0x0000000000000000        0x0 Output\obj\driver\driver_lpwm.o
 .bss           0x0000000000000000        0x0 Output\obj\driver\driver_lpwm.o
 .text.lpwm_init
                0x0000000000000000       0xae Output\obj\driver\driver_lpwm.o
 .text.lpwm_deinit
                0x0000000000000000       0x3a Output\obj\driver\driver_lpwm.o
 .text.lpwm_stage_config
                0x0000000000000000      0x11e Output\obj\driver\driver_lpwm.o
 .text.lpwm_cmd
                0x0000000000000000       0x16 Output\obj\driver\driver_lpwm.o
 .text.lpwm_get_flag
                0x0000000000000000        0xe Output\obj\driver\driver_lpwm.o
 .text.lpwm_clear_flag
                0x0000000000000000       0x10 Output\obj\driver\driver_lpwm.o
 .comment       0x0000000000000000       0x12 Output\obj\driver\driver_lpwm.o
 .text          0x0000000000000000        0x0 Output\obj\driver\driver_qdec.o
 .data          0x0000000000000000        0x0 Output\obj\driver\driver_qdec.o
 .bss           0x0000000000000000        0x0 Output\obj\driver\driver_qdec.o
 .text.qdec_init
                0x0000000000000000       0xd0 Output\obj\driver\driver_qdec.o
 .text.qdec_deinit
                0x0000000000000000       0x3a Output\obj\driver\driver_qdec.o
 .com_periph.qdec.cmd
                0x0000000000000000       0x10 Output\obj\driver\driver_qdec.o
 .com_periph.qdec.get_data
                0x0000000000000000        0x4 Output\obj\driver\driver_qdec.o
 .text.qdec_clear_data
                0x0000000000000000        0xa Output\obj\driver\driver_qdec.o
 .text.qdec_pic_config
                0x0000000000000000       0x52 Output\obj\driver\driver_qdec.o
 .com_periph.qdec.get
                0x0000000000000000       0x3e Output\obj\driver\driver_qdec.o
 .com_periph.qdec.clear
                0x0000000000000000       0x3c Output\obj\driver\driver_qdec.o
 .comment       0x0000000000000000       0x12 Output\obj\driver\driver_qdec.o
 .text          0x0000000000000000        0x0 Output\obj\driver\driver_rtc.o
 .data          0x0000000000000000        0x0 Output\obj\driver\driver_rtc.o
 .bss           0x0000000000000000        0x0 Output\obj\driver\driver_rtc.o
 .com_periph.rtc.cnt_set
                0x0000000000000000        0x8 Output\obj\driver\driver_rtc.o
 .com_periph.rtc.cnt_get
                0x0000000000000000        0x8 Output\obj\driver\driver_rtc.o
 .com_periph.rtc.alarm_set
                0x0000000000000000        0x8 Output\obj\driver\driver_rtc.o
 .com_periph.rtc.alarm_get
                0x0000000000000000        0x8 Output\obj\driver\driver_rtc.o
 .text.rtc_prescale_set
                0x0000000000000000       0x16 Output\obj\driver\driver_rtc.o
 .text.rtc_prescale_get
                0x0000000000000000        0xc Output\obj\driver\driver_rtc.o
 .text.rtc_pic_config
                0x0000000000000000       0x90 Output\obj\driver\driver_rtc.o
 .com_periph.rct.get
                0x0000000000000000       0x36 Output\obj\driver\driver_rtc.o
 .com_periph.rct.clear
                0x0000000000000000       0x1a Output\obj\driver\driver_rtc.o
 .comment       0x0000000000000000       0x12 Output\obj\driver\driver_rtc.o
 .text          0x0000000000000000        0x0 Output\obj\driver\driver_saradc.o
 .data          0x0000000000000000        0x0 Output\obj\driver\driver_saradc.o
 .bss           0x0000000000000000        0x0 Output\obj\driver\driver_saradc.o
 .text.saradc_set_baud
                0x0000000000000000       0x2e Output\obj\driver\driver_saradc.o
 .text.saradc_pic_config
                0x0000000000000000       0x34 Output\obj\driver\driver_saradc.o
 .com_periph.saradc.get
                0x0000000000000000       0x10 Output\obj\driver\driver_saradc.o
 .com_periph.saradc.clear
                0x0000000000000000       0x10 Output\obj\driver\driver_saradc.o
 .text          0x0000000000000000        0x0 Output\obj\driver\driver_sdadc.o
 .data          0x0000000000000000        0x0 Output\obj\driver\driver_sdadc.o
 .bss           0x0000000000000000        0x0 Output\obj\driver\driver_sdadc.o
 .text.sdadc_init
                0x0000000000000000       0xa2 Output\obj\driver\driver_sdadc.o
 .text.sdadc_deinit
                0x0000000000000000       0x40 Output\obj\driver\driver_sdadc.o
 .text.sdadc_cmd
                0x0000000000000000       0x16 Output\obj\driver\driver_sdadc.o
 .text.sdadc_dma_cmd
                0x0000000000000000       0x1c Output\obj\driver\driver_sdadc.o
 .text.sdadc_pic_config
                0x0000000000000000       0x52 Output\obj\driver\driver_sdadc.o
 .com_periph.sdadc.flag
                0x0000000000000000       0x4c Output\obj\driver\driver_sdadc.o
 .text.sdadc_digital_gain_set
                0x0000000000000000        0xc Output\obj\driver\driver_sdadc.o
 .text.sdadc_removeDC_bits_set
                0x0000000000000000       0x18 Output\obj\driver\driver_sdadc.o
 .text.sdadc_getDC_bits_set
                0x0000000000000000       0x16 Output\obj\driver\driver_sdadc.o
 .text.sdadc_digital_gain_get
                0x0000000000000000        0xc Output\obj\driver\driver_sdadc.o
 .text.sdadc_getDC_bits_get
                0x0000000000000000        0xe Output\obj\driver\driver_sdadc.o
 .text.sdadc_removeDC_bits_get
                0x0000000000000000        0xc Output\obj\driver\driver_sdadc.o
 .comment       0x0000000000000000       0x12 Output\obj\driver\driver_sdadc.o
 .text          0x0000000000000000        0x0 Output\obj\driver\driver_sddac.o
 .data          0x0000000000000000        0x0 Output\obj\driver\driver_sddac.o
 .bss           0x0000000000000000        0x0 Output\obj\driver\driver_sddac.o
 .com_periph.sddac.kick
                0x0000000000000000       0x24 Output\obj\driver\driver_sddac.o
 .com_periph.sddac.dma_stop
                0x0000000000000000        0xe Output\obj\driver\driver_sddac.o
 .com_periph.sddac.spr_get
                0x0000000000000000       0x1a Output\obj\driver\driver_sddac.o
 .com_periph.sddac.spr_set
                0x0000000000000000       0x6e Output\obj\driver\driver_sddac.o
 .text.sddac_init
                0x0000000000000000       0x64 Output\obj\driver\driver_sddac.o
 .text.sddac_deinit
                0x0000000000000000       0x20 Output\obj\driver\driver_sddac.o
 .text.sddac_pic_config
                0x0000000000000000       0x44 Output\obj\driver\driver_sddac.o
 .text.sddac_cmd
                0x0000000000000000       0x1c Output\obj\driver\driver_sddac.o
 .com_periph.sddac.get
                0x0000000000000000       0x28 Output\obj\driver\driver_sddac.o
 .com_periph.sddac.clear
                0x0000000000000000       0x1c Output\obj\driver\driver_sddac.o
 .comment       0x0000000000000000       0x12 Output\obj\driver\driver_sddac.o
 .text          0x0000000000000000        0x0 Output\obj\driver\driver_spi.o
 .data          0x0000000000000000        0x0 Output\obj\driver\driver_spi.o
 .bss           0x0000000000000000        0x0 Output\obj\driver\driver_spi.o
 .text.spi_init
                0x0000000000000000       0x50 Output\obj\driver\driver_spi.o
 .text.spi_deinit
                0x0000000000000000       0x1c Output\obj\driver\driver_spi.o
 .text.spi_cmd  0x0000000000000000       0x10 Output\obj\driver\driver_spi.o
 .com_periph.spi
                0x0000000000000000       0x4e Output\obj\driver\driver_spi.o
 .text.spi_lfsr_cmd
                0x0000000000000000       0x12 Output\obj\driver\driver_spi.o
 .text.spi_multi_bit_bus_cmd
                0x0000000000000000       0x12 Output\obj\driver\driver_spi.o
 .text.spi_hold_rx_cmd
                0x0000000000000000       0x12 Output\obj\driver\driver_spi.o
 .text.spi_hold_tx_cmd
                0x0000000000000000       0x12 Output\obj\driver\driver_spi.o
 .text.spi_soft_hold_cmd
                0x0000000000000000       0x12 Output\obj\driver\driver_spi.o
 .text.spi_pic_config
                0x0000000000000000       0x42 Output\obj\driver\driver_spi.o
 .comment       0x0000000000000000       0x12 Output\obj\driver\driver_spi.o
 .text          0x0000000000000000        0x0 Output\obj\driver\driver_tmr.o
 .data          0x0000000000000000        0x0 Output\obj\driver\driver_tmr.o
 .bss           0x0000000000000000        0x0 Output\obj\driver\driver_tmr.o
 .text.tmr_base_init
                0x0000000000000000       0x6c Output\obj\driver\driver_tmr.o
 .text.tmr_deinit
                0x0000000000000000       0x54 Output\obj\driver\driver_tmr.o
 .text.tmr_set_counter
                0x0000000000000000        0x4 Output\obj\driver\driver_tmr.o
 .com_periph.tmr.set_period
                0x0000000000000000        0x4 Output\obj\driver\driver_tmr.o
 .text.tmr_set_prescale
                0x0000000000000000        0xe Output\obj\driver\driver_tmr.o
 .text.tmr_get_counter
                0x0000000000000000        0x4 Output\obj\driver\driver_tmr.o
 .text.tmr_get_period
                0x0000000000000000        0x4 Output\obj\driver\driver_tmr.o
 .text.tmr_get_prescale
                0x0000000000000000       0x16 Output\obj\driver\driver_tmr.o
 .com_periph.tmr.cmd
                0x0000000000000000       0x34 Output\obj\driver\driver_tmr.o
 .text.tmr_pwm_duty_config
                0x0000000000000000       0x3e Output\obj\driver\driver_tmr.o
 .text.tmr_pwm_cmd
                0x0000000000000000       0x22 Output\obj\driver\driver_tmr.o
 .text.tmr_get_capture
                0x0000000000000000       0x24 Output\obj\driver\driver_tmr.o
 .text.tmr_capture_config
                0x0000000000000000       0x28 Output\obj\driver\driver_tmr.o
 .text.tmr_capture_cmd
                0x0000000000000000       0x1a Output\obj\driver\driver_tmr.o
 .text.tmr_pic_config
                0x0000000000000000       0x9e Output\obj\driver\driver_tmr.o
 .com_periph.tmr.get
                0x0000000000000000       0x52 Output\obj\driver\driver_tmr.o
 .com_periph.tmr.clear
                0x0000000000000000       0x42 Output\obj\driver\driver_tmr.o
 .comment       0x0000000000000000       0x12 Output\obj\driver\driver_tmr.o
 .text          0x0000000000000000        0x0 Output\obj\driver\driver_touch_key.o
 .data          0x0000000000000000        0x0 Output\obj\driver\driver_touch_key.o
 .bss           0x0000000000000000        0x0 Output\obj\driver\driver_touch_key.o
 .com_periph.tkey.isr
                0x0000000000000000      0x182 Output\obj\driver\driver_touch_key.o
 .text.touch_key_dump
                0x0000000000000000       0x24 Output\obj\driver\driver_touch_key.o
 .com_periph.touch.get_key
                0x0000000000000000       0x16 Output\obj\driver\driver_touch_key.o
 .text.touch_key_isr_init
                0x0000000000000000       0x38 Output\obj\driver\driver_touch_key.o
 .text.touch_key_sw_reset
                0x0000000000000000       0x22 Output\obj\driver\driver_touch_key.o
 .text.touch_key_clk_init
                0x0000000000000000       0x92 Output\obj\driver\driver_touch_key.o
 .text.touch_key_init
                0x0000000000000000      0x314 Output\obj\driver\driver_touch_key.o
 .comment       0x0000000000000000       0x12 Output\obj\driver\driver_touch_key.o
 COMMON         0x0000000000000000       0x20 Output\obj\driver\driver_touch_key.o
 .text          0x0000000000000000        0x0 Output\obj\driver\driver_uart.o
 .data          0x0000000000000000        0x0 Output\obj\driver\driver_uart.o
 .bss           0x0000000000000000        0x0 Output\obj\driver\driver_uart.o
 .text.uart_deinit
                0x0000000000000000       0x2e Output\obj\driver\driver_uart.o
 .com_periph.uart.send
                0x0000000000000000        0x8 Output\obj\driver\driver_uart.o
 .com_periph.uart.recv
                0x0000000000000000       0x14 Output\obj\driver\driver_uart.o
 .text.uart_pic_config
                0x0000000000000000       0x5c Output\obj\driver\driver_uart.o
 .com_periph.uart.get_flag
                0x0000000000000000       0x18 Output\obj\driver\driver_uart.o
 .com_periph.uart.clear_flag
                0x0000000000000000       0x34 Output\obj\driver\driver_uart.o
 .text          0x0000000000000000        0x0 Output\obj\driver\driver_wdt.o
 .data          0x0000000000000000        0x0 Output\obj\driver\driver_wdt.o
 .bss           0x0000000000000000        0x0 Output\obj\driver\driver_wdt.o
 .text.wdt_cmd  0x0000000000000000       0x1a Output\obj\driver\driver_wdt.o
 .text.wdt_reset_cmd
                0x0000000000000000       0x1e Output\obj\driver\driver_wdt.o
 .text.wdt_it_cmd
                0x0000000000000000       0x16 Output\obj\driver\driver_wdt.o
 .text.wdt_clk_select
                0x0000000000000000       0x1c Output\obj\driver\driver_wdt.o
 .text.wdt_time_select
                0x0000000000000000       0x1a Output\obj\driver\driver_wdt.o
 .text.wdt_get_flag
                0x0000000000000000        0x8 Output\obj\driver\driver_wdt.o
 .text.wdt_clear
                0x0000000000000000        0xe Output\obj\driver\driver_wdt.o
 .comment       0x0000000000000000       0x12 Output\obj\driver\driver_wdt.o
 .text          0x0000000000000000        0x0 Output\obj\modules\utils\utils_ring_buffer.o
 .data          0x0000000000000000        0x0 Output\obj\modules\utils\utils_ring_buffer.o
 .bss           0x0000000000000000        0x0 Output\obj\modules\utils\utils_ring_buffer.o
 .text.utils_ring_buf_init
                0x0000000000000000       0x28 Output\obj\modules\utils\utils_ring_buffer.o
 .text.utils_ring_buf_clear
                0x0000000000000000       0x10 Output\obj\modules\utils\utils_ring_buffer.o
 .com_text.ring_buf.write
                0x0000000000000000       0x82 Output\obj\modules\utils\utils_ring_buffer.o
 .com_text.ring_buf.read
                0x0000000000000000       0x74 Output\obj\modules\utils\utils_ring_buffer.o
 .com_text.ring_buf.get
                0x0000000000000000       0x4c Output\obj\modules\utils\utils_ring_buffer.o
 .com_text.ring_buf.dl_get
                0x0000000000000000        0x4 Output\obj\modules\utils\utils_ring_buffer.o
 .com_text.ring_buf.tl_get
                0x0000000000000000        0x4 Output\obj\modules\utils\utils_ring_buffer.o
 .comment       0x0000000000000000       0x12 Output\obj\modules\utils\utils_ring_buffer.o
 .text          0x0000000000000000        0x0 Output\obj\project\ble_central\app\func.o
 .data          0x0000000000000000        0x0 Output\obj\project\ble_central\app\func.o
 .bss           0x0000000000000000        0x0 Output\obj\project\ble_central\app\func.o
 .text          0x0000000000000000        0x0 Output\obj\project\ble_central\app\func_bt.o
 .data          0x0000000000000000        0x0 Output\obj\project\ble_central\app\func_bt.o
 .bss           0x0000000000000000        0x0 Output\obj\project\ble_central\app\func_bt.o
 .text          0x0000000000000000        0x0 Output\obj\project\ble_central\app\func_idle.o
 .data          0x0000000000000000        0x0 Output\obj\project\ble_central\app\func_idle.o
 .bss           0x0000000000000000        0x0 Output\obj\project\ble_central\app\func_idle.o
 .text          0x0000000000000000        0x0 Output\obj\project\ble_central\app\func_iodm.o
 .data          0x0000000000000000        0x0 Output\obj\project\ble_central\app\func_iodm.o
 .bss           0x0000000000000000        0x0 Output\obj\project\ble_central\app\func_iodm.o
 .comment       0x0000000000000000       0x12 Output\obj\project\ble_central\app\func_iodm.o
 .text          0x0000000000000000        0x0 Output\obj\project\ble_central\app\func_le_bqb_rf.o
 .data          0x0000000000000000        0x0 Output\obj\project\ble_central\app\func_le_bqb_rf.o
 .bss           0x0000000000000000        0x0 Output\obj\project\ble_central\app\func_le_bqb_rf.o
 .comment       0x0000000000000000       0x12 Output\obj\project\ble_central\app\func_le_bqb_rf.o
 .text          0x0000000000000000        0x0 Output\obj\project\ble_central\app\func_le_fcc.o
 .data          0x0000000000000000        0x0 Output\obj\project\ble_central\app\func_le_fcc.o
 .bss           0x0000000000000000        0x0 Output\obj\project\ble_central\app\func_le_fcc.o
 .comment       0x0000000000000000       0x12 Output\obj\project\ble_central\app\func_le_fcc.o
 .text          0x0000000000000000        0x0 Output\obj\project\ble_central\app\func_lowpwr.o
 .data          0x0000000000000000        0x0 Output\obj\project\ble_central\app\func_lowpwr.o
 .bss           0x0000000000000000        0x0 Output\obj\project\ble_central\app\func_lowpwr.o
 .text          0x0000000000000000        0x0 Output\obj\project\ble_central\app\msg_bt.o
 .data          0x0000000000000000        0x0 Output\obj\project\ble_central\app\msg_bt.o
 .bss           0x0000000000000000        0x0 Output\obj\project\ble_central\app\msg_bt.o
 .text          0x0000000000000000        0x0 Output\obj\project\ble_central\app\msg_idle.o
 .data          0x0000000000000000        0x0 Output\obj\project\ble_central\app\msg_idle.o
 .bss           0x0000000000000000        0x0 Output\obj\project\ble_central\app\msg_idle.o
 .text          0x0000000000000000        0x0 Output\obj\project\ble_central\app\msg_iodm.o
 .data          0x0000000000000000        0x0 Output\obj\project\ble_central\app\msg_iodm.o
 .bss           0x0000000000000000        0x0 Output\obj\project\ble_central\app\msg_iodm.o
 .text.func.iodm.msg
                0x0000000000000000        0x8 Output\obj\project\ble_central\app\msg_iodm.o
 .comment       0x0000000000000000       0x12 Output\obj\project\ble_central\app\msg_iodm.o
 .text          0x0000000000000000        0x0 Output\obj\project\ble_central\app\msg_le_bqb_rf.o
 .data          0x0000000000000000        0x0 Output\obj\project\ble_central\app\msg_le_bqb_rf.o
 .bss           0x0000000000000000        0x0 Output\obj\project\ble_central\app\msg_le_bqb_rf.o
 .text.func.le_bqb_rf.msg
                0x0000000000000000        0x8 Output\obj\project\ble_central\app\msg_le_bqb_rf.o
 .comment       0x0000000000000000       0x12 Output\obj\project\ble_central\app\msg_le_bqb_rf.o
 .text          0x0000000000000000        0x0 Output\obj\project\ble_central\app\msg_le_fcc.o
 .data          0x0000000000000000        0x0 Output\obj\project\ble_central\app\msg_le_fcc.o
 .bss           0x0000000000000000        0x0 Output\obj\project\ble_central\app\msg_le_fcc.o
 .text.func.le_fcc.msg
                0x0000000000000000        0x8 Output\obj\project\ble_central\app\msg_le_fcc.o
 .comment       0x0000000000000000       0x12 Output\obj\project\ble_central\app\msg_le_fcc.o
 .text          0x0000000000000000        0x0 Output\obj\project\ble_central\ble\ble_client.o
 .data          0x0000000000000000        0x0 Output\obj\project\ble_central\ble\ble_client.o
 .bss           0x0000000000000000        0x0 Output\obj\project\ble_central\ble\ble_client.o
 .text          0x0000000000000000        0x0 Output\obj\project\ble_central\ble\ble_init.o
 .data          0x0000000000000000        0x0 Output\obj\project\ble_central\ble\ble_init.o
 .bss           0x0000000000000000        0x0 Output\obj\project\ble_central\ble\ble_init.o
 .text.ble_get_work_mode
                0x0000000000000000        0xa Output\obj\project\ble_central\ble\ble_init.o
 .text          0x0000000000000000        0x0 Output\obj\project\ble_central\ble\ble_service.o
 .data          0x0000000000000000        0x0 Output\obj\project\ble_central\ble\ble_service.o
 .bss           0x0000000000000000        0x0 Output\obj\project\ble_central\ble\ble_service.o
 .text.ble_get_profile_data
                0x0000000000000000        0xa Output\obj\project\ble_central\ble\ble_service.o
 .rodata.profile_data
                0x0000000000000000       0x40 Output\obj\project\ble_central\ble\ble_service.o
 .comment       0x0000000000000000       0x12 Output\obj\project\ble_central\ble\ble_service.o
 .text          0x0000000000000000        0x0 Output\obj\project\ble_central\bsp\bsp_charge.o
 .data          0x0000000000000000        0x0 Output\obj\project\ble_central\bsp\bsp_charge.o
 .bss           0x0000000000000000        0x0 Output\obj\project\ble_central\bsp\bsp_charge.o
 .text          0x0000000000000000        0x0 Output\obj\project\ble_central\bsp\bsp_huart.o
 .data          0x0000000000000000        0x0 Output\obj\project\ble_central\bsp\bsp_huart.o
 .bss           0x0000000000000000        0x0 Output\obj\project\ble_central\bsp\bsp_huart.o
 .comment       0x0000000000000000       0x12 Output\obj\project\ble_central\bsp\bsp_huart.o
 .text          0x0000000000000000        0x0 Output\obj\project\ble_central\bsp\bsp_huart_iodm.o
 .data          0x0000000000000000        0x0 Output\obj\project\ble_central\bsp\bsp_huart_iodm.o
 .bss           0x0000000000000000        0x0 Output\obj\project\ble_central\bsp\bsp_huart_iodm.o
 .comment       0x0000000000000000       0x12 Output\obj\project\ble_central\bsp\bsp_huart_iodm.o
 .text          0x0000000000000000        0x0 Output\obj\project\ble_central\bsp\bsp_io_key.o
 .data          0x0000000000000000        0x0 Output\obj\project\ble_central\bsp\bsp_io_key.o
 .bss           0x0000000000000000        0x0 Output\obj\project\ble_central\bsp\bsp_io_key.o
 .bss.key_io_table_column
                0x0000000000000000        0x0 Output\obj\project\ble_central\bsp\bsp_io_key.o
 .text          0x0000000000000000        0x0 Output\obj\project\ble_central\bsp\bsp_key.o
 .data          0x0000000000000000        0x0 Output\obj\project\ble_central\bsp\bsp_key.o
 .bss           0x0000000000000000        0x0 Output\obj\project\ble_central\bsp\bsp_key.o
 .com_text.key.get.power_on
                0x0000000000000000        0xe Output\obj\project\ble_central\bsp\bsp_key.o
 .text          0x0000000000000000        0x0 Output\obj\project\ble_central\bsp\bsp_param.o
 .data          0x0000000000000000        0x0 Output\obj\project\ble_central\bsp\bsp_param.o
 .bss           0x0000000000000000        0x0 Output\obj\project\ble_central\bsp\bsp_param.o
 .text.bsp.param.fota
                0x0000000000000000       0xc0 Output\obj\project\ble_central\bsp\bsp_param.o
 .text          0x0000000000000000        0x0 Output\obj\project\ble_central\bsp\bsp_saradc.o
 .data          0x0000000000000000        0x0 Output\obj\project\ble_central\bsp\bsp_saradc.o
 .bss           0x0000000000000000        0x0 Output\obj\project\ble_central\bsp\bsp_saradc.o
 .text          0x0000000000000000        0x0 Output\obj\project\ble_central\bsp\bsp_saradc_key.o
 .data          0x0000000000000000        0x0 Output\obj\project\ble_central\bsp\bsp_saradc_key.o
 .bss           0x0000000000000000        0x0 Output\obj\project\ble_central\bsp\bsp_saradc_key.o
 .comment       0x0000000000000000       0x12 Output\obj\project\ble_central\bsp\bsp_saradc_key.o
 .text          0x0000000000000000        0x0 Output\obj\project\ble_central\bsp\bsp_saradc_vbat.o
 .data          0x0000000000000000        0x0 Output\obj\project\ble_central\bsp\bsp_saradc_vbat.o
 .bss           0x0000000000000000        0x0 Output\obj\project\ble_central\bsp\bsp_saradc_vbat.o
 .text.bsp_get_vbat_level
                0x0000000000000000       0x42 Output\obj\project\ble_central\bsp\bsp_saradc_vbat.o
 .rodata.vbat_param
                0x0000000000000000        0xa Output\obj\project\ble_central\bsp\bsp_saradc_vbat.o
 .text          0x0000000000000000        0x0 Output\obj\project\ble_central\bsp\bsp_sys.o
 .data          0x0000000000000000        0x0 Output\obj\project\ble_central\bsp\bsp_sys.o
 .bss           0x0000000000000000        0x0 Output\obj\project\ble_central\bsp\bsp_sys.o
 .text          0x0000000000000000        0x0 Output\obj\project\ble_central\bsp\bsp_touch_key.o
 .data          0x0000000000000000        0x0 Output\obj\project\ble_central\bsp\bsp_touch_key.o
 .bss           0x0000000000000000        0x0 Output\obj\project\ble_central\bsp\bsp_touch_key.o
 .comment       0x0000000000000000       0x12 Output\obj\project\ble_central\bsp\bsp_touch_key.o
 .text          0x0000000000000000        0x0 Output\obj\project\ble_central\bsp\bsp_uart_debug.o
 .data          0x0000000000000000        0x0 Output\obj\project\ble_central\bsp\bsp_uart_debug.o
 .bss           0x0000000000000000        0x0 Output\obj\project\ble_central\bsp\bsp_uart_debug.o
 .text          0x0000000000000000        0x0 Output\obj\project\ble_central\main.o
 .data          0x0000000000000000        0x0 Output\obj\project\ble_central\main.o
 .bss           0x0000000000000000        0x0 Output\obj\project\ble_central\main.o
 .text          0x0000000000000000        0x0 Output\obj\project\ble_central\production_test\prod_test.o
 .data          0x0000000000000000        0x0 Output\obj\project\ble_central\production_test\prod_test.o
 .bss           0x0000000000000000        0x0 Output\obj\project\ble_central\production_test\prod_test.o
 .text          0x0000000000000000        0x0 Output\obj\project\ble_central\production_test\prod_test_iodm.o
 .data          0x0000000000000000        0x0 Output\obj\project\ble_central\production_test\prod_test_iodm.o
 .bss           0x0000000000000000        0x0 Output\obj\project\ble_central\production_test\prod_test_iodm.o
 .comment       0x0000000000000000       0x12 Output\obj\project\ble_central\production_test\prod_test_iodm.o
 .text          0x0000000000000000        0x0 Output\obj\project\ble_central\strong_symbol.o
 .data          0x0000000000000000        0x0 Output\obj\project\ble_central\strong_symbol.o
 .bss           0x0000000000000000        0x0 Output\obj\project\ble_central\strong_symbol.o
 .text.param_xosc_write
                0x0000000000000000       0x24 Output\obj\project\ble_central\strong_symbol.o
 .text.ble_sm_send_security_req_time_get
                0x0000000000000000        0x6 Output\obj\project\ble_central\strong_symbol.o
 .text.ble_disconnected_restart_adv
                0x0000000000000000        0x4 Output\obj\project\ble_central\strong_symbol.o
 .text          0x0000000000000000        0x0 ..\..\libs\cpu\libplatform.a(sdadc.o)
 .data          0x0000000000000000        0x0 ..\..\libs\cpu\libplatform.a(sdadc.o)
 .bss           0x0000000000000000        0x0 ..\..\libs\cpu\libplatform.a(sdadc.o)
 .text.mic_trimin
                0x0000000000000000       0x32 ..\..\libs\cpu\libplatform.a(sdadc.o)
 .text.mic_adc_init
                0x0000000000000000      0x194 ..\..\libs\cpu\libplatform.a(sdadc.o)
 .text.mic_adc_deinit
                0x0000000000000000       0x14 ..\..\libs\cpu\libplatform.a(sdadc.o)
 .text.mic_bias_open
                0x0000000000000000       0x30 ..\..\libs\cpu\libplatform.a(sdadc.o)
 .text.mic_bias_close
                0x0000000000000000       0x10 ..\..\libs\cpu\libplatform.a(sdadc.o)
 .text.mic_bias_level_set
                0x0000000000000000       0x20 ..\..\libs\cpu\libplatform.a(sdadc.o)
 .text.mic_analog_gain_set
                0x0000000000000000       0x14 ..\..\libs\cpu\libplatform.a(sdadc.o)
 .text.sdadc_done_callback_set
                0x0000000000000000        0xc ..\..\libs\cpu\libplatform.a(sdadc.o)
 .com_text.sdadc.done
                0x0000000000000000        0xe ..\..\libs\cpu\libplatform.a(sdadc.o)
 .com_text.irq.sdadc
                0x0000000000000000       0x26 ..\..\libs\cpu\libplatform.a(sdadc.o)
 .sbss.p_sdadc_done
                0x0000000000000000        0x4 ..\..\libs\cpu\libplatform.a(sdadc.o)
 .comment       0x0000000000000000       0x13 ..\..\libs\cpu\libplatform.a(sdadc.o)
 .riscv.attributes
                0x0000000000000000       0x32 ..\..\libs\cpu\libplatform.a(sdadc.o)
 .text          0x0000000000000000        0x0 ..\..\libs\cpu\libplatform.a(cm.o)
 .data          0x0000000000000000        0x0 ..\..\libs\cpu\libplatform.a(cm.o)
 .bss           0x0000000000000000        0x0 ..\..\libs\cpu\libplatform.a(cm.o)
 .rodata.cm_move_allpages.str1.4
                0x0000000000000000       0x3a ..\..\libs\cpu\libplatform.a(cm.o)
 .text.cm_move_allpages
                0x0000000000000000      0x140 ..\..\libs\cpu\libplatform.a(cm.o)
 .text.cm_get_startaddr
                0x0000000000000000        0xa ..\..\libs\cpu\libplatform.a(cm.o)
 .text.cm_get_area
                0x0000000000000000       0x10 ..\..\libs\cpu\libplatform.a(cm.o)
 .text.cm_release_all
                0x0000000000000000       0x82 ..\..\libs\cpu\libplatform.a(cm.o)
 .text.cm_read8
                0x0000000000000000       0x28 ..\..\libs\cpu\libplatform.a(cm.o)
 .text.cm_read16
                0x0000000000000000       0x28 ..\..\libs\cpu\libplatform.a(cm.o)
 .text.cm_read32
                0x0000000000000000       0x24 ..\..\libs\cpu\libplatform.a(cm.o)
 .text.cm_write8
                0x0000000000000000       0x28 ..\..\libs\cpu\libplatform.a(cm.o)
 .text.cm_write16
                0x0000000000000000       0x28 ..\..\libs\cpu\libplatform.a(cm.o)
 .text.cm_write32
                0x0000000000000000       0x24 ..\..\libs\cpu\libplatform.a(cm.o)
 .text.cm_clear
                0x0000000000000000       0x60 ..\..\libs\cpu\libplatform.a(cm.o)
 .text          0x0000000000000000        0x0 ..\..\libs\cpu\libplatform.a(os_flash.o)
 .data          0x0000000000000000        0x0 ..\..\libs\cpu\libplatform.a(os_flash.o)
 .bss           0x0000000000000000        0x0 ..\..\libs\cpu\libplatform.a(os_flash.o)
 .com_text.spiflash.id
                0x0000000000000000       0x82 ..\..\libs\cpu\libplatform.a(os_flash.o)
 .com_text.spiflash.protect.weak
                0x0000000000000000       0x60 ..\..\libs\cpu\libplatform.a(os_flash.o)
 .com_text.spiflash.erase_2
                0x0000000000000000       0x76 ..\..\libs\cpu\libplatform.a(os_flash.o)
 .com_text.spiflash.erase_32k
                0x0000000000000000       0x72 ..\..\libs\cpu\libplatform.a(os_flash.o)
 .com_text.spiflash.erase_64k
                0x0000000000000000       0x72 ..\..\libs\cpu\libplatform.a(os_flash.o)
 .text          0x0000000000000000        0x0 ..\..\libs\cpu\libplatform.a(xcfg.o)
 .data          0x0000000000000000        0x0 ..\..\libs\cpu\libplatform.a(xcfg.o)
 .bss           0x0000000000000000        0x0 ..\..\libs\cpu\libplatform.a(xcfg.o)
 .text          0x0000000000000000        0x0 ..\..\libs\cpu\libplatform.a(main.o)
 .data          0x0000000000000000        0x0 ..\..\libs\cpu\libplatform.a(main.o)
 .bss           0x0000000000000000        0x0 ..\..\libs\cpu\libplatform.a(main.o)
 .text.compiler
                0x0000000000000000       0x20 ..\..\libs\cpu\libplatform.a(main.o)
 .text          0x0000000000000000        0x0 ..\..\libs\cpu\libplatform.a(interrupt.o)
 .data          0x0000000000000000        0x0 ..\..\libs\cpu\libplatform.a(interrupt.o)
 .bss           0x0000000000000000        0x0 ..\..\libs\cpu\libplatform.a(interrupt.o)
 .rodata.watch_point_set.str1.4
                0x0000000000000000       0x19 ..\..\libs\cpu\libplatform.a(interrupt.o)
 .text.watch_point_set
                0x0000000000000000       0x48 ..\..\libs\cpu\libplatform.a(interrupt.o)
 .text.wdt_init
                0x0000000000000000       0x3a ..\..\libs\cpu\libplatform.a(interrupt.o)
 .text.usb_irq_init
                0x0000000000000000       0x2e ..\..\libs\cpu\libplatform.a(interrupt.o)
 .text          0x0000000000000000        0x0 ..\..\libs\cpu\libplatform.a(startup.o)
 .data          0x0000000000000000        0x0 ..\..\libs\cpu\libplatform.a(startup.o)
 .bss           0x0000000000000000        0x0 ..\..\libs\cpu\libplatform.a(startup.o)
 .text.mem_heap_size_get
                0x0000000000000000        0x8 ..\..\libs\cpu\libplatform.a(startup.o)
 .text.thread_cfg_get
                0x0000000000000000        0x4 ..\..\libs\cpu\libplatform.a(startup.o)
 .text.thread_bthw_create
                0x0000000000000000        0x2 ..\..\libs\cpu\libplatform.a(startup.o)
 .rodata.thread_driver_create.str1.4
                0x0000000000000000        0x8 ..\..\libs\cpu\libplatform.a(startup.o)
 .text.thread_driver_create
                0x0000000000000000       0x88 ..\..\libs\cpu\libplatform.a(startup.o)
 .rodata.thread_aupcm_create.str1.4
                0x0000000000000000        0x4 ..\..\libs\cpu\libplatform.a(startup.o)
 .text.thread_aupcm_create
                0x0000000000000000       0x78 ..\..\libs\cpu\libplatform.a(startup.o)
 .text.thread_create_callback
                0x0000000000000000       0x28 ..\..\libs\cpu\libplatform.a(startup.o)
 .bss.thread.aupcm
                0x0000000000000000        0x4 ..\..\libs\cpu\libplatform.a(startup.o)
 .bss.thread.driver
                0x0000000000000000        0x8 ..\..\libs\cpu\libplatform.a(startup.o)
 .mem_heap      0x0000000000000000     0x1c00 ..\..\libs\cpu\libplatform.a(startup.o)
 .text          0x0000000000000000        0x0 ..\..\libs\cpu\libplatform.a(sys_hook.o)
 .data          0x0000000000000000        0x0 ..\..\libs\cpu\libplatform.a(sys_hook.o)
 .bss           0x0000000000000000        0x0 ..\..\libs\cpu\libplatform.a(sys_hook.o)
 .text          0x0000000000000000        0x0 ..\..\libs\cpu\libplatform.a(thread_aupcm.o)
 .data          0x0000000000000000        0x0 ..\..\libs\cpu\libplatform.a(thread_aupcm.o)
 .bss           0x0000000000000000        0x0 ..\..\libs\cpu\libplatform.a(thread_aupcm.o)
 .com_text.thread.driver
                0x0000000000000000       0x30 ..\..\libs\cpu\libplatform.a(thread_aupcm.o)
 .com_text.thread.aupcm
                0x0000000000000000       0x64 ..\..\libs\cpu\libplatform.a(thread_aupcm.o)
 .comment       0x0000000000000000       0x13 ..\..\libs\cpu\libplatform.a(thread_aupcm.o)
 .riscv.attributes
                0x0000000000000000       0x32 ..\..\libs\cpu\libplatform.a(thread_aupcm.o)
 .text          0x0000000000000000        0x0 ..\..\libs\cpu\libplatform.a(thread_driver.o)
 .data          0x0000000000000000        0x0 ..\..\libs\cpu\libplatform.a(thread_driver.o)
 .bss           0x0000000000000000        0x0 ..\..\libs\cpu\libplatform.a(thread_driver.o)
 .com_text.thread.driver
                0x0000000000000000       0x26 ..\..\libs\cpu\libplatform.a(thread_driver.o)
 .com_text.thread.driver.usb
                0x0000000000000000       0x4e ..\..\libs\cpu\libplatform.a(thread_driver.o)
 .com_text.thread.driver.vs
                0x0000000000000000       0x4e ..\..\libs\cpu\libplatform.a(thread_driver.o)
 .text.thread.driver.usb
                0x0000000000000000       0x38 ..\..\libs\cpu\libplatform.a(thread_driver.o)
 .text.thread.driver.vs
                0x0000000000000000       0x38 ..\..\libs\cpu\libplatform.a(thread_driver.o)
 .com_text.thread.driver.enter
                0x0000000000000000       0x60 ..\..\libs\cpu\libplatform.a(thread_driver.o)
 .sbss.thread_driver_usb_enter_func
                0x0000000000000000        0x4 ..\..\libs\cpu\libplatform.a(thread_driver.o)
 .sbss.thread_driver_vs_enter_func
                0x0000000000000000        0x4 ..\..\libs\cpu\libplatform.a(thread_driver.o)
 .comment       0x0000000000000000       0x13 ..\..\libs\cpu\libplatform.a(thread_driver.o)
 .riscv.attributes
                0x0000000000000000       0x32 ..\..\libs\cpu\libplatform.a(thread_driver.o)
 .text          0x0000000000000000        0x0 ..\..\libs\cpu\libplatform.a(pll.o)
 .data          0x0000000000000000        0x0 ..\..\libs\cpu\libplatform.a(pll.o)
 .bss           0x0000000000000000        0x0 ..\..\libs\cpu\libplatform.a(pll.o)
 .text.pll_clk_nhz_get
                0x0000000000000000       0x22 ..\..\libs\cpu\libplatform.a(pll.o)
 .text          0x0000000000000000        0x0 ..\..\libs\cpu\libplatform.a(pmu.o)
 .data          0x0000000000000000        0x0 ..\..\libs\cpu\libplatform.a(pmu.o)
 .bss           0x0000000000000000        0x0 ..\..\libs\cpu\libplatform.a(pmu.o)
 .com_text.trim.vddio_get
                0x0000000000000000        0xa ..\..\libs\cpu\libplatform.a(pmu.o)
 .com_text.trim.vbg_get
                0x0000000000000000        0xa ..\..\libs\cpu\libplatform.a(pmu.o)
 .com_text.trim.vddio_set
                0x0000000000000000       0x2c ..\..\libs\cpu\libplatform.a(pmu.o)
 .com_text.trim.core_set
                0x0000000000000000       0x16 ..\..\libs\cpu\libplatform.a(pmu.o)
 .com_text.trim.lvd_get
                0x0000000000000000        0xa ..\..\libs\cpu\libplatform.a(pmu.o)
 .com_text.pmu.vddbt_set
                0x0000000000000000        0xe ..\..\libs\cpu\libplatform.a(pmu.o)
 .com_text.pmu.vddbt_get
                0x0000000000000000        0x8 ..\..\libs\cpu\libplatform.a(pmu.o)
 .text          0x0000000000000000        0x0 ..\..\libs\cpu\libplatform.a(rc.o)
 .data          0x0000000000000000        0x0 ..\..\libs\cpu\libplatform.a(rc.o)
 .bss           0x0000000000000000        0x0 ..\..\libs\cpu\libplatform.a(rc.o)
 .text.compiler
                0x0000000000000000        0x2 ..\..\libs\cpu\libplatform.a(rc.o)
 .text          0x0000000000000000        0x0 ..\..\libs\cpu\libplatform.a(reset.o)
 .data          0x0000000000000000        0x0 ..\..\libs\cpu\libplatform.a(reset.o)
 .bss           0x0000000000000000        0x0 ..\..\libs\cpu\libplatform.a(reset.o)
 .text          0x0000000000000000        0x0 ..\..\libs\cpu\libplatform.a(spiflash.o)
 .data          0x0000000000000000        0x0 ..\..\libs\cpu\libplatform.a(spiflash.o)
 .bss           0x0000000000000000        0x0 ..\..\libs\cpu\libplatform.a(spiflash.o)
 .com_text.spiflash.w_en
                0x0000000000000000       0x32 ..\..\libs\cpu\libplatform.a(spiflash.o)
 .com_text.spiflash.rssr
                0x0000000000000000       0x42 ..\..\libs\cpu\libplatform.a(spiflash.o)
 .com_text.spiflash.busy
                0x0000000000000000       0x24 ..\..\libs\cpu\libplatform.a(spiflash.o)
 .com_text.spiflash
                0x0000000000000000       0x84 ..\..\libs\cpu\libplatform.a(spiflash.o)
 .com_text.spiflash.refactor
                0x0000000000000000      0x112 ..\..\libs\cpu\libplatform.a(spiflash.o)
 .com_text.spiflash.wrsr
                0x0000000000000000       0x46 ..\..\libs\cpu\libplatform.a(spiflash.o)
 .com_text.spiflash.protect.en
                0x0000000000000000        0x4 ..\..\libs\cpu\libplatform.a(spiflash.o)
 .com_text.spiflash.protect_do
                0x0000000000000000       0x68 ..\..\libs\cpu\libplatform.a(spiflash.o)
 .com_text.spiflash.is_protect
                0x0000000000000000       0x50 ..\..\libs\cpu\libplatform.a(spiflash.o)
 .com_text.spiflash.read_kick
                0x0000000000000000       0x20 ..\..\libs\cpu\libplatform.a(spiflash.o)
 .com_text.spiflash.read_wait
                0x0000000000000000       0x30 ..\..\libs\cpu\libplatform.a(spiflash.o)
 .com_text.spiflash.byte_addr
                0x0000000000000000      0x164 ..\..\libs\cpu\libplatform.a(spiflash.o)
 .com_text.spiflash.erase_32k
                0x0000000000000000       0x50 ..\..\libs\cpu\libplatform.a(spiflash.o)
 .com_text.spiflash.erase_32k.byte_addr
                0x0000000000000000       0x48 ..\..\libs\cpu\libplatform.a(spiflash.o)
 .com_text.spiflash.erase_64k
                0x0000000000000000       0x50 ..\..\libs\cpu\libplatform.a(spiflash.o)
 .com_text.spiflash.erase_64k.byte_addr
                0x0000000000000000       0x48 ..\..\libs\cpu\libplatform.a(spiflash.o)
 .btmem.spi     0x0000000000000000       0x1c ..\..\libs\cpu\libplatform.a(spiflash.o)
 .text          0x0000000000000000        0x0 ..\..\libs\cpu\libplatform.a(debug.o)
 .data          0x0000000000000000        0x0 ..\..\libs\cpu\libplatform.a(debug.o)
 .bss           0x0000000000000000        0x0 ..\..\libs\cpu\libplatform.a(debug.o)
 .text.debug_dump_info_nanos_schedule
                0x0000000000000000        0x2 ..\..\libs\cpu\libplatform.a(debug.o)
 .text.debug_dump_info_nanos_timer
                0x0000000000000000        0x2 ..\..\libs\cpu\libplatform.a(debug.o)
 .text          0x0000000000000000        0x0 ..\..\libs\cpu\libplatform.a(fot_pack.o)
 .data          0x0000000000000000        0x0 ..\..\libs\cpu\libplatform.a(fot_pack.o)
 .bss           0x0000000000000000        0x0 ..\..\libs\cpu\libplatform.a(fot_pack.o)
 .text.ota_pack
                0x0000000000000000      0x590 ..\..\libs\cpu\libplatform.a(fot_pack.o)
 .text.ota_pack_deinit
                0x0000000000000000       0x2a ..\..\libs\cpu\libplatform.a(fot_pack.o)
 .text.ota_pack_get_curaddr
                0x0000000000000000        0xa ..\..\libs\cpu\libplatform.a(fot_pack.o)
 .text.ota_pack_get_err
                0x0000000000000000       0x14 ..\..\libs\cpu\libplatform.a(fot_pack.o)
 .text.ota_pack_done
                0x0000000000000000       0x56 ..\..\libs\cpu\libplatform.a(fot_pack.o)
 .text.fot.cache
                0x0000000000000000      0x1a6 ..\..\libs\cpu\libplatform.a(fot_pack.o)
 .text.ota_pack_breakpoint_info_read
                0x0000000000000000       0xde ..\..\libs\cpu\libplatform.a(fot_pack.o)
 .fot_data.com.pack
                0x0000000000000000       0x68 ..\..\libs\cpu\libplatform.a(fot_pack.o)
 .sbss.fot_update_init
                0x0000000000000000        0x1 ..\..\libs\cpu\libplatform.a(fot_pack.o)
 .sbss.spiflash_protect_dis
                0x0000000000000000        0x1 ..\..\libs\cpu\libplatform.a(fot_pack.o)
 .text          0x0000000000000000        0x0 ..\..\libs\cpu\libplatform.a(key.o)
 .data          0x0000000000000000        0x0 ..\..\libs\cpu\libplatform.a(key.o)
 .bss           0x0000000000000000        0x0 ..\..\libs\cpu\libplatform.a(key.o)
 .text          0x0000000000000000        0x0 ..\..\libs\cpu\libplatform.a(lock.o)
 .data          0x0000000000000000        0x0 ..\..\libs\cpu\libplatform.a(lock.o)
 .bss           0x0000000000000000        0x0 ..\..\libs\cpu\libplatform.a(lock.o)
 .rodata.lock_code_usbdev.str1.4
                0x0000000000000000       0x16 ..\..\libs\cpu\libplatform.a(lock.o)
 .text.lock_code_usbdev
                0x0000000000000000       0x54 ..\..\libs\cpu\libplatform.a(lock.o)
 .text.unlock_code_usbdev
                0x0000000000000000       0x38 ..\..\libs\cpu\libplatform.a(lock.o)
 .rodata.lock_code_alg.str1.4
                0x0000000000000000       0x1f ..\..\libs\cpu\libplatform.a(lock.o)
 .text.lock_code_alg
                0x0000000000000000       0x60 ..\..\libs\cpu\libplatform.a(lock.o)
 .text.unlock_code_alg
                0x0000000000000000       0x38 ..\..\libs\cpu\libplatform.a(lock.o)
 .text          0x0000000000000000        0x0 ..\..\libs\cpu\libplatform.a(patch.o)
 .data          0x0000000000000000        0x0 ..\..\libs\cpu\libplatform.a(patch.o)
 .bss           0x0000000000000000        0x0 ..\..\libs\cpu\libplatform.a(patch.o)
 .text          0x0000000000000000        0x0 ..\..\libs\cpu\libplatform.a(s_sys.o)
 .data          0x0000000000000000        0x0 ..\..\libs\cpu\libplatform.a(s_sys.o)
 .bss           0x0000000000000000        0x0 ..\..\libs\cpu\libplatform.a(s_sys.o)
 .text          0x0000000000000000        0x0 ..\..\libs\cpu\libplatform.a(sleep.o)
 .data          0x0000000000000000        0x0 ..\..\libs\cpu\libplatform.a(sleep.o)
 .bss           0x0000000000000000        0x0 ..\..\libs\cpu\libplatform.a(sleep.o)
 .text          0x0000000000000000        0x0 ..\..\libs\cpu\libplatform.a(sys.o)
 .data          0x0000000000000000        0x0 ..\..\libs\cpu\libplatform.a(sys.o)
 .bss           0x0000000000000000        0x0 ..\..\libs\cpu\libplatform.a(sys.o)
 .text.dbg_clk_out
                0x0000000000000000       0x46 ..\..\libs\cpu\libplatform.a(sys.o)
 .text.sys_get_rand_key
                0x0000000000000000       0x6c ..\..\libs\cpu\libplatform.a(sys.o)
 .text.bsp.param
                0x0000000000000000       0x32 ..\..\libs\cpu\libplatform.a(sys.o)
 .text.bt_restore_xosc_cap
                0x0000000000000000        0x8 ..\..\libs\cpu\libplatform.a(sys.o)
 .text.bt_get_xosc_cap
                0x0000000000000000        0xc ..\..\libs\cpu\libplatform.a(sys.o)
 .text.bt_set_xosc_cap
                0x0000000000000000       0x18 ..\..\libs\cpu\libplatform.a(sys.o)
 .text.bt_adj_xosc_cap
                0x0000000000000000       0x72 ..\..\libs\cpu\libplatform.a(sys.o)
 .text.__divdi3
                0x0000000000000000       0x5c ..\..\libs\cpu\libplatform.a(sys.o)
 .text.__umoddi3
                0x0000000000000000       0x30 ..\..\libs\cpu\libplatform.a(sys.o)
 .text.get_random
                0x0000000000000000       0x26 ..\..\libs\cpu\libplatform.a(sys.o)
 .text.random_init
                0x0000000000000000        0xa ..\..\libs\cpu\libplatform.a(sys.o)
 .com_text.sys  0x0000000000000000       0x1e ..\..\libs\cpu\libplatform.a(sys.o)
 .text.sw_reset_source_get
                0x0000000000000000       0x2a ..\..\libs\cpu\libplatform.a(sys.o)
 .text          0x0000000000000000        0x0 ..\..\libs\cpu\libplatform.a(sys_clk.o)
 .data          0x0000000000000000        0x0 ..\..\libs\cpu\libplatform.a(sys_clk.o)
 .bss           0x0000000000000000        0x0 ..\..\libs\cpu\libplatform.a(sys_clk.o)
 .text.periph_cacl_clkdiv
                0x0000000000000000        0x2 ..\..\libs\cpu\libplatform.a(sys_clk.o)
 .text.sys_clk_lower_limit_lock
                0x0000000000000000       0x84 ..\..\libs\cpu\libplatform.a(sys_clk.o)
 .text.sys_clk_lower_limit_unlock
                0x0000000000000000       0x6c ..\..\libs\cpu\libplatform.a(sys_clk.o)
 .text.sys_clk_lower_limit_all_unlock
                0x0000000000000000       0x50 ..\..\libs\cpu\libplatform.a(sys_clk.o)
 .sbss.cfg_spiflash_speed_up_en
                0x0000000000000000        0x1 ..\..\libs\cpu\libplatform.a(sys_clk.o)
 .srodata.rtc_clk_div_coef
                0x0000000000000000        0x4 ..\..\libs\cpu\libplatform.a(sys_clk.o)
 .text          0x0000000000000000        0x0 ..\..\libs\cpu\libplatform.a(voltage_trim.o)
 .data          0x0000000000000000        0x0 ..\..\libs\cpu\libplatform.a(voltage_trim.o)
 .bss           0x0000000000000000        0x0 ..\..\libs\cpu\libplatform.a(voltage_trim.o)
 .rodata.voltage_trim_value_dump.str1.4
                0x0000000000000000       0xa1 ..\..\libs\cpu\libplatform.a(voltage_trim.o)
 .text.voltage_trim_value_dump
                0x0000000000000000       0xf8 ..\..\libs\cpu\libplatform.a(voltage_trim.o)
 .text          0x0000000000000000        0x0 ..\..\libs\cpu\libplatform.a(weak_symbol.o)
 .data          0x0000000000000000        0x0 ..\..\libs\cpu\libplatform.a(weak_symbol.o)
 .bss           0x0000000000000000        0x0 ..\..\libs\cpu\libplatform.a(weak_symbol.o)
 .text.xosc_get_xcfg
                0x0000000000000000        0x2 ..\..\libs\cpu\libplatform.a(weak_symbol.o)
 .text.param_xosc_read
                0x0000000000000000        0x2 ..\..\libs\cpu\libplatform.a(weak_symbol.o)
 .text.param_xosc_write
                0x0000000000000000        0x2 ..\..\libs\cpu\libplatform.a(weak_symbol.o)
 .text.sys_clk_change_callback
                0x0000000000000000        0x2 ..\..\libs\cpu\libplatform.a(weak_symbol.o)
 .text.uart_debug_init_callback
                0x0000000000000000        0x2 ..\..\libs\cpu\libplatform.a(weak_symbol.o)
 .text.dongle_alg_tbl_get
                0x0000000000000000        0x4 ..\..\libs\cpu\libplatform.a(weak_symbol.o)
 .text.dongle_soft_key_get
                0x0000000000000000        0x4 ..\..\libs\cpu\libplatform.a(weak_symbol.o)
 .text.bb_run_loop
                0x0000000000000000        0x2 ..\..\libs\cpu\libplatform.a(weak_symbol.o)
 .text.nanos_var_init
                0x0000000000000000       0x1c ..\..\libs\cpu\libplatform.a(weak_symbol.o)
 .text.btstack_message
                0x0000000000000000        0x4 ..\..\libs\cpu\libplatform.a(weak_symbol.o)
 .com_text.stack.api
                0x0000000000000000        0x4 ..\..\libs\cpu\libplatform.a(weak_symbol.o)
 .com_text.ret.stack.thread
                0x0000000000000000        0x2 ..\..\libs\cpu\libplatform.a(weak_symbol.o)
 .com_text.bb.isr
                0x0000000000000000        0x2 ..\..\libs\cpu\libplatform.a(weak_symbol.o)
 .com_text.isr  0x0000000000000000        0x2 ..\..\libs\cpu\libplatform.a(weak_symbol.o)
 .text.btstack_var_init
                0x0000000000000000        0x2 ..\..\libs\cpu\libplatform.a(weak_symbol.o)
 .com_text.stack.run_loop
                0x0000000000000000        0x2 ..\..\libs\cpu\libplatform.a(weak_symbol.o)
 .text.bb_patch_init
                0x0000000000000000        0x4 ..\..\libs\cpu\libplatform.a(weak_symbol.o)
 .text.bb_nanos_mem_init
                0x0000000000000000        0x2 ..\..\libs\cpu\libplatform.a(weak_symbol.o)
 .bss.heap_buf  0x0000000000000000       0x14 ..\..\libs\cpu\libplatform.a(weak_symbol.o)
 .bss.heap_size_buf
                0x0000000000000000        0xa ..\..\libs\cpu\libplatform.a(weak_symbol.o)
 .sbss.cfg_bt_work_mode
                0x0000000000000000        0x1 ..\..\libs\cpu\libplatform.a(weak_symbol.o)
 .text          0x0000000000000000        0x0 ..\..\libs\cpu\libplatform.a(sddac.o)
 .data          0x0000000000000000        0x0 ..\..\libs\cpu\libplatform.a(sddac.o)
 .bss           0x0000000000000000        0x0 ..\..\libs\cpu\libplatform.a(sddac.o)
 .text.sddac_done_callback_set
                0x0000000000000000        0xc ..\..\libs\cpu\libplatform.a(sddac.o)
 .com_text.sddac.done
                0x0000000000000000        0xe ..\..\libs\cpu\libplatform.a(sddac.o)
 .com_text.irq.sddac
                0x0000000000000000       0x2a ..\..\libs\cpu\libplatform.a(sddac.o)
 .sbss.p_sddac_done
                0x0000000000000000        0x4 ..\..\libs\cpu\libplatform.a(sddac.o)
 .comment       0x0000000000000000       0x13 ..\..\libs\cpu\libplatform.a(sddac.o)
 .riscv.attributes
                0x0000000000000000       0x32 ..\..\libs\cpu\libplatform.a(sddac.o)
 .text          0x0000000000000000        0x0 ..\..\libs\cpu\libplatform.a(bt.o)
 .data          0x0000000000000000        0x0 ..\..\libs\cpu\libplatform.a(bt.o)
 .bss           0x0000000000000000        0x0 ..\..\libs\cpu\libplatform.a(bt.o)
 .com_text.bthw
                0x0000000000000000        0x4 ..\..\libs\cpu\libplatform.a(bt.o)
 .text          0x0000000000000000        0x0 ..\..\libs\cpu\libplatform.a(crc.o)
 .data          0x0000000000000000        0x0 ..\..\libs\cpu\libplatform.a(crc.o)
 .bss           0x0000000000000000        0x0 ..\..\libs\cpu\libplatform.a(crc.o)
 .text.calc_crc32
                0x0000000000000000       0x2e ..\..\libs\cpu\libplatform.a(crc.o)
 .text.calc_crc16
                0x0000000000000000       0x2a ..\..\libs\cpu\libplatform.a(crc.o)
 .com_text.crc8
                0x0000000000000000       0x28 ..\..\libs\cpu\libplatform.a(crc.o)
 .com_rodata.crc.tbl
                0x0000000000000000      0x100 ..\..\libs\cpu\libplatform.a(crc.o)
 .rodata.crc.tbl
                0x0000000000000000      0x200 ..\..\libs\cpu\libplatform.a(crc.o)
 .rodata.dfu_crc32_table
                0x0000000000000000      0x400 ..\..\libs\cpu\libplatform.a(crc.o)
 .comment       0x0000000000000000       0x13 ..\..\libs\cpu\libplatform.a(crc.o)
 .riscv.attributes
                0x0000000000000000       0x32 ..\..\libs\cpu\libplatform.a(crc.o)
 .text          0x0000000000000000      0x5ba ..\..\libs\cpu\libgcc.a(divdf3.o)
 .data          0x0000000000000000        0x0 ..\..\libs\cpu\libgcc.a(divdf3.o)
 .bss           0x0000000000000000        0x0 ..\..\libs\cpu\libgcc.a(divdf3.o)
 .rodata        0x0000000000000000       0x40 ..\..\libs\cpu\libgcc.a(divdf3.o)
 .debug_info    0x0000000000000000      0x72e ..\..\libs\cpu\libgcc.a(divdf3.o)
 .debug_abbrev  0x0000000000000000      0x173 ..\..\libs\cpu\libgcc.a(divdf3.o)
 .debug_loc     0x0000000000000000     0x1a3e ..\..\libs\cpu\libgcc.a(divdf3.o)
 .debug_aranges
                0x0000000000000000       0x20 ..\..\libs\cpu\libgcc.a(divdf3.o)
 .debug_ranges  0x0000000000000000      0x230 ..\..\libs\cpu\libgcc.a(divdf3.o)
 .debug_line    0x0000000000000000     0x111f ..\..\libs\cpu\libgcc.a(divdf3.o)
 .debug_str     0x0000000000000000      0x3ae ..\..\libs\cpu\libgcc.a(divdf3.o)
 .comment       0x0000000000000000       0x13 ..\..\libs\cpu\libgcc.a(divdf3.o)
 .debug_frame   0x0000000000000000       0x54 ..\..\libs\cpu\libgcc.a(divdf3.o)
 .riscv.attributes
                0x0000000000000000       0x26 ..\..\libs\cpu\libgcc.a(divdf3.o)
 .text          0x0000000000000000      0x49e ..\..\libs\cpu\libgcc.a(muldf3.o)
 .data          0x0000000000000000        0x0 ..\..\libs\cpu\libgcc.a(muldf3.o)
 .bss           0x0000000000000000        0x0 ..\..\libs\cpu\libgcc.a(muldf3.o)
 .rodata        0x0000000000000000       0x40 ..\..\libs\cpu\libgcc.a(muldf3.o)
 .debug_info    0x0000000000000000      0x762 ..\..\libs\cpu\libgcc.a(muldf3.o)
 .debug_abbrev  0x0000000000000000      0x185 ..\..\libs\cpu\libgcc.a(muldf3.o)
 .debug_loc     0x0000000000000000      0xf11 ..\..\libs\cpu\libgcc.a(muldf3.o)
 .debug_aranges
                0x0000000000000000       0x20 ..\..\libs\cpu\libgcc.a(muldf3.o)
 .debug_ranges  0x0000000000000000      0x290 ..\..\libs\cpu\libgcc.a(muldf3.o)
 .debug_line    0x0000000000000000      0xf06 ..\..\libs\cpu\libgcc.a(muldf3.o)
 .debug_str     0x0000000000000000      0x406 ..\..\libs\cpu\libgcc.a(muldf3.o)
 .comment       0x0000000000000000       0x13 ..\..\libs\cpu\libgcc.a(muldf3.o)
 .debug_frame   0x0000000000000000       0x54 ..\..\libs\cpu\libgcc.a(muldf3.o)
 .riscv.attributes
                0x0000000000000000       0x26 ..\..\libs\cpu\libgcc.a(muldf3.o)
 .text          0x0000000000000000       0x62 ..\..\libs\cpu\libgcc.a(fixunsdfsi.o)
 .data          0x0000000000000000        0x0 ..\..\libs\cpu\libgcc.a(fixunsdfsi.o)
 .bss           0x0000000000000000        0x0 ..\..\libs\cpu\libgcc.a(fixunsdfsi.o)
 .debug_info    0x0000000000000000      0x1d2 ..\..\libs\cpu\libgcc.a(fixunsdfsi.o)
 .debug_abbrev  0x0000000000000000      0x15e ..\..\libs\cpu\libgcc.a(fixunsdfsi.o)
 .debug_loc     0x0000000000000000       0xf4 ..\..\libs\cpu\libgcc.a(fixunsdfsi.o)
 .debug_aranges
                0x0000000000000000       0x20 ..\..\libs\cpu\libgcc.a(fixunsdfsi.o)
 .debug_ranges  0x0000000000000000       0x20 ..\..\libs\cpu\libgcc.a(fixunsdfsi.o)
 .debug_line    0x0000000000000000      0x1b4 ..\..\libs\cpu\libgcc.a(fixunsdfsi.o)
 .debug_str     0x0000000000000000      0x1f9 ..\..\libs\cpu\libgcc.a(fixunsdfsi.o)
 .comment       0x0000000000000000       0x13 ..\..\libs\cpu\libgcc.a(fixunsdfsi.o)
 .debug_frame   0x0000000000000000       0x20 ..\..\libs\cpu\libgcc.a(fixunsdfsi.o)
 .riscv.attributes
                0x0000000000000000       0x26 ..\..\libs\cpu\libgcc.a(fixunsdfsi.o)
 .text          0x0000000000000000       0x74 ..\..\libs\cpu\libgcc.a(floatsidf.o)
 .data          0x0000000000000000        0x0 ..\..\libs\cpu\libgcc.a(floatsidf.o)
 .bss           0x0000000000000000        0x0 ..\..\libs\cpu\libgcc.a(floatsidf.o)
 .debug_info    0x0000000000000000      0x29b ..\..\libs\cpu\libgcc.a(floatsidf.o)
 .debug_abbrev  0x0000000000000000      0x164 ..\..\libs\cpu\libgcc.a(floatsidf.o)
 .debug_loc     0x0000000000000000      0x240 ..\..\libs\cpu\libgcc.a(floatsidf.o)
 .debug_aranges
                0x0000000000000000       0x20 ..\..\libs\cpu\libgcc.a(floatsidf.o)
 .debug_ranges  0x0000000000000000       0xd0 ..\..\libs\cpu\libgcc.a(floatsidf.o)
 .debug_line    0x0000000000000000      0x29e ..\..\libs\cpu\libgcc.a(floatsidf.o)
 .debug_str     0x0000000000000000      0x299 ..\..\libs\cpu\libgcc.a(floatsidf.o)
 .comment       0x0000000000000000       0x13 ..\..\libs\cpu\libgcc.a(floatsidf.o)
 .debug_frame   0x0000000000000000       0x38 ..\..\libs\cpu\libgcc.a(floatsidf.o)
 .riscv.attributes
                0x0000000000000000       0x26 ..\..\libs\cpu\libgcc.a(floatsidf.o)
 .text          0x0000000000000000       0x74 ..\..\libs\cpu\libgcc.a(floatunsidf.o)
 .data          0x0000000000000000        0x0 ..\..\libs\cpu\libgcc.a(floatunsidf.o)
 .bss           0x0000000000000000        0x0 ..\..\libs\cpu\libgcc.a(floatunsidf.o)
 .debug_info    0x0000000000000000      0x28b ..\..\libs\cpu\libgcc.a(floatunsidf.o)
 .debug_abbrev  0x0000000000000000      0x175 ..\..\libs\cpu\libgcc.a(floatunsidf.o)
 .debug_loc     0x0000000000000000      0x1d5 ..\..\libs\cpu\libgcc.a(floatunsidf.o)
 .debug_aranges
                0x0000000000000000       0x20 ..\..\libs\cpu\libgcc.a(floatunsidf.o)
 .debug_ranges  0x0000000000000000       0xc0 ..\..\libs\cpu\libgcc.a(floatunsidf.o)
 .debug_line    0x0000000000000000      0x37e ..\..\libs\cpu\libgcc.a(floatunsidf.o)
 .debug_str     0x0000000000000000      0x296 ..\..\libs\cpu\libgcc.a(floatunsidf.o)
 .comment       0x0000000000000000       0x13 ..\..\libs\cpu\libgcc.a(floatunsidf.o)
 .debug_frame   0x0000000000000000       0x44 ..\..\libs\cpu\libgcc.a(floatunsidf.o)
 .riscv.attributes
                0x0000000000000000       0x26 ..\..\libs\cpu\libgcc.a(floatunsidf.o)
 .text          0x0000000000000000       0x76 ..\..\libs\cpu\libgcc.a(_clzsi2.o)
 .data          0x0000000000000000        0x0 ..\..\libs\cpu\libgcc.a(_clzsi2.o)
 .bss           0x0000000000000000        0x0 ..\..\libs\cpu\libgcc.a(_clzsi2.o)
 .debug_info    0x0000000000000000      0x132 ..\..\libs\cpu\libgcc.a(_clzsi2.o)
 .debug_abbrev  0x0000000000000000       0xb9 ..\..\libs\cpu\libgcc.a(_clzsi2.o)
 .debug_loc     0x0000000000000000       0xd8 ..\..\libs\cpu\libgcc.a(_clzsi2.o)
 .debug_aranges
                0x0000000000000000       0x20 ..\..\libs\cpu\libgcc.a(_clzsi2.o)
 .debug_ranges  0x0000000000000000       0x30 ..\..\libs\cpu\libgcc.a(_clzsi2.o)
 .debug_line    0x0000000000000000      0x14d ..\..\libs\cpu\libgcc.a(_clzsi2.o)
 .debug_str     0x0000000000000000      0x1da ..\..\libs\cpu\libgcc.a(_clzsi2.o)
 .comment       0x0000000000000000       0x13 ..\..\libs\cpu\libgcc.a(_clzsi2.o)
 .debug_frame   0x0000000000000000       0x20 ..\..\libs\cpu\libgcc.a(_clzsi2.o)
 .riscv.attributes
                0x0000000000000000       0x26 ..\..\libs\cpu\libgcc.a(_clzsi2.o)
 .text          0x0000000000000000        0x0 ..\..\libs\cpu\libgcc.a(_clz.o)
 .data          0x0000000000000000        0x0 ..\..\libs\cpu\libgcc.a(_clz.o)
 .bss           0x0000000000000000        0x0 ..\..\libs\cpu\libgcc.a(_clz.o)
 .rodata        0x0000000000000000      0x100 ..\..\libs\cpu\libgcc.a(_clz.o)
 .debug_info    0x0000000000000000       0xc9 ..\..\libs\cpu\libgcc.a(_clz.o)
 .debug_abbrev  0x0000000000000000       0x70 ..\..\libs\cpu\libgcc.a(_clz.o)
 .debug_aranges
                0x0000000000000000       0x18 ..\..\libs\cpu\libgcc.a(_clz.o)
 .debug_line    0x0000000000000000       0x5d ..\..\libs\cpu\libgcc.a(_clz.o)
 .debug_str     0x0000000000000000      0x1bd ..\..\libs\cpu\libgcc.a(_clz.o)
 .comment       0x0000000000000000       0x13 ..\..\libs\cpu\libgcc.a(_clz.o)
 .riscv.attributes
                0x0000000000000000       0x26 ..\..\libs\cpu\libgcc.a(_clz.o)
 .data          0x0000000000000000        0x0 ..\..\libs\ble\libbtstack_central.a(txpkt.o)
 .bss           0x0000000000000000        0x0 ..\..\libs\ble\libbtstack_central.a(txpkt.o)
 .com_text.txpkt.full_check
                0x0000000000000000       0x1c ..\..\libs\ble\libbtstack_central.a(txpkt.o)
 .com_text.txpkt.avail_check
                0x0000000000000000       0x16 ..\..\libs\ble\libbtstack_central.a(txpkt.o)
 .com_text.txpkt.server_kick
                0x0000000000000000        0xc ..\..\libs\ble\libbtstack_central.a(txpkt.o)
 .com_text.txpkt.client_kick
                0x0000000000000000        0xc ..\..\libs\ble\libbtstack_central.a(txpkt.o)
 .data          0x0000000000000000        0x0 ..\..\libs\ble\libbtstack_central.a(hci.o)
 .bss           0x0000000000000000        0x0 ..\..\libs\ble\libbtstack_central.a(hci.o)
 .text.stack.hci.conn_param_set
                0x0000000000000000       0x18 ..\..\libs\ble\libbtstack_central.a(hci.o)
 .text.stack.hci.le.adv
                0x0000000000000000        0x2 ..\..\libs\ble\libbtstack_central.a(hci.o)
 .text.hci.adv.is_enable
                0x0000000000000000        0x4 ..\..\libs\ble\libbtstack_central.a(hci.o)
 .data          0x0000000000000000        0x0 ..\..\libs\ble\libbtstack_central.a(btstack_util.o)
 .bss           0x0000000000000000        0x0 ..\..\libs\ble\libbtstack_central.a(btstack_util.o)
 .text          0x0000000000000000        0x4 ..\..\libs\ble\libbtstack_central.a(btstack_linked_list.o)
 .data          0x0000000000000000        0x0 ..\..\libs\ble\libbtstack_central.a(btstack_linked_list.o)
 .bss           0x0000000000000000        0x0 ..\..\libs\ble\libbtstack_central.a(btstack_linked_list.o)
 .data          0x0000000000000000        0x0 ..\..\libs\ble\libbtstack_central.a(sm.o)
 .text.sm.cmac  0x0000000000000000       0x82 ..\..\libs\ble\libbtstack_central.a(sm.o)
 .text.sm.auth.sta
                0x0000000000000000       0x30 ..\..\libs\ble\libbtstack_central.a(sm.o)
 .text.sm.auth_decline
                0x0000000000000000       0x38 ..\..\libs\ble\libbtstack_central.a(sm.o)
 .text.sm.auth_grant
                0x0000000000000000       0x38 ..\..\libs\ble\libbtstack_central.a(sm.o)
 .text.sm.bonding_decline
                0x0000000000000000       0x60 ..\..\libs\ble\libbtstack_central.a(sm.o)
 .text.sm.passkey.set
                0x0000000000000000       0x3e ..\..\libs\ble\libbtstack_central.a(sm.o)
 .text.sm.nc_exch
                0x0000000000000000        0x8 ..\..\libs\ble\libbtstack_central.a(sm.o)
 .text.sm.identity_resolving_state
                0x0000000000000000       0x20 ..\..\libs\ble\libbtstack_central.a(sm.o)
 .text.gap.adv  0x0000000000000000        0x2 ..\..\libs\ble\libbtstack_central.a(sm.o)
 .text.sm.irk_get
                0x0000000000000000        0xa ..\..\libs\ble\libbtstack_central.a(sm.o)
 .text.sm.delete_bonding
                0x0000000000000000       0x6e ..\..\libs\ble\libbtstack_central.a(sm.o)
 .data          0x0000000000000000        0x0 ..\..\libs\ble\libbtstack_central.a(le_device_db_memory.o)
 .bss           0x0000000000000000        0x0 ..\..\libs\ble\libbtstack_central.a(le_device_db_memory.o)
 .text.le.db.get
                0x0000000000000000       0x34 ..\..\libs\ble\libbtstack_central.a(le_device_db_memory.o)
 .text.le.db.set
                0x0000000000000000      0x192 ..\..\libs\ble\libbtstack_central.a(le_device_db_memory.o)
 .text.le.db.remove_all
                0x0000000000000000       0x58 ..\..\libs\ble\libbtstack_central.a(le_device_db_memory.o)
 .text.le.db.dump
                0x0000000000000000       0x62 ..\..\libs\ble\libbtstack_central.a(le_device_db_memory.o)
 .text.le.db.get_index
                0x0000000000000000       0x1c ..\..\libs\ble\libbtstack_central.a(le_device_db_memory.o)
 .data          0x0000000000000000        0x0 ..\..\libs\ble\libbtstack_central.a(gatt_client.o)
 .bss           0x0000000000000000        0x0 ..\..\libs\ble\libbtstack_central.a(gatt_client.o)
 .text.client.set.sm_level
                0x0000000000000000        0xa ..\..\libs\ble\libbtstack_central.a(gatt_client.o)
 .text.client.stop_listening
                0x0000000000000000       0x12 ..\..\libs\ble\libbtstack_central.a(gatt_client.o)
 .text.client.deserialize_characteristic_descriptor
                0x0000000000000000       0x4e ..\..\libs\ble\libbtstack_central.a(gatt_client.o)
 .text.client.get_character_uuid16
                0x0000000000000000       0x22 ..\..\libs\ble\libbtstack_central.a(gatt_client.o)
 .text.client.get_character_uuid128
                0x0000000000000000       0x42 ..\..\libs\ble\libbtstack_central.a(gatt_client.o)
 .text.client.write_cmd
                0x0000000000000000       0x24 ..\..\libs\ble\libbtstack_central.a(gatt_client.o)
 .text.client.read_blob
                0x0000000000000000       0x22 ..\..\libs\ble\libbtstack_central.a(gatt_client.o)
 .text.client.read_report_ref
                0x0000000000000000       0x22 ..\..\libs\ble\libbtstack_central.a(gatt_client.o)
 .text.client.discover_secondary_services
                0x0000000000000000       0x4c ..\..\libs\ble\libbtstack_central.a(gatt_client.o)
 .text.client.find_services_uuid16
                0x0000000000000000       0x6a ..\..\libs\ble\libbtstack_central.a(gatt_client.o)
 .text.client.find_services_uuid128
                0x0000000000000000       0x6e ..\..\libs\ble\libbtstack_central.a(gatt_client.o)
 .text.client.find_included_services
                0x0000000000000000       0x4e ..\..\libs\ble\libbtstack_central.a(gatt_client.o)
 .text.client.find_character_uuid16
                0x0000000000000000       0x90 ..\..\libs\ble\libbtstack_central.a(gatt_client.o)
 .text.client.find_character_uuid128
                0x0000000000000000       0x92 ..\..\libs\ble\libbtstack_central.a(gatt_client.o)
 .text.client.discover_characteristic_descriptors
                0x0000000000000000       0x5e ..\..\libs\ble\libbtstack_central.a(gatt_client.o)
 .text.client.read_value
                0x0000000000000000        0xc ..\..\libs\ble\libbtstack_central.a(gatt_client.o)
 .text.client.read_value_uuid16
                0x0000000000000000       0x66 ..\..\libs\ble\libbtstack_central.a(gatt_client.o)
 .text.client.read_value_uuid128
                0x0000000000000000       0x68 ..\..\libs\ble\libbtstack_central.a(gatt_client.o)
 .text.client.read_long_value
                0x0000000000000000       0x16 ..\..\libs\ble\libbtstack_central.a(gatt_client.o)
 .text.client.read_multiple
                0x0000000000000000       0x48 ..\..\libs\ble\libbtstack_central.a(gatt_client.o)
 .text.client.write_long_value
                0x0000000000000000       0x62 ..\..\libs\ble\libbtstack_central.a(gatt_client.o)
 .text.client.reliable_write_long
                0x0000000000000000       0x52 ..\..\libs\ble\libbtstack_central.a(gatt_client.o)
 .text.client.read_characteristic
                0x0000000000000000       0x50 ..\..\libs\ble\libbtstack_central.a(gatt_client.o)
 .text.client.read_long_characteristic_descriptor
                0x0000000000000000       0x62 ..\..\libs\ble\libbtstack_central.a(gatt_client.o)
 .text.client.write_character_desc
                0x0000000000000000       0x60 ..\..\libs\ble\libbtstack_central.a(gatt_client.o)
 .text.client.write_long_character_desc
                0x0000000000000000       0x70 ..\..\libs\ble\libbtstack_central.a(gatt_client.o)
 .text.client.prepare_write
                0x0000000000000000       0x56 ..\..\libs\ble\libbtstack_central.a(gatt_client.o)
 .text.client.execute_write
                0x0000000000000000       0x3c ..\..\libs\ble\libbtstack_central.a(gatt_client.o)
 .text.client.cancel_write
                0x0000000000000000       0x3c ..\..\libs\ble\libbtstack_central.a(gatt_client.o)
 .ble_buf.read  0x0000000000000000        0x6 ..\..\libs\ble\libbtstack_central.a(gatt_client.o)
 .data          0x0000000000000000        0x0 ..\..\libs\ble\libbtstack_central.a(att_server.o)
 .bss           0x0000000000000000        0x0 ..\..\libs\ble\libbtstack_central.a(att_server.o)
 .text.sm.server
                0x0000000000000000      0x210 ..\..\libs\ble\libbtstack_central.a(att_server.o)
 .text.server.register_service
                0x0000000000000000       0x40 ..\..\libs\ble\libbtstack_central.a(att_server.o)
 .text.server.init
                0x0000000000000000       0xa4 ..\..\libs\ble\libbtstack_central.a(att_server.o)
 .text.server.packet_handler
                0x0000000000000000      0x1de ..\..\libs\ble\libbtstack_central.a(att_server.o)
 .text.att.event_handler
                0x0000000000000000      0x1aa ..\..\libs\ble\libbtstack_central.a(att_server.o)
 .com_text.att.event_handler
                0x0000000000000000       0x26 ..\..\libs\ble\libbtstack_central.a(att_server.o)
 .text.stack.send.ntf
                0x0000000000000000       0x5a ..\..\libs\ble\libbtstack_central.a(att_server.o)
 .text.server.indicate
                0x0000000000000000       0xb2 ..\..\libs\ble\libbtstack_central.a(att_server.o)
 .com_text.server.mtu_get
                0x0000000000000000       0x2c ..\..\libs\ble\libbtstack_central.a(att_server.o)
 .ble_buf.att   0x0000000000000000       0x10 ..\..\libs\ble\libbtstack_central.a(att_server.o)
 .data          0x0000000000000000        0x0 ..\..\libs\ble\libbtstack_central.a(att_dispatch.o)
 .bss           0x0000000000000000        0x0 ..\..\libs\ble\libbtstack_central.a(att_dispatch.o)
 .text.att.is_register_client
                0x0000000000000000        0xe ..\..\libs\ble\libbtstack_central.a(att_dispatch.o)
 .text.att.register_server
                0x0000000000000000       0x1a ..\..\libs\ble\libbtstack_central.a(att_dispatch.o)
 .data          0x0000000000000000        0x0 ..\..\libs\ble\libbtstack_central.a(att_db.o)
 .bss           0x0000000000000000        0x0 ..\..\libs\ble\libbtstack_central.a(att_db.o)
 .text.att.dump
                0x0000000000000000       0x5c ..\..\libs\ble\libbtstack_central.a(att_db.o)
 .text.stack.send.ntf
                0x0000000000000000       0x4a ..\..\libs\ble\libbtstack_central.a(att_db.o)
 .text.gatt.get_client_config
                0x0000000000000000      0x122 ..\..\libs\ble\libbtstack_central.a(att_db.o)
 .data          0x0000000000000000        0x0 ..\..\libs\ble\libbtstack_central.a(ad_parser.o)
 .bss           0x0000000000000000        0x0 ..\..\libs\ble\libbtstack_central.a(ad_parser.o)
 .data          0x0000000000000000        0x0 ..\..\libs\ble\libbtstack_central.a(hci_transport_hcic.o)
 .bss           0x0000000000000000        0x0 ..\..\libs\ble\libbtstack_central.a(hci_transport_hcic.o)
 .data          0x0000000000000000        0x0 ..\..\libs\ble\libbtstack_central.a(btstack_api.o)
 .bss           0x0000000000000000        0xe ..\..\libs\ble\libbtstack_central.a(btstack_api.o)
 .text          0x0000000000000000       0x28 ..\..\libs\ble\libbtstack_central.a(bt_api.o)
 .data          0x0000000000000000        0x0 ..\..\libs\ble\libbtstack_central.a(bt_api.o)
 .bss           0x0000000000000000        0x0 ..\..\libs\ble\libbtstack_central.a(bt_api.o)
 .com_text.bt.timer
                0x0000000000000000       0x10 ..\..\libs\ble\libbtstack_central.a(bt_api.o)
 .text          0x0000000000000000        0x4 ..\..\libs\ble\libbtstack_central.a(ble_api.o)
 .data          0x0000000000000000        0x0 ..\..\libs\ble\libbtstack_central.a(ble_api.o)
 .bss           0x0000000000000000        0x0 ..\..\libs\ble\libbtstack_central.a(ble_api.o)
 .text.ble.api.max_mtu
                0x0000000000000000       0x2e ..\..\libs\ble\libbtstack_central.a(ble_api.o)
 .text.ble.api.adv_dis
                0x0000000000000000        0x2 ..\..\libs\ble\libbtstack_central.a(ble_api.o)
 .text.ble.api.adv_en
                0x0000000000000000        0x2 ..\..\libs\ble\libbtstack_central.a(ble_api.o)
 .text.ble.api.adv_is_en
                0x0000000000000000        0x8 ..\..\libs\ble\libbtstack_central.a(ble_api.o)
 .text.ble.api.ext_adv_dis
                0x0000000000000000        0x2 ..\..\libs\ble\libbtstack_central.a(ble_api.o)
 .text.ble.api.ext_adv_en
                0x0000000000000000        0x2 ..\..\libs\ble\libbtstack_central.a(ble_api.o)
 .text.ble.api.discon
                0x0000000000000000        0xe ..\..\libs\ble\libbtstack_central.a(ble_api.o)
 .text.ble.api.adv_data.set
                0x0000000000000000        0x4 ..\..\libs\ble\libbtstack_central.a(ble_api.o)
 .text.ble.api.scan
                0x0000000000000000        0x4 ..\..\libs\ble\libbtstack_central.a(ble_api.o)
 .text.ble.api.adv_interval.set
                0x0000000000000000        0x4 ..\..\libs\ble\libbtstack_central.a(ble_api.o)
 .text.ble.api.adv.adv_interval.get
                0x0000000000000000        0x4 ..\..\libs\ble\libbtstack_central.a(ble_api.o)
 .text.ble.api.conn.update2
                0x0000000000000000        0xa ..\..\libs\ble\libbtstack_central.a(ble_api.o)
 .text.ble.api.conn.ll_update
                0x0000000000000000        0xa ..\..\libs\ble\libbtstack_central.a(ble_api.o)
 .text.ble.api.latency.dis
                0x0000000000000000        0x4 ..\..\libs\ble\libbtstack_central.a(ble_api.o)
 .text.ble.api.latency.en
                0x0000000000000000        0x4 ..\..\libs\ble\libbtstack_central.a(ble_api.o)
 .text.ble.api.adv_param.set
                0x0000000000000000        0x4 ..\..\libs\ble\libbtstack_central.a(ble_api.o)
 .text.ble.adv_param.get
                0x0000000000000000        0x4 ..\..\libs\ble\libbtstack_central.a(ble_api.o)
 .text.ble.api.ext_adv_param.set
                0x0000000000000000        0x4 ..\..\libs\ble\libbtstack_central.a(ble_api.o)
 .text.ble.api.ext_scan.set
                0x0000000000000000        0x4 ..\..\libs\ble\libbtstack_central.a(ble_api.o)
 .text.ble.api.ext_conn_do
                0x0000000000000000        0x4 ..\..\libs\ble\libbtstack_central.a(ble_api.o)
 .text.ble.api.conn_cancel_do
                0x0000000000000000        0xa ..\..\libs\ble\libbtstack_central.a(ble_api.o)
 .text.ble.api.rpa
                0x0000000000000000        0x2 ..\..\libs\ble\libbtstack_central.a(ble_api.o)
 .text.ble.api.rpa_en
                0x0000000000000000        0x2 ..\..\libs\ble\libbtstack_central.a(ble_api.o)
 .text.ble.api.rpa_add
                0x0000000000000000        0x2 ..\..\libs\ble\libbtstack_central.a(ble_api.o)
 .text.ble.api.rpa_dev
                0x0000000000000000        0x2 ..\..\libs\ble\libbtstack_central.a(ble_api.o)
 .text.ble.api.wlist_add
                0x0000000000000000        0x2 ..\..\libs\ble\libbtstack_central.a(ble_api.o)
 .text.ble.api.wlist_dev
                0x0000000000000000        0x2 ..\..\libs\ble\libbtstack_central.a(ble_api.o)
 .text.ble.api.wlist
                0x0000000000000000        0x4 ..\..\libs\ble\libbtstack_central.a(ble_api.o)
 .text.ble.api.sm.passkey
                0x0000000000000000       0x2c ..\..\libs\ble\libbtstack_central.a(ble_api.o)
 .text.ble.api.sm_req
                0x0000000000000000        0xe ..\..\libs\ble\libbtstack_central.a(ble_api.o)
 .text.ble.bond.delete_addr
                0x0000000000000000        0x8 ..\..\libs\ble\libbtstack_central.a(ble_api.o)
 .text.ble.bond.delete_index
                0x0000000000000000        0x8 ..\..\libs\ble\libbtstack_central.a(ble_api.o)
 .text.ble.bond.delete_all
                0x0000000000000000        0x8 ..\..\libs\ble\libbtstack_central.a(ble_api.o)
 .text.ble.bond.get_cnt
                0x0000000000000000       0x1c ..\..\libs\ble\libbtstack_central.a(ble_api.o)
 .text.ble.bond.get_info
                0x0000000000000000       0x10 ..\..\libs\ble\libbtstack_central.a(ble_api.o)
 .text.ble.api.get_rssi
                0x0000000000000000        0x8 ..\..\libs\ble\libbtstack_central.a(ble_api.o)
 .text.ble.set_static_addr
                0x0000000000000000       0x2e ..\..\libs\ble\libbtstack_central.a(ble_api.o)
 .text.ble.addr_update
                0x0000000000000000        0xa ..\..\libs\ble\libbtstack_central.a(ble_api.o)
 .text.ble.addr_get
                0x0000000000000000        0xc ..\..\libs\ble\libbtstack_central.a(ble_api.o)
 .text.ble_fcc.cfg
                0x0000000000000000       0x32 ..\..\libs\ble\libbtstack_central.a(ble_api.o)
 .data          0x0000000000000000        0x0 ..\..\libs\ble\libbtstack_central.a(rf.o)
 .bss           0x0000000000000000        0x0 ..\..\libs\ble\libbtstack_central.a(rf.o)
 .com_text.bb.rf.isr
                0x0000000000000000       0x14 ..\..\libs\ble\libbtstack_central.a(rf.o)
 .data          0x0000000000000000        0x0 ..\..\libs\ble\libbtstack_central.a(hct_tl.o)
 .data          0x0000000000000000        0x0 ..\..\libs\ble\libbtstack_central.a(hct_msg.o)
 .bss           0x0000000000000000        0x0 ..\..\libs\ble\libbtstack_central.a(hct_msg.o)
 .data          0x0000000000000000        0x0 ..\..\libs\ble\libbtstack_central.a(hct.o)
 .bss           0x0000000000000000        0x0 ..\..\libs\ble\libbtstack_central.a(hct.o)
 .data          0x0000000000000000        0x0 ..\..\libs\ble\libbtstack_central.a(mgr_hci.o)
 .bss           0x0000000000000000        0x0 ..\..\libs\ble\libbtstack_central.a(mgr_hci.o)
 .data          0x0000000000000000        0x0 ..\..\libs\ble\libbtstack_central.a(mgr.o)
 .bss           0x0000000000000000        0x0 ..\..\libs\ble\libbtstack_central.a(mgr.o)
 .data          0x0000000000000000        0x0 ..\..\libs\ble\libbtstack_central.a(ll_scan.o)
 .bss           0x0000000000000000        0x0 ..\..\libs\ble\libbtstack_central.a(ll_scan.o)
 .data          0x0000000000000000        0x0 ..\..\libs\ble\libbtstack_central.a(ble_scan.o)
 .bss           0x0000000000000000        0x0 ..\..\libs\ble\libbtstack_central.a(ble_scan.o)
 .com_rodata.bb.tbl
                0x0000000000000000        0x7 ..\..\libs\ble\libbtstack_central.a(ble_scan.o)
 .data          0x0000000000000000        0x0 ..\..\libs\ble\libbtstack_central.a(ble_hal.o)
 .bss           0x0000000000000000        0x0 ..\..\libs\ble\libbtstack_central.a(ble_hal.o)
 .data          0x0000000000000000        0x0 ..\..\libs\ble\libbtstack_central.a(ble_con.o)
 .bss           0x0000000000000000        0x0 ..\..\libs\ble\libbtstack_central.a(ble_con.o)
 .com_rodata.bb.tbl
                0x0000000000000000       0x10 ..\..\libs\ble\libbtstack_central.a(ble_con.o)
 .data          0x0000000000000000        0x0 ..\..\libs\ble\libbtstack_central.a(ble_buf.o)
 .text          0x0000000000000000       0x3e ..\..\libs\ble\libbtstack_central.a(bb_utils.o)
 .data          0x0000000000000000        0x0 ..\..\libs\ble\libbtstack_central.a(bb_utils.o)
 .bss           0x0000000000000000        0x0 ..\..\libs\ble\libbtstack_central.a(bb_utils.o)
 .srodata       0x0000000000000000        0x5 ..\..\libs\ble\libbtstack_central.a(bb_utils.o)
 .data          0x0000000000000000        0x0 ..\..\libs\ble\libbtstack_central.a(bb_int.o)
 .bss           0x0000000000000000        0x0 ..\..\libs\ble\libbtstack_central.a(bb_int.o)
 .text.bb.timer.init
                0x0000000000000000       0x34 ..\..\libs\ble\libbtstack_central.a(bb_int.o)
 .text.bb.timer.start
                0x0000000000000000       0x7a ..\..\libs\ble\libbtstack_central.a(bb_int.o)
 .text.bb.timer.stop
                0x0000000000000000       0x5e ..\..\libs\ble\libbtstack_central.a(bb_int.o)
 .text.bb.timer.acquire
                0x0000000000000000       0x7c ..\..\libs\ble\libbtstack_central.a(bb_int.o)
 .text.bb.timer.release
                0x0000000000000000       0x3c ..\..\libs\ble\libbtstack_central.a(bb_int.o)
 .com_text.bb.timer.query
                0x0000000000000000       0xac ..\..\libs\ble\libbtstack_central.a(bb_int.o)
 .com_text.bb.timer.modify
                0x0000000000000000       0x9e ..\..\libs\ble\libbtstack_central.a(bb_int.o)
 .com_text.bb.hs_get
                0x0000000000000000       0x22 ..\..\libs\ble\libbtstack_central.a(bb_int.o)
 .data          0x0000000000000000        0x0 ..\..\libs\ble\libbtstack_central.a(bb.o)
 .bss           0x0000000000000000        0x0 ..\..\libs\ble\libbtstack_central.a(bb.o)
 .com_text.bb.isr
                0x0000000000000000       0x16 ..\..\libs\ble\libbtstack_central.a(bb.o)
 .text          0x0000000000000000        0x0 ..\..\libs\ble\libbtstack_central.a(platform.o)
 .data          0x0000000000000000        0x0 ..\..\libs\ble\libbtstack_central.a(platform.o)
 .bss           0x0000000000000000        0x0 ..\..\libs\ble\libbtstack_central.a(platform.o)
 .com_text.cpu.sfr
                0x0000000000000000       0x3c ..\..\libs\ble\libbtstack_central.a(platform.o)
 .data          0x0000000000000000        0x0 ..\..\libs\ble\libbtstack_central.a(extern_ble.o)
 .bss           0x0000000000000000        0x0 ..\..\libs\ble\libbtstack_central.a(extern_ble.o)
 .sbss          0x0000000000000000        0x3 ..\..\libs\ble\libbtstack_central.a(extern_ble.o)
 .srodata       0x0000000000000000        0x1 ..\..\libs\ble\libbtstack_central.a(extern_ble.o)
 .text          0x0000000000000000        0x0 ..\..\libs\ble\libbtstack_central.a(extern.o)
 .data          0x0000000000000000        0x0 ..\..\libs\ble\libbtstack_central.a(extern.o)
 .bss           0x0000000000000000        0x0 ..\..\libs\ble\libbtstack_central.a(extern.o)
 .data          0x0000000000000000        0x0 ..\..\libs\ble\libbtstack_central.a(l2cap.o)
 .bss           0x0000000000000000        0x0 ..\..\libs\ble\libbtstack_central.a(l2cap.o)
 .text.l2cap.mtu_max
                0x0000000000000000        0x6 ..\..\libs\ble\libbtstack_central.a(l2cap.o)
 .text.l2cap.mtu_set
                0x0000000000000000       0x12 ..\..\libs\ble\libbtstack_central.a(l2cap.o)
 .text          0x0000000000000000       0x18 ..\..\libs\ble\libbtstack_central.a(hci_dump.o)
 .data          0x0000000000000000        0xc ..\..\libs\ble\libbtstack_central.a(hci_dump.o)
 .bss           0x0000000000000000        0x0 ..\..\libs\ble\libbtstack_central.a(hci_dump.o)
 .rodata.str1.4
                0x0000000000000000       0x12 ..\..\libs\ble\libbtstack_central.a(hci_dump.o)
 .text.stack.util
                0x0000000000000000       0x82 ..\..\libs\ble\libbtstack_central.a(hci_dump.o)
 .text          0x0000000000000000        0x0 ..\..\libs\ble\libbtstack_central.a(hci_cmd.o)
 .data          0x0000000000000000        0x0 ..\..\libs\ble\libbtstack_central.a(hci_cmd.o)
 .bss           0x0000000000000000        0x0 ..\..\libs\ble\libbtstack_central.a(hci_cmd.o)
 .com_rodata.btstakc.hci
                0x0000000000000000        0x8 ..\..\libs\ble\libbtstack_central.a(hci_cmd.o)
 .rodata.stack.hci_send.ch
                0x0000000000000000        0x8 ..\..\libs\ble\libbtstack_central.a(hci_cmd.o)
 .rodata.stack.hci_send.chm
                0x0000000000000000        0x8 ..\..\libs\ble\libbtstack_central.a(hci_cmd.o)
 .rodata.stack.hci_send.featrue
                0x0000000000000000        0x8 ..\..\libs\ble\libbtstack_central.a(hci_cmd.o)
 .rodata.stack.hci_send.len
                0x0000000000000000       0x10 ..\..\libs\ble\libbtstack_central.a(hci_cmd.o)
 .rodata.stack.hci_send.read_sugg_len
                0x0000000000000000        0x8 ..\..\libs\ble\libbtstack_central.a(hci_cmd.o)
 .rodata.stack.hci_send.rx_test
                0x0000000000000000        0x8 ..\..\libs\ble\libbtstack_central.a(hci_cmd.o)
 .rodata.stack.hci_send.set_len
                0x0000000000000000        0x8 ..\..\libs\ble\libbtstack_central.a(hci_cmd.o)
 .rodata.stack.hci_send.sup_sta
                0x0000000000000000        0x8 ..\..\libs\ble\libbtstack_central.a(hci_cmd.o)
 .rodata.stack.hci_send.test_end
                0x0000000000000000        0x8 ..\..\libs\ble\libbtstack_central.a(hci_cmd.o)
 .rodata.stack.hci_send.tx_test
                0x0000000000000000        0x8 ..\..\libs\ble\libbtstack_central.a(hci_cmd.o)
 .srodata       0x0000000000000000        0x8 ..\..\libs\ble\libbtstack_central.a(hci_cmd.o)
 .data          0x0000000000000000        0x0 ..\..\libs\ble\libbtstack_central.a(btstack_run_loop.o)
 .bss           0x0000000000000000        0x0 ..\..\libs\ble\libbtstack_central.a(btstack_run_loop.o)
 .com_text.stack.api
                0x0000000000000000        0xc ..\..\libs\ble\libbtstack_central.a(btstack_run_loop.o)
 .data          0x0000000000000000        0x0 ..\..\libs\ble\libbtstack_central.a(btstack_memory.o)
 .text.stack.memory
                0x0000000000000000       0x12 ..\..\libs\ble\libbtstack_central.a(btstack_memory.o)
 .text          0x0000000000000000       0x24 ..\..\libs\ble\libbtstack_central.a(gatt_server.o)
 .data          0x0000000000000000        0x0 ..\..\libs\ble\libbtstack_central.a(gatt_server.o)
 .bss           0x0000000000000000        0x0 ..\..\libs\ble\libbtstack_central.a(gatt_server.o)
 .text.stack.send.ntf_do
                0x0000000000000000       0x62 ..\..\libs\ble\libbtstack_central.a(gatt_server.o)
 .text.stack.send.ntf
                0x0000000000000000       0x4e ..\..\libs\ble\libbtstack_central.a(gatt_server.o)
 .text.ble.indicate
                0x0000000000000000       0xae ..\..\libs\ble\libbtstack_central.a(gatt_server.o)
 .text.stack.send.ntf_kick
                0x0000000000000000        0x8 ..\..\libs\ble\libbtstack_central.a(gatt_server.o)
 .text.stack.send.server
                0x0000000000000000       0xac ..\..\libs\ble\libbtstack_central.a(gatt_server.o)
 .text          0x0000000000000000       0x48 ..\..\libs\ble\libbtstack_central.a(hci_transport_h3_controller.o)
 .data          0x0000000000000000        0x0 ..\..\libs\ble\libbtstack_central.a(hci_transport_h3_controller.o)
 .bss           0x0000000000000000       0x20 ..\..\libs\ble\libbtstack_central.a(hci_transport_h3_controller.o)
 .text.stack.h3c
                0x0000000000000000      0x1ac ..\..\libs\ble\libbtstack_central.a(hci_transport_h3_controller.o)
 .com_text.stack.h3c
                0x0000000000000000       0x48 ..\..\libs\ble\libbtstack_central.a(hci_transport_h3_controller.o)
 .rodata.str1.4
                0x0000000000000000       0x16 ..\..\libs\ble\libbtstack_central.a(hci_transport_h3_controller.o)
 .com_text.stack.util
                0x0000000000000000      0x12e ..\..\libs\ble\libbtstack_central.a(hci_transport_h3_controller.o)
 .text.btstack.hci.h3c.init
                0x0000000000000000       0x12 ..\..\libs\ble\libbtstack_central.a(hci_transport_h3_controller.o)
 .rodata        0x0000000000000000       0x20 ..\..\libs\ble\libbtstack_central.a(hci_transport_h3_controller.o)
 .com_rodata.stack.h3
                0x0000000000000000        0x2 ..\..\libs\ble\libbtstack_central.a(hci_transport_h3_controller.o)
 .hci.h3.huart  0x0000000000000000      0x408 ..\..\libs\ble\libbtstack_central.a(hci_transport_h3_controller.o)
 .sbss          0x0000000000000000       0x1c ..\..\libs\ble\libbtstack_central.a(hci_transport_h3_controller.o)
 .data          0x0000000000000000        0x0 ..\..\libs\ble\libbtstack_central.a(hci_transport_dummy.o)
 .bss           0x0000000000000000        0x0 ..\..\libs\ble\libbtstack_central.a(hci_transport_dummy.o)
 .data          0x0000000000000000        0x0 ..\..\libs\ble\libbtstack_central.a(btstack_main.o)
 .bss           0x0000000000000000        0x0 ..\..\libs\ble\libbtstack_central.a(btstack_main.o)
 .data          0x0000000000000000        0x0 ..\..\libs\ble\libbtstack_central.a(btstack_hal.o)
 .bss           0x0000000000000000        0x0 ..\..\libs\ble\libbtstack_central.a(btstack_hal.o)
 .com_text.stack.uart_isr
                0x0000000000000000       0x6c ..\..\libs\ble\libbtstack_central.a(btstack_hal.o)
 .text.stack.hal
                0x0000000000000000       0xa4 ..\..\libs\ble\libbtstack_central.a(btstack_hal.o)
 .com_text.stack.util
                0x0000000000000000       0x12 ..\..\libs\ble\libbtstack_central.a(btstack_hal.o)
 .sbss          0x0000000000000000        0x8 ..\..\libs\ble\libbtstack_central.a(btstack_hal.o)
 .data          0x0000000000000000        0x0 ..\..\libs\ble\libbtstack_central.a(nanos.o)
 .bss           0x0000000000000000        0x0 ..\..\libs\ble\libbtstack_central.a(nanos.o)
 .com_text.md.nanos.ms
                0x0000000000000000       0x3c ..\..\libs\ble\libbtstack_central.a(nanos.o)
 .data          0x0000000000000000        0x0 ..\..\libs\ble\libbtstack_central.a(bb_sche.o)
 .data          0x0000000000000000        0x0 ..\..\libs\ble\libbtstack_central.a(patch.o)
 .bss           0x0000000000000000        0x0 ..\..\libs\ble\libbtstack_central.a(patch.o)
 .text          0x0000000000000000        0x0 ..\..\libs\ble\libbtstack_central.a(bb_dbg.o)
 .data          0x0000000000000000        0x0 ..\..\libs\ble\libbtstack_central.a(bb_dbg.o)
 .bss           0x0000000000000000        0x0 ..\..\libs\ble\libbtstack_central.a(bb_dbg.o)
 .com_text.spi_init
                0x0000000000000000       0x6c ..\..\libs\ble\libbtstack_central.a(bb_dbg.o)
 .com_text.bb.putc
                0x0000000000000000       0x64 ..\..\libs\ble\libbtstack_central.a(bb_dbg.o)
 .data          0x0000000000000000        0x0 ..\..\libs\ble\libbtstack_central.a(bb_clk.o)
 .bss           0x0000000000000000        0x0 ..\..\libs\ble\libbtstack_central.a(bb_clk.o)
 .text          0x0000000000000000        0x0 ..\..\libs\ble\libbtstack_central.a(aes.o)
 .data          0x0000000000000000        0x0 ..\..\libs\ble\libbtstack_central.a(aes.o)
 .data          0x0000000000000000        0x0 ..\..\libs\ble\libbtstack_central.a(extern.o)
 .bss           0x0000000000000000        0x0 ..\..\libs\ble\libbtstack_central.a(extern.o)
 .text.bsp.param
                0x0000000000000000        0x2 ..\..\libs\ble\libbtstack_central.a(extern.o)
 .com_sleep.sleep
                0x0000000000000000        0x2 ..\..\libs\ble\libbtstack_central.a(extern.o)
 .com_text.ble.phy
                0x0000000000000000        0x4 ..\..\libs\ble\libbtstack_central.a(extern.o)
 .data          0x0000000000000000        0x0 ..\..\libs\ble\libbtstack_central.a(vs.o)
 .bss           0x0000000000000000        0x0 ..\..\libs\ble\libbtstack_central.a(vs.o)
 .data          0x0000000000000000        0x0 ..\..\libs\ble\libbtstack_central.a(rf_xbox.o)
 .bss           0x0000000000000000        0x0 ..\..\libs\ble\libbtstack_central.a(rf_xbox.o)
 .text.rf.tx_pwr.set
                0x0000000000000000       0xea ..\..\libs\ble\libbtstack_central.a(rf_xbox.o)
 .text.bb.phy.rx
                0x0000000000000000       0x3e ..\..\libs\ble\libbtstack_central.a(rf_xbox.o)
 .text.rf.vddvco.set
                0x0000000000000000       0x18 ..\..\libs\ble\libbtstack_central.a(rf_xbox.o)
 .text.rf.vddvco.get
                0x0000000000000000        0xa ..\..\libs\ble\libbtstack_central.a(rf_xbox.o)
 .text.rf.pll.set
                0x0000000000000000       0x12 ..\..\libs\ble\libbtstack_central.a(rf_xbox.o)
 .text.rf.tx_pwr.set_2
                0x0000000000000000        0x8 ..\..\libs\ble\libbtstack_central.a(rf_xbox.o)
 .data          0x0000000000000000        0x0 ..\..\libs\ble\libbtstack_central.a(complex.o)
 .bss           0x0000000000000000        0x0 ..\..\libs\ble\libbtstack_central.a(complex.o)
 .data          0x0000000000000000        0x0 ..\..\libs\ble\libbtstack_central.a(scan_hook.o)
 .bss           0x0000000000000000        0x0 ..\..\libs\ble\libbtstack_central.a(scan_hook.o)
 .data          0x0000000000000000        0x0 ..\..\libs\ble\libbtstack_central.a(ble_hook.o)
 .bss           0x0000000000000000        0x0 ..\..\libs\ble\libbtstack_central.a(ble_hook.o)
 .data          0x0000000000000000        0x0 ..\..\libs\ble\libbtstack_central.a(mgr_test.o)
 .bss           0x0000000000000000        0x0 ..\..\libs\ble\libbtstack_central.a(mgr_test.o)
 .data          0x0000000000000000        0x0 ..\..\libs\ble\libbtstack_central.a(mgr_proc.o)
 .bss           0x0000000000000000        0x0 ..\..\libs\ble\libbtstack_central.a(mgr_proc.o)
 .data          0x0000000000000000        0x0 ..\..\libs\ble\libbtstack_central.a(mgr_init.o)
 .bss           0x0000000000000000        0x0 ..\..\libs\ble\libbtstack_central.a(mgr_init.o)
 .data          0x0000000000000000        0x0 ..\..\libs\ble\libbtstack_central.a(ll_con_upd.o)
 .bss           0x0000000000000000        0x0 ..\..\libs\ble\libbtstack_central.a(ll_con_upd.o)
 .data          0x0000000000000000        0x0 ..\..\libs\ble\libbtstack_central.a(ll_cntl.o)
 .bss           0x0000000000000000        0x0 ..\..\libs\ble\libbtstack_central.a(ll_cntl.o)
 .text          0x0000000000000000        0x0 ..\..\libs\ble\libbtstack_central.a(ll_clk_acc.o)
 .data          0x0000000000000000        0x0 ..\..\libs\ble\libbtstack_central.a(ll_clk_acc.o)
 .bss           0x0000000000000000        0x0 ..\..\libs\ble\libbtstack_central.a(ll_clk_acc.o)
 .data          0x0000000000000000        0x0 ..\..\libs\ble\libbtstack_central.a(ll_chmap_upd.o)
 .bss           0x0000000000000000        0x0 ..\..\libs\ble\libbtstack_central.a(ll_chmap_upd.o)
 .text          0x0000000000000000        0x0 ..\..\libs\ble\libbtstack_central.a(ll.o)
 .data          0x0000000000000000        0x0 ..\..\libs\ble\libbtstack_central.a(ll.o)
 .bss           0x0000000000000000        0x0 ..\..\libs\ble\libbtstack_central.a(ll.o)
 .data          0x0000000000000000        0x0 ..\..\libs\ble\libbtstack_central.a(ble_test.o)
 .bss           0x0000000000000000        0x0 ..\..\libs\ble\libbtstack_central.a(ble_test.o)
 .data          0x0000000000000000        0x0 ..\..\libs\ble\libbtstack_central.a(ble_init.o)
 .bss           0x0000000000000000        0x0 ..\..\libs\ble\libbtstack_central.a(ble_init.o)
 .com_rodata.bb.tbl
                0x0000000000000000        0x8 ..\..\libs\ble\libbtstack_central.a(ble_init.o)
 .data          0x0000000000000000        0x0 ..\..\libs\ble\libbtstack_central.a(ble.o)
 .bss           0x0000000000000000        0x0 ..\..\libs\ble\libbtstack_central.a(ble.o)
 .text          0x0000000000000000        0x0 ..\..\libs\ble\libbtstack_central.a(bb_sleep.o)
 .data          0x0000000000000000        0x0 ..\..\libs\ble\libbtstack_central.a(bb_sleep.o)
 .bss           0x0000000000000000        0x0 ..\..\libs\ble\libbtstack_central.a(bb_sleep.o)
 .text          0x0000000000000000        0x0 ..\..\libs\ble\libbtstack_central.a(periph.o)
 .data          0x0000000000000000        0x0 ..\..\libs\ble\libbtstack_central.a(periph.o)
 .bss           0x0000000000000000        0x0 ..\..\libs\ble\libbtstack_central.a(periph.o)
 .text.huart    0x0000000000000000        0x4 ..\..\libs\ble\libbtstack_central.a(periph.o)
 .com_text.huart
                0x0000000000000000       0x10 ..\..\libs\ble\libbtstack_central.a(periph.o)
 .comment       0x0000000000000000       0x13 ..\..\libs\ble\libbtstack_central.a(periph.o)
 .riscv.attributes
                0x0000000000000000       0x32 ..\..\libs\ble\libbtstack_central.a(periph.o)
 .text          0x0000000000000000        0x0 ..\..\libs\ble\libbtstack_central.a(l2cap_signaling.o)
 .data          0x0000000000000000        0x0 ..\..\libs\ble\libbtstack_central.a(l2cap_signaling.o)
 .bss           0x0000000000000000        0x0 ..\..\libs\ble\libbtstack_central.a(l2cap_signaling.o)
 .text          0x0000000000000000        0x0 ..\..\libs\ble\libbtstack_central.a(btstack_memory_pool.o)
 .data          0x0000000000000000        0x0 ..\..\libs\ble\libbtstack_central.a(btstack_memory_pool.o)
 .bss           0x0000000000000000        0x0 ..\..\libs\ble\libbtstack_central.a(btstack_memory_pool.o)
 .text          0x0000000000000000        0x0 ..\..\libs\ble\libbtstack_central.a(patch_asm.o)
 .data          0x0000000000000000        0x0 ..\..\libs\ble\libbtstack_central.a(patch_asm.o)
 .bss           0x0000000000000000        0x0 ..\..\libs\ble\libbtstack_central.a(patch_asm.o)
 .text          0x0000000000000000        0x0 ..\..\libs\ble\libbtstack_central.a(platform.o)
 .data          0x0000000000000000        0x0 ..\..\libs\ble\libbtstack_central.a(platform.o)
 .bss           0x0000000000000000        0x0 ..\..\libs\ble\libbtstack_central.a(platform.o)
 .com_text.bb.dbg.bt21
                0x0000000000000000        0x4 ..\..\libs\ble\libbtstack_central.a(platform.o)
 .com_text.bb.utils.dummy
                0x0000000000000000        0x6 ..\..\libs\ble\libbtstack_central.a(platform.o)
 .data          0x0000000000000000        0x0 ..\..\libs\ble\libbtstack_central.a(vs_proc.o)
 .bss           0x0000000000000000        0x0 ..\..\libs\ble\libbtstack_central.a(vs_proc.o)
 .text          0x0000000000000000        0x0 ..\..\libs\ble\libbtstack_central.a(vs_fcc.o)
 .data          0x0000000000000000        0x0 ..\..\libs\ble\libbtstack_central.a(vs_fcc.o)
 .bss           0x0000000000000000        0x0 ..\..\libs\ble\libbtstack_central.a(vs_fcc.o)
 .data          0x0000000000000000        0x0 ..\..\libs\ble\libbtstack_central.a(ll_version.o)
 .bss           0x0000000000000000        0x0 ..\..\libs\ble\libbtstack_central.a(ll_version.o)
 .data          0x0000000000000000        0x0 ..\..\libs\ble\libbtstack_central.a(ll_proc.o)
 .bss           0x0000000000000000        0x0 ..\..\libs\ble\libbtstack_central.a(ll_proc.o)
 .data          0x0000000000000000        0x0 ..\..\libs\ble\libbtstack_central.a(ll_ping.o)
 .bss           0x0000000000000000        0x0 ..\..\libs\ble\libbtstack_central.a(ll_ping.o)
 .data          0x0000000000000000        0x0 ..\..\libs\ble\libbtstack_central.a(ll_phy_upd.o)
 .bss           0x0000000000000000        0x0 ..\..\libs\ble\libbtstack_central.a(ll_phy_upd.o)
 .data          0x0000000000000000        0x0 ..\..\libs\ble\libbtstack_central.a(ll_length.o)
 .bss           0x0000000000000000        0x0 ..\..\libs\ble\libbtstack_central.a(ll_length.o)
 .data          0x0000000000000000        0x0 ..\..\libs\ble\libbtstack_central.a(ll_feature.o)
 .bss           0x0000000000000000        0x0 ..\..\libs\ble\libbtstack_central.a(ll_feature.o)
 .data          0x0000000000000000        0x0 ..\..\libs\ble\libbtstack_central.a(ll_encrypt.o)
 .bss           0x0000000000000000        0x0 ..\..\libs\ble\libbtstack_central.a(ll_encrypt.o)
 .data          0x0000000000000000        0x0 ..\..\libs\ble\libbtstack_central.a(ll_disconnect.o)
 .bss           0x0000000000000000        0x0 ..\..\libs\ble\libbtstack_central.a(ll_disconnect.o)
 .data          0x0000000000000000        0x0 ..\..\libs\ble\libbtstack_central.a(ble_sync.o)
 .bss           0x0000000000000000        0x0 ..\..\libs\ble\libbtstack_central.a(ble_sync.o)

Memory Configuration

Name             Origin             Length             Attributes
init             0x0000000010000000 0x0000000000000200
flash            0x0000000010000200 0x000000000003e000 xr
stack            0x0000000000010800 0x0000000000000400
sram             0x0000000000010c00 0x0000000000007400
bram             0x0000000000018000 0x0000000000008000
*default*        0x0000000000000000 0xffffffffffffffff

Linker script and memory map

LOAD Output\obj\driver\driver_adv_timer.o
LOAD Output\obj\driver\driver_charge.o
LOAD Output\obj\driver\driver_clk.o
LOAD Output\obj\driver\driver_gpio.o
LOAD Output\obj\driver\driver_hsuart.o
LOAD Output\obj\driver\driver_iic.o
LOAD Output\obj\driver\driver_irrx.o
LOAD Output\obj\driver\driver_irtx.o
LOAD Output\obj\driver\driver_keyscan.o
LOAD Output\obj\driver\driver_ledc.o
LOAD Output\obj\driver\driver_lowpwr.o
LOAD Output\obj\driver\driver_lpwm.o
LOAD Output\obj\driver\driver_qdec.o
LOAD Output\obj\driver\driver_rtc.o
LOAD Output\obj\driver\driver_saradc.o
LOAD Output\obj\driver\driver_sdadc.o
LOAD Output\obj\driver\driver_sddac.o
LOAD Output\obj\driver\driver_spi.o
LOAD Output\obj\driver\driver_tmr.o
LOAD Output\obj\driver\driver_touch_key.o
LOAD Output\obj\driver\driver_uart.o
LOAD Output\obj\driver\driver_wdt.o
LOAD Output\obj\modules\utils\utils_ring_buffer.o
LOAD Output\obj\project\ble_central\app\func.o
LOAD Output\obj\project\ble_central\app\func_bt.o
LOAD Output\obj\project\ble_central\app\func_idle.o
LOAD Output\obj\project\ble_central\app\func_iodm.o
LOAD Output\obj\project\ble_central\app\func_le_bqb_rf.o
LOAD Output\obj\project\ble_central\app\func_le_fcc.o
LOAD Output\obj\project\ble_central\app\func_lowpwr.o
LOAD Output\obj\project\ble_central\app\msg_bt.o
LOAD Output\obj\project\ble_central\app\msg_idle.o
LOAD Output\obj\project\ble_central\app\msg_iodm.o
LOAD Output\obj\project\ble_central\app\msg_le_bqb_rf.o
LOAD Output\obj\project\ble_central\app\msg_le_fcc.o
LOAD Output\obj\project\ble_central\ble\ble_client.o
LOAD Output\obj\project\ble_central\ble\ble_init.o
LOAD Output\obj\project\ble_central\ble\ble_service.o
LOAD Output\obj\project\ble_central\bsp\bsp_charge.o
LOAD Output\obj\project\ble_central\bsp\bsp_huart.o
LOAD Output\obj\project\ble_central\bsp\bsp_huart_iodm.o
LOAD Output\obj\project\ble_central\bsp\bsp_io_key.o
LOAD Output\obj\project\ble_central\bsp\bsp_key.o
LOAD Output\obj\project\ble_central\bsp\bsp_param.o
LOAD Output\obj\project\ble_central\bsp\bsp_saradc.o
LOAD Output\obj\project\ble_central\bsp\bsp_saradc_key.o
LOAD Output\obj\project\ble_central\bsp\bsp_saradc_vbat.o
LOAD Output\obj\project\ble_central\bsp\bsp_sys.o
LOAD Output\obj\project\ble_central\bsp\bsp_touch_key.o
LOAD Output\obj\project\ble_central\bsp\bsp_uart_debug.o
LOAD Output\obj\project\ble_central\main.o
LOAD Output\obj\project\ble_central\production_test\prod_test.o
LOAD Output\obj\project\ble_central\production_test\prod_test_iodm.o
LOAD Output\obj\project\ble_central\strong_symbol.o
                0x000000000003e000                __max_flash_size = 0x3e000
                0x0000000010000000                __base = 0x10000000
                0x0000000000010600                __cache_stack_vma = 0x10600
                0x0000000000000200                __cache_stack_size = 0x200
                0x0000000000010800                __stack_vma = 0x10800
                0x0000000000000400                __stack_ram_size = 0x400
                0x0000000000010c00                __sram_vma = 0x10c00
                0x0000000000007400                __sram_ram_size = 0x7400
                0x0000000000010c00                __comm_vma = __sram_vma
                0x0000000000018000                __bram_vma = 0x18000
                0x0000000000008000                __bram_ram_size = 0x8000

.init           0x0000000010000000       0x4e
 *(.reset)
 .reset         0x0000000010000000       0x4e ..\..\libs\cpu\libplatform.a(reset.o)
                0x0000000010000000                _start

.comm           0x0000000000010c00     0x3000 load address 0x0000000010000200
 *(.vector)
 .vector        0x0000000000010c00      0x19a ..\..\libs\cpu\libplatform.a(reset.o)
                0x0000000000010ca0                _exception_isr
                0x0000000000010ca2                nop_isr
 *(.com_text*)
 .com_text.pwroff.mode2
                0x0000000000010d9a      0x13e Output\obj\driver\driver_lowpwr.o
 .com_text.lp_port_init
                0x0000000000010ed8       0x32 Output\obj\driver\driver_lowpwr.o
                0x0000000000010ed8                lp_port_init
 .com_text.pwroff_mode2
                0x0000000000010f0a       0x84 Output\obj\driver\driver_lowpwr.o
                0x0000000000010f0a                lowpwr_pwroff_mode2_do
 .com_text.gpio.isr
                0x0000000000010f8e       0x2e Output\obj\project\ble_central\app\func_lowpwr.o
                0x0000000000010f8e                gpio_isr_callback
 .com_text.sleep_tick
                0x0000000000010fbc       0x14 Output\obj\project\ble_central\app\func_lowpwr.o
                0x0000000000010fbc                lowpwr_tout_ticks
 .com_text.key.scan
                0x0000000000010fd0       0x10 Output\obj\project\ble_central\bsp\bsp_io_key.o
                0x0000000000010fd0                bsp_get_io_key_id
 .com_text.key.process
                0x0000000000010fe0       0x9e Output\obj\project\ble_central\bsp\bsp_key.o
                0x0000000000010fe0                key_process
 .com_text.key.scan
                0x000000000001107e       0x3c Output\obj\project\ble_central\bsp\bsp_key.o
                0x000000000001107e                bsp_key_scan
 .com_text.key.set.power_on
                0x00000000000110ba        0x8 Output\obj\project\ble_central\bsp\bsp_key.o
                0x00000000000110ba                bsp_key_set_power_on_flag
 .com_text.timer
                0x00000000000110c2       0x52 Output\obj\project\ble_central\bsp\bsp_sys.o
                0x00000000000110c2                usr_tmr5ms_thread_do
 .com_text.spiflash
                0x0000000000011114       0x38 Output\obj\project\ble_central\strong_symbol.o
                0x0000000000011114                spiflash_data_protect_en
                0x0000000000011118                os_spiflash_addr_check
 .com_text.spiflash.protect.strong
                0x000000000001114c        0x6 Output\obj\project\ble_central\strong_symbol.o
                0x000000000001114c                os_spiflash_data_protect
                0x000000000001114e                os_spiflash_data_is_protect
 .com_text.timer
                0x0000000000011152        0x2 Output\obj\project\ble_central\strong_symbol.o
                0x0000000000011152                usr_tmr5ms_thread_callback
 .com_text.ble.phy
                0x0000000000011154        0x4 Output\obj\project\ble_central\strong_symbol.o
                0x0000000000011154                ble_phy_2M_enable
 .com_text.spiflash.dev_id
                0x0000000000011158       0x34 ..\..\libs\cpu\libplatform.a(os_flash.o)
                0x0000000000011158                os_spiflash_cap_id_get
 .com_text.spiflash.read
                0x000000000001118c       0x30 ..\..\libs\cpu\libplatform.a(os_flash.o)
                0x000000000001118c                os_spiflash_read
 .com_text.spiflash
                0x00000000000111bc       0xe0 ..\..\libs\cpu\libplatform.a(os_flash.o)
                0x00000000000111c0                os_spiflash_addr_check_2
                0x00000000000111d8                os_spiflash_program
                0x0000000000011222                os_spiflash_program_2
                0x000000000001125c                os_spiflash_erase
 .com_text.exception.hook
                0x000000000001129c       0x3e ..\..\libs\cpu\libplatform.a(main.o)
                0x000000000001129c                sys_error_hook
 .com_text.exception
                0x00000000000112da       0x7e ..\..\libs\cpu\libplatform.a(main.o)
                0x00000000000112da                exception_isr
 .com_text.delay
                0x0000000000011358       0x54 ..\..\libs\cpu\libplatform.a(main.o)
                0x0000000000011358                delay_5ms
                0x0000000000011372                delay_ms
                0x000000000001138a                delay_us
                0x00000000000113a2                delay
 .com_text.irq  0x00000000000113ac       0xe2 ..\..\libs\cpu\libplatform.a(interrupt.o)
                0x00000000000113ac                tick0_isr
                0x000000000001140a                register_isr
                0x0000000000011444                tick_get
                0x000000000001144c                tick_check_expire
                0x000000000001145e                watch_point_isr
 .com_text.timer
                0x000000000001148e        0xe ..\..\libs\cpu\libplatform.a(startup.o)
 .com_text.trim.core_get
                0x000000000001149c        0x8 ..\..\libs\cpu\libplatform.a(pmu.o)
                0x000000000001149c                pmu_get_vddcore
 .com_text.trim.lvd_set
                0x00000000000114a4       0x2c ..\..\libs\cpu\libplatform.a(pmu.o)
                0x00000000000114a4                pmu_set_lvd
 .com_text.pmu.flash
                0x00000000000114d0        0xc ..\..\libs\cpu\libplatform.a(pmu.o)
                0x00000000000114d0                pmu_vddio_to_flash
 .com_text.irq  0x00000000000114dc       0x52 ..\..\libs\cpu\libplatform.a(reset.o)
                0x00000000000114dc                cpu_irq_comm
 .com_text.util.isr
                0x000000000001152e        0x6 ..\..\libs\cpu\libplatform.a(reset.o)
                0x000000000001152e                kick_soft_isr
 .com_text.spiflash.delay
                0x0000000000011534        0xc ..\..\libs\cpu\libplatform.a(spiflash.o)
                0x0000000000011534                spi_delay
 .com_text.spiflash.get
                0x0000000000011540       0x28 ..\..\libs\cpu\libplatform.a(spiflash.o)
                0x0000000000011540                spi_getbyte
 .com_text.spiflash.send
                0x0000000000011568       0x1a ..\..\libs\cpu\libplatform.a(spiflash.o)
                0x0000000000011568                spi_sendbyte
 .com_text.spiflash.read
                0x0000000000011582        0x4 ..\..\libs\cpu\libplatform.a(spiflash.o)
                0x0000000000011582                spiflash_read
 .com_text.spiflash.program
                0x0000000000011586       0x24 ..\..\libs\cpu\libplatform.a(spiflash.o)
                0x0000000000011586                spiflash_program
 .com_text.spiflash.erase
                0x00000000000115aa       0x28 ..\..\libs\cpu\libplatform.a(spiflash.o)
                0x00000000000115aa                spiflash_erase
 .com_text.spiflash.addr.size
                0x00000000000115d2        0x4 ..\..\libs\cpu\libplatform.a(spiflash.o)
                0x00000000000115d2                spiflash_addr_4byte
 .com_text.debug
                0x00000000000115d6       0x68 ..\..\libs\cpu\libplatform.a(debug.o)
 .com_text.key_return
                0x000000000001163e       0x30 ..\..\libs\cpu\libplatform.a(key.o)
                0x000000000001163e                check_key_return
 .com_text.bsp.key
                0x000000000001166e        0xa ..\..\libs\cpu\libplatform.a(key.o)
                0x000000000001166e                key_multi_press_process
 .com_text.sys  0x0000000000011678       0x68 ..\..\libs\cpu\libplatform.a(s_sys.o)
                0x0000000000011678                s_ff1
                0x000000000001167e                s_fl1
                0x0000000000011684                s_log2
                0x000000000001168c                s_clb
                0x0000000000011692                s_bcnt
                0x0000000000011698                s_ror
                0x000000000001169e                s_swapw
                0x00000000000116a4                s_bitrvti
                0x00000000000116aa                s_clip16
                0x00000000000116b0                s_abs
                0x00000000000116b6                mul_r
                0x00000000000116c2                dummy_func
                0x00000000000116c4                __ashrdi3
                0x00000000000116d2                __ashldi3
 .com_text.get.vrtc24_mv
                0x00000000000116e0        0x8 ..\..\libs\cpu\libplatform.a(voltage_trim.o)
                0x00000000000116e0                pmu_get_vrtc24_mv
 .com_text.get.vbatdet
                0x00000000000116e8       0x26 ..\..\libs\cpu\libplatform.a(voltage_trim.o)
                0x00000000000116e8                pmu_get_vbatdet
 .com_text.timer
                0x000000000001170e        0x4 ..\..\libs\cpu\libplatform.a(weak_symbol.o)
                0x0000000000011710                usr_tmr1ms_isr_callback
 .com_text.stack.api
                0x0000000000011712       0x26 ..\..\libs\cpu\libplatform.a(bt.o)
                0x0000000000011712                bt_send_msg_do
 .com_text.stack.thread
                0x0000000000011738       0x32 ..\..\libs\cpu\libplatform.a(bt.o)
                0x0000000000011738                thread_btstack_pend
                0x000000000001175a                thread_btstack_post
 .com_text.stack.run_loop
                0x000000000001176a       0x64 ..\..\libs\cpu\libplatform.a(bt.o)
                0x000000000001176a                thread_btstack_entry
 .com_text.txpkt.next
                0x00000000000117ce       0x4e ..\..\libs\ble\libbtstack_central.a(txpkt.o)
                0x00000000000117ce                txpkt_next
 .com_text.txpkt.send
                0x000000000001181c      0x12a ..\..\libs\ble\libbtstack_central.a(txpkt.o)
                0x000000000001181c                txpkt_send
 .com_text.stack.send.txpkt
                0x0000000000011946       0x38 ..\..\libs\ble\libbtstack_central.a(txpkt.o)
                0x0000000000011946                txpkt_event_send
 .com_text.stack.hci.conn
                0x000000000001197e        0xa ..\..\libs\ble\libbtstack_central.a(hci.o)
                0x000000000001197e                hci_get_connections
 .com_text.stack.linked_list
                0x0000000000011988        0xa ..\..\libs\ble\libbtstack_central.a(hci.o)
                0x0000000000011988                hci_connections_get_iterator
 .com_text.stack.hci
                0x0000000000011992      0x130 ..\..\libs\ble\libbtstack_central.a(hci.o)
                0x0000000000011992                hci_connection_for_handle
                0x00000000000119c6                hci_att_connection_for_handle
                0x00000000000119d6                hci_number_free_acl_slots_for_handle
                0x00000000000119ee                hci_can_send_command_packet_now
                0x0000000000011a20                hci_can_send_acl_le_packet_now
                0x0000000000011a56                hci_can_send_prepared_acl_packet_now
                0x0000000000011a76                hci_can_send_acl_packet_now
                0x0000000000011a88                hci_is_packet_buffer_reserved
                0x0000000000011a94                hci_reserve_packet_buffer
                0x0000000000011aac                hci_release_packet_buffer
                0x0000000000011ab8                hci_get_outgoing_packet_buffer
 .com_text.stack.hci_recv
                0x0000000000011ac2        0xe ..\..\libs\ble\libbtstack_central.a(hci.o)
                0x0000000000011ac2                hci_host_recv_packet
 .com_text.stack.linked_list
                0x0000000000011ad0       0x50 ..\..\libs\ble\libbtstack_central.a(btstack_linked_list.o)
                0x0000000000011ad0                btstack_linked_list_empty
                0x0000000000011ad8                btstack_linked_list_iterator_init
                0x0000000000011ae4                btstack_linked_list_iterator_has_next
                0x0000000000011b02                btstack_linked_list_iterator_next
 .com_text.sm.event
                0x0000000000011b20       0x62 ..\..\libs\ble\libbtstack_central.a(sm.o)
 .com_text.server.req_can_send
                0x0000000000011b82       0x18 ..\..\libs\ble\libbtstack_central.a(att_server.o)
                0x0000000000011b82                att_server_request_can_send_now_event
 .com_text.att.dispatch_server
                0x0000000000011b9a        0xc ..\..\libs\ble\libbtstack_central.a(att_dispatch.o)
                0x0000000000011b9a                att_dispatch_server_request_can_send_now_event
 .com_text.stack.hcic
                0x0000000000011ba6       0x82 ..\..\libs\ble\libbtstack_central.a(hci_transport_hcic.o)
                0x0000000000011ba6                hcic_can_send_packet_now
                0x0000000000011bb4                hcic_recv_packet
 .com_text.stack.api
                0x0000000000011c28       0x80 ..\..\libs\ble\libbtstack_central.a(btstack_api.o)
                0x0000000000011c28                btstack_basic_api
                0x0000000000011c40                btstack_ctl_param_api
                0x0000000000011c62                bt_get_status
                0x0000000000011c6e                btstack_message
 .com_text.ret.bb.sleep
                0x0000000000011ca8       0x22 ..\..\libs\ble\libbtstack_central.a(btstack_api.o)
                0x0000000000011ca8                bt_is_sleep
 .com_text.ble.send_kick
                0x0000000000011cca       0x16 ..\..\libs\ble\libbtstack_central.a(ble_api.o)
                0x0000000000011cca                ble_send_kick
 .com_text.bb.isr
                0x0000000000011ce0       0x58 ..\..\libs\ble\libbtstack_central.a(rf.o)
                0x0000000000011ce0                rf_rssi_calc_dbm
                0x0000000000011cea                rf_txpwr_get_lv
                0x0000000000011d26                rf_txpwr_get_dbm
                0x0000000000011d36                rf_agc_enable
 .com_text.bb.rf
                0x0000000000011d38       0x36 ..\..\libs\ble\libbtstack_central.a(rf.o)
                0x0000000000011d38                rf_hal_init
 .com_text.bb.sleep
                0x0000000000011d6e       0x14 ..\..\libs\ble\libbtstack_central.a(hct_tl.o)
                0x0000000000011d6e                hct_queue_is_empty
 .com_text.ble.isr
                0x0000000000011d82       0x82 ..\..\libs\ble\libbtstack_central.a(ble_hal.o)
                0x0000000000011d82                ble_rxdesc_buf_ready
 .com_text.ble.isr.con.chas
                0x0000000000011e04       0x3a ..\..\libs\ble\libbtstack_central.a(ble_hal.o)
                0x0000000000011e04                ble_channel_assess
 .com_text.ble.isr.con
                0x0000000000011e3e       0x1e ..\..\libs\ble\libbtstack_central.a(ble_con.o)
 .com_text.ble.isr.con.end
                0x0000000000011e5c       0x8a ..\..\libs\ble\libbtstack_central.a(ble_con.o)
                0x0000000000011e5c                ble_con_rx_end
 .com_text.bb.buf
                0x0000000000011ee6       0x44 ..\..\libs\ble\libbtstack_central.a(ble_buf.o)
                0x0000000000011ee6                ble_buf_rx_free
 .com_text.bb.isr.timer
                0x0000000000011f2a       0xa6 ..\..\libs\ble\libbtstack_central.a(bb_int.o)
                0x0000000000011f84                bb_timer_alarm_execute
 .com_text.bb.isr
                0x0000000000011fd0      0x178 ..\..\libs\ble\libbtstack_central.a(bb_int.o)
                0x0000000000012002                bb_lpcycles_2_hus
                0x0000000000012032                bb_isr
                0x000000000001213c                bb_hal_isr
 .com_text.bb.sleep
                0x0000000000012148       0x48 ..\..\libs\ble\libbtstack_central.a(bb_int.o)
                0x0000000000012148                bb_is_sleep
 .com_text.bb.run_loop
                0x0000000000012190       0x32 ..\..\libs\ble\libbtstack_central.a(bb.o)
                0x0000000000012190                bb_run_loop
 .com_text.dummy
                0x00000000000121c2        0x6 ..\..\libs\ble\libbtstack_central.a(platform.o)
                0x00000000000121c2                dummy_void
                0x00000000000121c4                dummy_false
 .com_text.stk.l2cap.txreq
                0x00000000000121c8       0x2e ..\..\libs\ble\libbtstack_central.a(l2cap.o)
                0x00000000000121c8                l2cap_request_can_send_fix_channel_now_event
 .com_text.stack.l2cap
                0x00000000000121f6       0x16 ..\..\libs\ble\libbtstack_central.a(l2cap.o)
                0x00000000000121f6                l2cap_get_outgoing_buffer
                0x0000000000012204                l2cap_reserve_packet_buffer
                0x0000000000012208                l2cap_release_packet_buffer
 .com_text.stack.run_loop
                0x000000000001220c       0x76 ..\..\libs\ble\libbtstack_central.a(btstack_run_loop.o)
                0x000000000001220c                btstack_cmp_abs_tick
                0x0000000000012212                btstack_run_loop_execute_once
 .com_text.ret.stack.thread
                0x0000000000012282        0xc ..\..\libs\ble\libbtstack_central.a(btstack_run_loop.o)
                0x0000000000012282                btstack_run_loop_embedded_trigger
 .com_text.stack.ticks
                0x000000000001228e       0x1e ..\..\libs\ble\libbtstack_central.a(btstack_run_loop.o)
 .com_text.bb.nanos.trigger
                0x00000000000122ac        0x2 ..\..\libs\ble\libbtstack_central.a(btstack_run_loop.o)
                0x00000000000122ac                thread_nanos_task_trigger
 .com_text.server.send_req
                0x00000000000122ae       0x16 ..\..\libs\ble\libbtstack_central.a(gatt_server.o)
                0x00000000000122ae                btstack_ble_server_send_req
 .com_text.hci  0x00000000000122c4        0x4 ..\..\libs\ble\libbtstack_central.a(hci_transport_h3_controller.o)
                0x00000000000122c4                hci_is_sleep
 .com_text.stack.handler
                0x00000000000122c8       0x1e ..\..\libs\ble\libbtstack_central.a(btstack_main.o)
 .com_text.stack.ticks
                0x00000000000122e6        0xa ..\..\libs\ble\libbtstack_central.a(btstack_hal.o)
                0x00000000000122e8                sys_tick_handler
 .com_text.isr  0x00000000000122f0       0x20 ..\..\libs\ble\libbtstack_central.a(btstack_hal.o)
                0x00000000000122f0                bt_timer_isr
 .com_text.md.nanos
                0x0000000000012310       0x14 ..\..\libs\ble\libbtstack_central.a(nanos.o)
                0x0000000000012310                nanos_event_set
 .com_text.ret.bb
                0x0000000000012324        0x2 ..\..\libs\ble\libbtstack_central.a(nanos.o)
                0x0000000000012324                nanos_sleep_restore
 .com_text.bb.frag
                0x0000000000012326       0x2a ..\..\libs\ble\libbtstack_central.a(bb_sche.o)
 .com_text.bb.prog
                0x0000000000012350      0x156 ..\..\libs\ble\libbtstack_central.a(bb_sche.o)
 .com_text.bb.patch
                0x00000000000124a6       0x42 ..\..\libs\ble\libbtstack_central.a(patch.o)
                0x00000000000124a6                bb_v1_patch1_do
 .com_text.ble.isr.con.end
                0x00000000000124e8       0x18 ..\..\libs\ble\libbtstack_central.a(patch.o)
                0x00000000000124e8                bb_v1_patch2_do
 .com_text.dbg_init
                0x0000000000012500        0x2 ..\..\libs\ble\libbtstack_central.a(bb_dbg.o)
                0x0000000000012500                bb_dbg_init
 .com_text.bb.isr
                0x0000000000012502       0x1a ..\..\libs\ble\libbtstack_central.a(aes.o)
 .com_text.ble.isr
                0x000000000001251c       0x88 ..\..\libs\ble\libbtstack_central.a(ble_hook.o)
                0x000000000001251c                ble_isr_hook
 .com_text.bb.isr
                0x00000000000125a4       0x34 ..\..\libs\ble\libbtstack_central.a(ble.o)
                0x00000000000125a4                ble_isr
 .com_text.bb.patch
                0x00000000000125d8       0x34 ..\..\libs\ble\libbtstack_central.a(patch_asm.o)
                0x00000000000125d8                bb_v1_patch0
                0x00000000000125da                ll_tbox_freq_cal_patch_ret
                0x00000000000125e2                bb_v1_patch1
                0x00000000000125ee                bb_v1_patch2
                0x0000000000012608                bb_v1_patch3
 .com_text.bb.dbg.ble
                0x000000000001260c        0x4 ..\..\libs\ble\libbtstack_central.a(platform.o)
                0x000000000001260c                bb_ll_tx_cb
                0x000000000001260e                bb_ll_rx_cb
 *(.com_rodata*)
 *fill*         0x0000000000012610        0x0 
 .com_rodata.key
                0x0000000000012610        0x2 Output\obj\project\ble_central\bsp\bsp_key.o
                0x0000000000012610                allow_multiple_key_table
 *fill*         0x0000000000012612        0x2 
 .com_rodata.exception
                0x0000000000012614       0x49 ..\..\libs\cpu\libplatform.a(main.o)
 *fill*         0x000000000001265d        0x3 
 .com_rodata.irq
                0x0000000000012660       0x1b ..\..\libs\cpu\libplatform.a(interrupt.o)
                0x0000000000012660                watch_point_str
 *fill*         0x000000000001267b        0x1 
 .com_rodata.miss
                0x000000000001267c       0x29 ..\..\libs\cpu\libplatform.a(debug.o)
 *fill*         0x00000000000126a5        0x3 
 .com_rodata.multi.key
                0x00000000000126a8        0x8 ..\..\libs\cpu\libplatform.a(key.o)
                0x00000000000126a8                key_multi_tbl
 .com_rodata.hci.trans
                0x00000000000126b0       0x20 ..\..\libs\ble\libbtstack_central.a(hci_transport_hcic.o)
 .com_rodata.stack.api
                0x00000000000126d0        0xc ..\..\libs\ble\libbtstack_central.a(btstack_api.o)
                0x00000000000126d0                btstack_api_tbl
 .com_rodata.bb.tbl
                0x00000000000126dc        0x8 ..\..\libs\ble\libbtstack_central.a(rf.o)
 .com_rodata.bb.tbl
                0x00000000000126e4       0x18 ..\..\libs\ble\libbtstack_central.a(ble_buf.o)
 .com_rodata.bb.tbl
                0x00000000000126fc       0x44 ..\..\libs\ble\libbtstack_central.a(bb_utils.o)
                0x00000000000126fc                bb_rate_to_byte_dur_us
                0x0000000000012704                bb_rate_to_phy_mask
                0x0000000000012708                bb_phy_value_to_mask
                0x000000000001270c                bb_phy_mask_to_value
                0x0000000000012714                bb_phy_to_rate
                0x0000000000012718                bb_rate_to_phy
                0x0000000000012720                bb_sca2ppm
                0x0000000000012730                one_bits
 .com_rodata.bb.err
                0x0000000000012740        0xd ..\..\libs\ble\libbtstack_central.a(bb_int.o)
                0x0000000000012740                str_bb_err
 *fill*         0x000000000001274d        0x3 
 .com_rodata.bb.tbl
                0x0000000000012750       0x16 ..\..\libs\ble\libbtstack_central.a(bb.o)
                0x0000000000012750                bb_priority
 *fill*         0x0000000000012766        0x2 
 .com_rodata.bb.tbl
                0x0000000000012768        0xc ..\..\libs\ble\libbtstack_central.a(mgr_proc.o)
                0x0000000000012768                mgr_msg_env
 .com_rodata.bb.err
                0x0000000000012774        0xf ..\..\libs\ble\libbtstack_central.a(ble.o)
                0x0000000000012774                str_ble_err
 *fill*         0x0000000000012783        0x1 
 .com_rodata.bb.tbl
                0x0000000000012784        0xc ..\..\libs\ble\libbtstack_central.a(vs_proc.o)
                0x0000000000012784                vs_msg_env
 .com_rodata.bb.tbl
                0x0000000000012790        0xc ..\..\libs\ble\libbtstack_central.a(ll_proc.o)
                0x0000000000012790                ll_msg_env
 *debug.o(.rodata*)
 *(.com_sleep*)
 .com_sleep.lv2_do
                0x000000000001279c       0x84 Output\obj\driver\driver_lowpwr.o
                0x000000000001279c                lp_sleep_lv2_do
 .com_sleep.lv2_proc
                0x0000000000012820      0x2e4 Output\obj\driver\driver_lowpwr.o
                0x0000000000012820                lp_sleep_lv2_proc
                0x0000000000012964                lowpwr_sleep_lv2_proc
 .com_sleep.lv2_wakeup
                0x0000000000012b04      0x1b0 Output\obj\driver\driver_lowpwr.o
                0x0000000000012b04                lp_wakeup_lv2_proc
 .com_sleep.sleep
                0x0000000000012cb4        0x4 Output\obj\driver\driver_lowpwr.o
                0x0000000000012cb4                lowpwr_sleep_proc
 .com_sleep.lv2
                0x0000000000012cb8       0x80 Output\obj\project\ble_central\app\func_lowpwr.o
                0x0000000000012cb8                lowpwr_sleep_sfr_user_save
                0x0000000000012cf4                lowpwr_sleep_sfr_user_resume
 .com_sleep.sleep
                0x0000000000012d38        0xe Output\obj\project\ble_central\app\func_lowpwr.o
                0x0000000000012d38                sys_sleep_cb
                0x0000000000012d42                sleep_timer
 .com_sleep.lowpwr.sleep
                0x0000000000012d46       0x3e Output\obj\project\ble_central\app\func_lowpwr.o
                0x0000000000012d46                sfunc_sleep_do
 .com_sleep.sleep.rc
                0x0000000000012d84       0x4e ..\..\libs\cpu\libplatform.a(rc.o)
                0x0000000000012d84                rc_sleep_get_trim_freqcnt
 .com_sleep.lp.sleep
                0x0000000000012dd2      0x15e ..\..\libs\cpu\libplatform.a(sleep.o)
                0x0000000000012dd2                lowpwr_sleep_sfr_save
                0x0000000000012df8                lowpwr_sleep_sfr_resume
 .com_sleep.sleep
                0x0000000000012f30        0x2 ..\..\libs\ble\libbtstack_central.a(btstack_api.o)
                0x0000000000012f30                bt_sleep_proc
 .com_sleep.bb  0x0000000000012f32       0x9a ..\..\libs\ble\libbtstack_central.a(rf.o)
                0x0000000000012f32                rf_sleep
                0x0000000000012f6e                rf_wakeup
 .com_sleep.bb  0x0000000000012fcc      0x240 ..\..\libs\ble\libbtstack_central.a(bb_int.o)
                0x0000000000012fcc                bb_sleep
 .com_sleep.sleep
                0x000000000001320c        0x4 ..\..\libs\ble\libbtstack_central.a(extern.o)
                0x000000000001320c                sys_sleep_check
 .com_sleep.bb  0x0000000000013210        0x8 ..\..\libs\ble\libbtstack_central.a(bb_sche.o)
                0x0000000000013210                bb_sche_resume
 .com_sleep.bb  0x0000000000013218        0x8 ..\..\libs\ble\libbtstack_central.a(extern.o)
                0x0000000000013218                ble_sleep_duration_max_get
 .com_sleep.rfphy
                0x0000000000013220        0x4 ..\..\libs\ble\libbtstack_central.a(extern.o)
                0x0000000000013220                ble_rf_freq_bands_private
 .com_sleep.rf  0x0000000000013224      0x17c ..\..\libs\ble\libbtstack_central.a(rf_xbox.o)
                0x00000000000132f8                rfphy_deep_sleep
                0x0000000000013314                rfphy_idle
                0x0000000000013330                modem_init
 .com_sleep.rfphy
                0x00000000000133a0      0x564 ..\..\libs\ble\libbtstack_central.a(rf_xbox.o)
                0x0000000000013444                rfphy_txrx_init
                0x0000000000013594                rfphy_init
 .com_sleep.bb  0x0000000000013904       0x82 ..\..\libs\ble\libbtstack_central.a(bb_sleep.o)
                0x0000000000013904                bb_sleep_suspend
                0x0000000000013914                bb_sleep_resume
 *(.com_periph.*)
 .com_periph.charge
                0x0000000000013986       0x22 Output\obj\driver\driver_charge.o
                0x0000000000013986                charge_get_status
                0x000000000001398e                charge_detect_dc
 .com_periph.wk0.read_bit
                0x00000000000139a8        0xa Output\obj\driver\driver_gpio.o
                0x00000000000139a8                wko_io_read_bit
 .com_periph.lowpwr.sleep
                0x00000000000139b2       0x24 Output\obj\driver\driver_lowpwr.o
                0x00000000000139b2                lowpwr_is_wakeup_pending
 .com_periph.saradc.kick
                0x00000000000139d6       0x26 Output\obj\driver\driver_saradc.o
                0x00000000000139d6                saradc_kick_start
 .com_periph.saradc.get_channel
                0x00000000000139fc       0x1c Output\obj\driver\driver_saradc.o
                0x00000000000139fc                saradc_get_channel_flag
 .com_periph.saradc.get_data
                0x0000000000013a18       0x64 Output\obj\driver\driver_saradc.o
                0x0000000000013a18                saradc_get_data
 *(.data*)
 *(.sdata*)
 *fill*         0x0000000000013a7c        0x0 
 .sdata.__func__.4442
                0x0000000000013a7c        0x8 Output\obj\project\ble_central\app\func_bt.o
 .sdata         0x0000000000013a84        0x5 Output\obj\project\ble_central\ble\ble_client.o
 .sdata.charge_status_last.4588
                0x0000000000013a89        0x1 Output\obj\project\ble_central\bsp\bsp_charge.o
 .sdata.div.4659
                0x0000000000013a8a        0x1 Output\obj\project\ble_central\bsp\bsp_saradc_vbat.o
 .sdata.cfg_spiflash_speed_up_en
                0x0000000000013a8b        0x1 Output\obj\project\ble_central\strong_symbol.o
                0x0000000000013a8b                cfg_spiflash_speed_up_en
 .sdata         0x0000000000013a8c        0x2 ..\..\libs\ble\libbtstack_central.a(sm.o)
 .sdata         0x0000000000013a8e        0x1 ..\..\libs\ble\libbtstack_central.a(extern_ble.o)
                0x0000000000013a8e                cfg_bt_sniff_clk_sel
 *fill*         0x0000000000013a8f        0x1 
 .sdata         0x0000000000013a90        0xc ..\..\libs\ble\libbtstack_central.a(btstack_hal.o)
 .sdata         0x0000000000013a9c        0x1 ..\..\libs\ble\libbtstack_central.a(rf_xbox.o)
 *(.mp3_text*)
                0x0000000000013c00                . = ALIGN (0x200)
 *fill*         0x0000000000013a9d      0x163 

.flash          0x0000000010003200    0x18800
                0x0000000010003200                __code_start_app_proc = .
 *(.text.app.proc.*)
 .text.app.proc.charge
                0x0000000010003200      0x1c4 Output\obj\driver\driver_charge.o
                0x0000000010003200                charge_process
 .text.app.proc.func
                0x00000000100033c4       0x14 Output\obj\project\ble_central\app\func.o
                0x00000000100033c4                func_process
 .text.app.proc.bt
                0x00000000100033d8       0x1c Output\obj\project\ble_central\app\func_bt.o
                0x00000000100033d8                func_bt_sub_process
                0x00000000100033dc                func_bt_process
 .text.app.proc.sleep
                0x00000000100033f4      0x162 Output\obj\project\ble_central\app\func_lowpwr.o
                0x00000000100033f4                sleep_process
 .text.app.proc.msg
                0x0000000010003556        0x8 Output\obj\project\ble_central\app\msg_bt.o
                0x0000000010003556                func_bt_message
 .text.app.proc.charge
                0x000000001000355e       0xae Output\obj\project\ble_central\bsp\bsp_charge.o
                0x000000001000355e                bsp_charge_process
 .text.app.proc.saradc
                0x000000001000360c       0x2a Output\obj\project\ble_central\bsp\bsp_saradc.o
                0x000000001000360c                bsp_saradc_process
 .text.app.proc.vbat
                0x0000000010003636       0xd8 Output\obj\project\ble_central\bsp\bsp_saradc_vbat.o
                0x0000000010003636                bsp_vbat_lowpwr_detect
                0x000000001000368e                bsp_vbat_proc
 .text.app.proc.test
                0x000000001000370e        0x2 Output\obj\project\ble_central\production_test\prod_test.o
                0x000000001000370e                prod_test_process
                0x0000000010003800                . = ALIGN (0x200)
 *fill*         0x0000000010003710       0xf0 
                0x0000000010003800                __code_end_app_proc = .
                0x0000000010003800                __code_start_stack_send = .
 *(.text.stack.send.*)
 .text.stack.send.hci
                0x0000000010003800      0x290 ..\..\libs\ble\libbtstack_central.a(hci.o)
                0x00000000100038c8                hci_send_acl_packet_buffer
 .text.stack.send.hci
                0x0000000010003a90       0x92 ..\..\libs\ble\libbtstack_central.a(hci_transport_hcic.o)
                0x0000000010003a90                hcic_send_acl_segment
                0x0000000010003ac0                hcic_send_packet
 .text.stack.send.hci_tx_done
                0x0000000010003b22       0x2a ..\..\libs\ble\libbtstack_central.a(hct_tl.o)
                0x0000000010003b22                hci_tx_done
 .text.stack.send.hci
                0x0000000010003b4c       0x96 ..\..\libs\ble\libbtstack_central.a(hct_tl.o)
                0x0000000010003b4c                hci_acl_tx_data_alloc
                0x0000000010003b86                hci_acl_tx_data_received
 .text.stack.send.l2cap
                0x0000000010003be2       0x50 ..\..\libs\ble\libbtstack_central.a(l2cap.o)
                0x0000000010003be2                l2cap_send_prepared_connectionless
 .text.stack.send.acl
                0x0000000010003c32       0xbc ..\..\libs\ble\libbtstack_central.a(ll_proc.o)
                0x0000000010003c32                hci_acl_data_func
                0x0000000010003e00                . = ALIGN (0x200)
 *fill*         0x0000000010003cee      0x112 
                0x0000000010003e00                __code_end_stack_send = .
 *(.text*)
 .text.charge_init
                0x0000000010003e00       0xd0 Output\obj\driver\driver_charge.o
                0x0000000010003e00                charge_init
 .text.charge_status_update
                0x0000000010003ed0      0x140 Output\obj\driver\driver_charge.o
                0x0000000010003ed0                charge_status_update
 .text.clk_gate0_cmd
                0x0000000010004010       0x16 Output\obj\driver\driver_clk.o
                0x0000000010004010                clk_gate0_cmd
 .text.clk_saradc_clk_get
                0x0000000010004026       0x42 Output\obj\driver\driver_clk.o
                0x0000000010004026                clk_saradc_clk_get
 .text.clk_udet_clk_get
                0x0000000010004068       0x3c Output\obj\driver\driver_clk.o
                0x0000000010004068                clk_udet_clk_get
 .text.clk_uart_inc_get
                0x00000000100040a4       0x32 Output\obj\driver\driver_clk.o
                0x00000000100040a4                clk_uart_inc_get
 .text.gpio_init
                0x00000000100040d6      0x10e Output\obj\driver\driver_gpio.o
                0x00000000100040d6                gpio_init
 .text.gpio_func_mapping_config
                0x00000000100041e4       0xc6 Output\obj\driver\driver_gpio.o
                0x00000000100041e4                gpio_func_mapping_config
 .text.wko_io_config
                0x00000000100042aa       0x4e Output\obj\driver\driver_gpio.o
                0x00000000100042aa                wko_io_config
 .text.wk0_edge_capture_config
                0x00000000100042f8       0x5a Output\obj\driver\driver_gpio.o
                0x00000000100042f8                wk0_edge_capture_config
 .text.gpio_edge_capture_idx_get
                0x0000000010004352       0x4a Output\obj\driver\driver_gpio.o
                0x0000000010004352                gpio_edge_capture_idx_get
 .text.gpio_edge_capture_config
                0x000000001000439c       0xa6 Output\obj\driver\driver_gpio.o
                0x000000001000439c                gpio_edge_capture_config
 .text.gpio_edge_pic_config
                0x0000000010004442       0x26 Output\obj\driver\driver_gpio.o
                0x0000000010004442                gpio_edge_pic_config
 .text.lowpwr_get_wakeup_source
                0x0000000010004468       0xb0 Output\obj\driver\driver_lowpwr.o
                0x0000000010004468                lowpwr_get_wakeup_source
 .text.lowpwr_wakeup_disable
                0x0000000010004518       0x38 Output\obj\driver\driver_lowpwr.o
                0x0000000010004518                lowpwr_wakeup_disable
 .text.lowpwr_clr_wakeup_pending
                0x0000000010004550       0x1c Output\obj\driver\driver_lowpwr.o
                0x0000000010004550                lowpwr_clr_wakeup_pending
 .text.lowpwr_wk0_wakeup_config
                0x000000001000456c       0x6e Output\obj\driver\driver_lowpwr.o
                0x000000001000456c                lowpwr_wk0_wakeup_config
 .text.lowpwr_gpio_wakeup_config
                0x00000000100045da       0x5a Output\obj\driver\driver_lowpwr.o
                0x00000000100045da                lowpwr_gpio_wakeup_config
 .text.lowpwr_wakeup_config_do
                0x0000000010004634       0xf4 Output\obj\driver\driver_lowpwr.o
                0x0000000010004634                lowpwr_wakeup_config_do
 .text.lowpwr_wakeup_config_2
                0x0000000010004728        0x6 Output\obj\driver\driver_lowpwr.o
                0x0000000010004728                lowpwr_wakeup_config_2
 .text.lowpwr_wakeup_source_enable
                0x000000001000472e       0xb8 Output\obj\driver\driver_lowpwr.o
                0x000000001000472e                lowpwr_wakeup_source_enable
 .text.lowpwr_wakeup_source_disable
                0x00000000100047e6       0xce Output\obj\driver\driver_lowpwr.o
                0x00000000100047e6                lowpwr_wakeup_source_disable
 .text.saradc_init
                0x00000000100048b4       0x66 Output\obj\driver\driver_saradc.o
                0x00000000100048b4                saradc_init
 .text.saradc_channel_init
                0x000000001000491a      0x19e Output\obj\driver\driver_saradc.o
                0x000000001000491a                saradc_channel_init
 .text.saradc_deinit
                0x0000000010004ab8       0xbc Output\obj\driver\driver_saradc.o
                0x0000000010004ab8                saradc_deinit
 .text.saradc_cmd
                0x0000000010004b74       0x16 Output\obj\driver\driver_saradc.o
                0x0000000010004b74                saradc_cmd
 .text.uart_init
                0x0000000010004b8a       0xa0 Output\obj\driver\driver_uart.o
                0x0000000010004b8a                uart_init
 .text.uart_cmd
                0x0000000010004c2a       0x10 Output\obj\driver\driver_uart.o
                0x0000000010004c2a                uart_cmd
 .text.uart_baud_config
                0x0000000010004c3a       0x72 Output\obj\driver\driver_uart.o
                0x0000000010004c3a                uart_baud_config
 .text.func.msg
                0x0000000010004cac       0xf8 Output\obj\project\ble_central\app\func.o
                0x0000000010004cac                func_message
 .text.func     0x0000000010004da4       0x70 Output\obj\project\ble_central\app\func.o
                0x0000000010004da4                func_enter
                0x0000000010004dc2                func_exit
                0x0000000010004dcc                func_run
 .text.func.bt  0x0000000010004e14       0x6c Output\obj\project\ble_central\app\func_bt.o
                0x0000000010004e14                func_bt_init
                0x0000000010004e18                func_bt_enter
                0x0000000010004e2e                func_bt_exit
                0x0000000010004e48                func_bt
 .text.func.idle
                0x0000000010004e80       0x40 Output\obj\project\ble_central\app\func_idle.o
                0x0000000010004e80                func_idle_process
                0x0000000010004e84                func_idle
 .text.bsp_gpio_wakeup_config
                0x0000000010004ec0       0x32 Output\obj\project\ble_central\app\func_lowpwr.o
                0x0000000010004ec0                bsp_gpio_wakeup_config
 .text.lowpwr_sleep_wakeup_config
                0x0000000010004ef2       0x40 Output\obj\project\ble_central\app\func_lowpwr.o
                0x0000000010004ef2                lowpwr_sleep_wakeup_config
 .text.lowpwr_pwroff_wakeup_config
                0x0000000010004f32       0x3a Output\obj\project\ble_central\app\func_lowpwr.o
                0x0000000010004f32                lowpwr_pwroff_wakeup_config
 .text.lowpwr.pwroff
                0x0000000010004f6c       0x36 Output\obj\project\ble_central\app\func_lowpwr.o
                0x0000000010004f6c                func_pwroff
 .text.func.msg
                0x0000000010004fa2        0xc Output\obj\project\ble_central\app\msg_bt.o
                0x0000000010004fa2                func_bt_message_do
 .text.func.idle.msg
                0x0000000010004fae        0x2 Output\obj\project\ble_central\app\msg_idle.o
                0x0000000010004fae                func_idle_message
 .text.ble_att_read_callback
                0x0000000010004fb0       0x2a Output\obj\project\ble_central\ble\ble_client.o
 .text.ble_client_notify_callback
                0x0000000010004fda       0x2a Output\obj\project\ble_central\ble\ble_client.o
 .text.ble_client_event_callback
                0x0000000010005004      0x33e Output\obj\project\ble_central\ble\ble_client.o
                0x0000000010005004                ble_client_event_callback
 .text.ble_client_init
                0x0000000010005342       0x2c Output\obj\project\ble_central\ble\ble_client.o
                0x0000000010005342                ble_client_init
 .text.ble_app_proc
                0x000000001000536e        0x2 Output\obj\project\ble_central\ble\ble_client.o
                0x000000001000536e                ble_app_proc
 .text.ble_scan_en_test
                0x0000000010005370       0x2c Output\obj\project\ble_central\ble\ble_client.o
                0x0000000010005370                ble_scan_en_test
 .text.ble_write_test
                0x000000001000539c       0x6e Output\obj\project\ble_central\ble\ble_client.o
                0x000000001000539c                ble_write_test
 .text.ble_read_test
                0x000000001000540a       0x58 Output\obj\project\ble_central\ble\ble_client.o
                0x000000001000540a                ble_read_test
 .text.ble_enter_sleep_proc
                0x0000000010005462       0x4a Output\obj\project\ble_central\ble\ble_client.o
                0x0000000010005462                ble_enter_sleep_proc
 .text.ble_exit_sleep_proc
                0x00000000100054ac       0x22 Output\obj\project\ble_central\ble\ble_client.o
                0x00000000100054ac                ble_exit_sleep_proc
 .text.ble_set_work_mode
                0x00000000100054ce        0x8 Output\obj\project\ble_central\ble\ble_init.o
                0x00000000100054ce                ble_set_work_mode
 .text.ble_txpkt_init
                0x00000000100054d6       0x40 Output\obj\project\ble_central\ble\ble_init.o
                0x00000000100054d6                ble_txpkt_init
 .text.ble_sm_param_init
                0x0000000010005516        0xa Output\obj\project\ble_central\ble\ble_init.o
                0x0000000010005516                ble_sm_param_init
 .text.ble_scan_param_init
                0x0000000010005520       0x2c Output\obj\project\ble_central\ble\ble_init.o
                0x0000000010005520                ble_scan_param_init
 .text.ble_central_init
                0x000000001000554c       0x1a Output\obj\project\ble_central\ble\ble_init.o
                0x000000001000554c                ble_central_init
 .text.bsp_ble_init
                0x0000000010005566       0x1c Output\obj\project\ble_central\ble\ble_init.o
                0x0000000010005566                bsp_ble_init
 .text.bsp_charge_init
                0x0000000010005582       0x2c Output\obj\project\ble_central\bsp\bsp_charge.o
                0x0000000010005582                bsp_charge_init
 .text.bsp_io_key_init
                0x00000000100055ae        0xa Output\obj\project\ble_central\bsp\bsp_io_key.o
                0x00000000100055ae                bsp_io_key_init
 .text.bsp_key_init
                0x00000000100055b8       0x28 Output\obj\project\ble_central\bsp\bsp_key.o
                0x00000000100055b8                bsp_key_init
 .text.bsp.param
                0x00000000100055e0       0x18 Output\obj\project\ble_central\bsp\bsp_param.o
                0x00000000100055e0                bsp_param_init
                0x00000000100055ec                bsp_param_write
                0x00000000100055f0                bsp_param_read
                0x00000000100055f4                bsp_param_sync
 .text.bsp_saradc_init
                0x00000000100055f8       0x38 Output\obj\project\ble_central\bsp\bsp_saradc.o
                0x00000000100055f8                bsp_saradc_init
 .text.bsp_vbat_filter
                0x0000000010005630       0x62 Output\obj\project\ble_central\bsp\bsp_saradc_vbat.o
                0x0000000010005630                bsp_vbat_filter
 .text.bsp_vbat_detect_init
                0x0000000010005692       0x3c Output\obj\project\ble_central\bsp\bsp_saradc_vbat.o
                0x0000000010005692                bsp_vbat_detect_init
 .text.sys_ram_info_dump
                0x00000000100056ce       0x96 Output\obj\project\ble_central\bsp\bsp_sys.o
                0x00000000100056ce                sys_ram_info_dump
 .text.power_on_check
                0x0000000010005764       0x92 Output\obj\project\ble_central\bsp\bsp_sys.o
                0x0000000010005764                power_on_check
 .text.bsp.sys.init
                0x00000000100057f6       0xb6 Output\obj\project\ble_central\bsp\bsp_sys.o
                0x00000000100057f6                bsp_sys_init
 .text.bsp_periph_init
                0x00000000100058ac       0x16 Output\obj\project\ble_central\bsp\bsp_sys.o
                0x00000000100058ac                bsp_periph_init
 .text.bsp_uart_debug_init
                0x00000000100058c2       0x7c Output\obj\project\ble_central\bsp\bsp_uart_debug.o
                0x00000000100058c2                bsp_uart_debug_init
 .text.startup.main
                0x000000001000593e       0x58 Output\obj\project\ble_central\main.o
                0x000000001000593e                main
 .text.prod_test_init
                0x0000000010005996        0x2 Output\obj\project\ble_central\production_test\prod_test.o
                0x0000000010005996                prod_test_init
 .text.mem_heap_size_get
                0x0000000010005998        0x8 Output\obj\project\ble_central\strong_symbol.o
                0x0000000010005998                mem_heap_size_get
 .text.thread_cfg_get
                0x00000000100059a0        0xa Output\obj\project\ble_central\strong_symbol.o
                0x00000000100059a0                thread_cfg_get
 .text.thread_create_callback
                0x00000000100059aa        0x4 Output\obj\project\ble_central\strong_symbol.o
                0x00000000100059aa                thread_create_callback
 .text.ble_get_local_bd_addr
                0x00000000100059ae       0x14 Output\obj\project\ble_central\strong_symbol.o
                0x00000000100059ae                ble_get_local_bd_addr
 .text.bt_rf_get_param
                0x00000000100059c2       0x44 Output\obj\project\ble_central\strong_symbol.o
                0x00000000100059c2                bt_rf_get_param
 .text.bt_rf_get_tx_pwr
                0x0000000010005a06       0x1a Output\obj\project\ble_central\strong_symbol.o
                0x0000000010005a06                bt_rf_get_tx_pwr
 .text.xosc_get_xcfg
                0x0000000010005a20       0x20 Output\obj\project\ble_central\strong_symbol.o
                0x0000000010005a20                xosc_get_xcfg
 .text.param_xosc_read
                0x0000000010005a40        0x8 Output\obj\project\ble_central\strong_symbol.o
                0x0000000010005a40                param_xosc_read
 .text.hci_fcc_init
                0x0000000010005a48        0x2 Output\obj\project\ble_central\strong_symbol.o
                0x0000000010005a48                hci_fcc_init
 .text.bt_uart_isr
                0x0000000010005a4a        0x4 Output\obj\project\ble_central\strong_symbol.o
                0x0000000010005a4a                bt_uart_isr
 .text.sys_clk_change_callback
                0x0000000010005a4e       0x10 Output\obj\project\ble_central\strong_symbol.o
                0x0000000010005a4e                sys_clk_change_callback
 .text.uart_debug_init_callback
                0x0000000010005a5e        0x4 Output\obj\project\ble_central\strong_symbol.o
                0x0000000010005a5e                uart_debug_init_callback
 .text.ble_get_link_info
                0x0000000010005a62        0x6 Output\obj\project\ble_central\strong_symbol.o
                0x0000000010005a62                ble_get_link_info
 .text.ble_put_link_info
                0x0000000010005a68       0x10 Output\obj\project\ble_central\strong_symbol.o
                0x0000000010005a68                ble_put_link_info
 .text.ble_mtu_exchange_enabled
                0x0000000010005a78        0x4 Output\obj\project\ble_central\strong_symbol.o
                0x0000000010005a78                ble_mtu_exchange_enabled
 .text.ble_sm_always_accept_ltk_req
                0x0000000010005a7c        0x4 Output\obj\project\ble_central\strong_symbol.o
                0x0000000010005a7c                ble_sm_always_accept_ltk_req
 .text.ble_sm_pairing_support
                0x0000000010005a80        0x4 Output\obj\project\ble_central\strong_symbol.o
                0x0000000010005a80                ble_sm_pairing_support
 .text.ble_rx_exit_sleep
                0x0000000010005a84        0x4 Output\obj\project\ble_central\strong_symbol.o
                0x0000000010005a84                ble_rx_exit_sleep
 .text.ble_feature_exchange_enabled
                0x0000000010005a88        0x4 Output\obj\project\ble_central\strong_symbol.o
                0x0000000010005a88                ble_feature_exchange_enabled
 .text.ble_length_request_enabled
                0x0000000010005a8c        0x4 Output\obj\project\ble_central\strong_symbol.o
                0x0000000010005a8c                ble_length_request_enabled
 .text.ble_phy_update_enable
                0x0000000010005a90        0x4 Output\obj\project\ble_central\strong_symbol.o
                0x0000000010005a90                ble_phy_update_enable
 .text.cm_loadpage
                0x0000000010005a94       0xb4 ..\..\libs\cpu\libplatform.a(cm.o)
 .text.cm_next_freepage
                0x0000000010005b48       0x42 ..\..\libs\cpu\libplatform.a(cm.o)
 .text.cm_loadparam
                0x0000000010005b8a        0x4 ..\..\libs\cpu\libplatform.a(cm.o)
                0x0000000010005b8a                cm_loadparam
 .text.cm_factory
                0x0000000010005b8e        0xa ..\..\libs\cpu\libplatform.a(cm.o)
                0x0000000010005b8e                cm_factory
 .text.cm_addr_check
                0x0000000010005b98        0x4 ..\..\libs\cpu\libplatform.a(cm.o)
                0x0000000010005b98                cm_addr_check
 .text.cm_writepage
                0x0000000010005b9c       0x28 ..\..\libs\cpu\libplatform.a(cm.o)
 .text.cm_movepage
                0x0000000010005bc4       0x4e ..\..\libs\cpu\libplatform.a(cm.o)
 .text.cm_erase
                0x0000000010005c12       0x1c ..\..\libs\cpu\libplatform.a(cm.o)
 .text.cm_release
                0x0000000010005c2e       0xf6 ..\..\libs\cpu\libplatform.a(cm.o)
 .text.cm_savepage
                0x0000000010005d24       0xb6 ..\..\libs\cpu\libplatform.a(cm.o)
 .text.cm_check_loadpage
                0x0000000010005dda       0xb0 ..\..\libs\cpu\libplatform.a(cm.o)
 .text.cm_sync  0x0000000010005e8a       0x3e ..\..\libs\cpu\libplatform.a(cm.o)
                0x0000000010005e8a                cm_sync
 .text.cm_read  0x0000000010005ec8       0x44 ..\..\libs\cpu\libplatform.a(cm.o)
                0x0000000010005ec8                cm_read
 .text.cm_write
                0x0000000010005f0c       0x5e ..\..\libs\cpu\libplatform.a(cm.o)
                0x0000000010005f0c                cm_write
 .text.cm_init  0x0000000010005f6a      0x1be ..\..\libs\cpu\libplatform.a(cm.o)
                0x0000000010005f6a                cm_init
 .text.xcfg_init
                0x0000000010006128       0x54 ..\..\libs\cpu\libplatform.a(xcfg.o)
                0x0000000010006128                xcfg_init
 .text.platform_main
                0x000000001000617c      0x1ea ..\..\libs\cpu\libplatform.a(main.o)
                0x000000001000617c                platform_main
 .text.main_startup
                0x0000000010006366        0xe ..\..\libs\cpu\libplatform.a(main.o)
                0x0000000010006366                main_startup
 .text.sys_irq_init
                0x0000000010006374       0x8e ..\..\libs\cpu\libplatform.a(interrupt.o)
                0x0000000010006374                sys_irq_init
 .text.soft_irq_init
                0x0000000010006402       0x3c ..\..\libs\cpu\libplatform.a(interrupt.o)
                0x0000000010006402                soft_irq_init
 .text.bthw_irq_init
                0x000000001000643e       0x12 ..\..\libs\cpu\libplatform.a(interrupt.o)
                0x000000001000643e                bthw_irq_init
 .text.sys_timer_init
                0x0000000010006450       0x84 ..\..\libs\cpu\libplatform.a(interrupt.o)
                0x0000000010006450                sys_timer_init
 .text.thread_btstack_create
                0x00000000100064d4       0x8a ..\..\libs\cpu\libplatform.a(startup.o)
                0x00000000100064d4                thread_btstack_create
 .text.thread_main_entry
                0x000000001000655e       0x8a ..\..\libs\cpu\libplatform.a(startup.o)
 .text.startup.init
                0x00000000100065e8      0x10a ..\..\libs\cpu\libplatform.a(startup.o)
                0x00000000100065e8                platform_init
                0x00000000100065f0                sys_startup
 .text.bt_set_timer_enable
                0x00000000100066f2       0x18 ..\..\libs\cpu\libplatform.a(startup.o)
                0x00000000100066f2                bt_set_timer_enable
 .text.sys_set_tmr_enable
                0x000000001000670a       0x22 ..\..\libs\cpu\libplatform.a(startup.o)
                0x000000001000670a                sys_set_tmr_enable
 .text.sys_hook_init
                0x000000001000672c        0x2 ..\..\libs\cpu\libplatform.a(sys_hook.o)
                0x000000001000672c                sys_hook_init
 .text.pll0_vco_band_trimming
                0x000000001000672e       0x5a ..\..\libs\cpu\libplatform.a(pll.o)
                0x000000001000672e                pll0_vco_band_trimming
 .text.pll0_init
                0x0000000010006788       0xd6 ..\..\libs\cpu\libplatform.a(pll.o)
                0x0000000010006788                pll0_init
 .text.pll0_disable
                0x000000001000685e       0x48 ..\..\libs\cpu\libplatform.a(pll.o)
                0x000000001000685e                pll0_disable
 .text.pmu_set_buck_mode
                0x00000000100068a6       0x9e ..\..\libs\cpu\libplatform.a(pmu.o)
                0x00000000100068a6                pmu_set_buck_mode
 .text.pmu_voltage_configure
                0x0000000010006944       0x6a ..\..\libs\cpu\libplatform.a(pmu.o)
                0x0000000010006944                pmu_voltage_configure
 .text.pmu_init
                0x00000000100069ae      0x308 ..\..\libs\cpu\libplatform.a(pmu.o)
                0x00000000100069ae                pmu_init
 .text.sleep.rc
                0x0000000010006cb6       0x3e ..\..\libs\cpu\libplatform.a(rc.o)
                0x0000000010006cb6                rc_sleep_get_freqcnt
 .text.debug_set
                0x0000000010006cf4       0x1a ..\..\libs\cpu\libplatform.a(debug.o)
                0x0000000010006cf4                debug_set
 .text.ota_pack_is_update_success
                0x0000000010006d0e        0x8 ..\..\libs\cpu\libplatform.a(fot_pack.o)
                0x0000000010006d0e                ota_pack_is_update_success
 .text.bsp.key.init
                0x0000000010006d16       0x38 ..\..\libs\cpu\libplatform.a(key.o)
                0x0000000010006d16                multiple_key_init
 .text.lock_init
                0x0000000010006d4e       0x1c ..\..\libs\cpu\libplatform.a(lock.o)
                0x0000000010006d4e                lock_init
 .text.patch_init
                0x0000000010006d6a       0x1e ..\..\libs\cpu\libplatform.a(patch.o)
                0x0000000010006d6a                patch_init
 .text.udivmoddi4
                0x0000000010006d88       0x96 ..\..\libs\cpu\libplatform.a(sys.o)
 .text.sys_rst_init
                0x0000000010006e1e       0x7c ..\..\libs\cpu\libplatform.a(sys.o)
                0x0000000010006e1e                sys_rst_init
 .text.sys_rst_dump
                0x0000000010006e9a       0x86 ..\..\libs\cpu\libplatform.a(sys.o)
                0x0000000010006e9a                sys_rst_dump
 .text.rc2m_clk_nhz_cal
                0x0000000010006f20      0x100 ..\..\libs\cpu\libplatform.a(sys.o)
                0x0000000010006f20                rc2m_clk_nhz_cal
 .text.rc2m_clk_nhz_get
                0x0000000010007020       0x10 ..\..\libs\cpu\libplatform.a(sys.o)
                0x0000000010007020                rc2m_clk_nhz_get
 .text.sys_get_rand_key_init
                0x0000000010007030        0xa ..\..\libs\cpu\libplatform.a(sys.o)
                0x0000000010007030                sys_get_rand_key_init
 .text.xosc_init
                0x000000001000703a       0x92 ..\..\libs\cpu\libplatform.a(sys.o)
                0x000000001000703a                xosc_init
 .text.__udivdi3
                0x00000000100070cc        0x6 ..\..\libs\cpu\libplatform.a(sys.o)
                0x00000000100070cc                __udivdi3
 .text.sys_clk_cacl_curr
                0x00000000100070d2       0x28 ..\..\libs\cpu\libplatform.a(sys_clk.o)
 *fill*         0x00000000100070fa      0x106 
 .text.set_sys_clk_do
                0x0000000010007200      0x1ea ..\..\libs\cpu\libplatform.a(sys_clk.o)
                0x0000000010007200                set_sys_clk_do
 .text.sys_clk  0x00000000100073ea      0x1ec ..\..\libs\cpu\libplatform.a(sys_clk.o)
                0x00000000100073ea                sys_clk_get_cur
                0x00000000100073f2                sys_clk_set_do
 .text.sys_clk_nhz_get
                0x00000000100075d6       0x5c ..\..\libs\cpu\libplatform.a(sys_clk.o)
                0x00000000100075d6                sys_clk_nhz_get
 .text.sys_clk_get
                0x0000000010007632        0x8 ..\..\libs\cpu\libplatform.a(sys_clk.o)
                0x0000000010007632                sys_clk_get
 .text.sys_clk_set
                0x000000001000763a       0x60 ..\..\libs\cpu\libplatform.a(sys_clk.o)
                0x000000001000763a                sys_clk_set
 *fill*         0x000000001000769a        0x2 
 .text.sys_clk.table
                0x000000001000769c       0x1a ..\..\libs\cpu\libplatform.a(sys_clk.o)
                0x000000001000769c                sysclk_info_tbl
 .text.charge_const_curr_trim
                0x00000000100076b6       0x7a ..\..\libs\cpu\libplatform.a(voltage_trim.o)
                0x00000000100076b6                charge_const_curr_trim
 .text.charge_cutoff_curr_trim
                0x0000000010007730       0x6e ..\..\libs\cpu\libplatform.a(voltage_trim.o)
                0x0000000010007730                charge_cutoff_curr_trim
 .text.voltage.trim
                0x000000001000779e      0x1a2 ..\..\libs\cpu\libplatform.a(voltage_trim.o)
                0x000000001000779e                bt_get_ft_trim_value
                0x00000000100077e8                voltage_trim_value_init
 .text.xosc_24m_div_get
                0x0000000010007940        0x4 ..\..\libs\cpu\libplatform.a(weak_symbol.o)
                0x0000000010007940                xosc_24m_div_get
 .text.rf_ft_trim_dig_gain_adjust
                0x0000000010007944        0x4 ..\..\libs\cpu\libplatform.a(weak_symbol.o)
                0x0000000010007944                rf_ft_trim_dig_gain_adjust
 .text          0x0000000010007948       0x78 ..\..\libs\ble\libbtstack_central.a(txpkt.o)
                0x0000000010007948                txpkt_init
 *fill*         0x00000000100079c0       0x40 
 .text.txpkt.flush
                0x0000000010007a00       0x82 ..\..\libs\ble\libbtstack_central.a(txpkt.o)
                0x0000000010007a00                txpkt_flush
 .text          0x0000000010007a82      0x3e0 ..\..\libs\ble\libbtstack_central.a(hci.o)
                0x0000000010007a82                hci_get_state
                0x0000000010007a8c                ble_get_scan_sta
                0x0000000010007a98                hci_shutdown_connection
                0x0000000010007aba                gap_le_get_own_address
                0x0000000010007af6                hci_le_set_own_address_type
                0x0000000010007b0a                le_handle_advertisement_report
                0x0000000010007b74                hci_le_random_address_set
                0x0000000010007b9a                gap_set_connection_parameters
                0x0000000010007bb2                gap_set_ext_connection_parameters
                0x0000000010007bda                gap_get_connection_parameters
                0x0000000010007c02                gap_get_connection_parameters_for_handle
                0x0000000010007c38                gap_start_scan
                0x0000000010007c5e                gap_stop_scan
                0x0000000010007c80                gap_set_scan_parameters
                0x0000000010007c94                gap_set_scan_parameters_do
                0x0000000010007cc0                gap_set_connection_outgoing_addr
                0x0000000010007cde                gap_update_connection_parameters_do
                0x0000000010007d16                gap_update_connection_parameters
                0x0000000010007d4a                gap_advertisements_set_data
                0x0000000010007d4c                gap_scan_response_set_data
                0x0000000010007d4e                gap_advertisements_enable
                0x0000000010007d50                gap_ext_advertisements_set_data
                0x0000000010007d52                gap_ext_scan_response_set_data
                0x0000000010007d54                gap_ext_advertisements_enable
                0x0000000010007d56                gap_ext_advertisements_set_params
                0x0000000010007d58                ble_per_advertisements_set_data
                0x0000000010007d5a                ble_per_advertisements_enable
                0x0000000010007d5c                ble_per_advertisements_add_device_list
                0x0000000010007d5e                ble_per_advertisements_creat_sync
                0x0000000010007d60                ble_per_advertisements_creat_sync_cancel
                0x0000000010007d62                ble_per_advertisements_terminate_sync
                0x0000000010007d64                gap_create_connect
                0x0000000010007da2                gap_ext_create_connect
                0x0000000010007de0                gap_create_connect_cancel
                0x0000000010007e0e                gap_disconnect
                0x0000000010007e5e                hci_rx_flush
 .text.stack.hci_init
                0x0000000010007e62       0x96 ..\..\libs\ble\libbtstack_central.a(hci.o)
                0x0000000010007e82                hci_power_control
 .text.stack.handler.acl
                0x0000000010007ef8       0x16 ..\..\libs\ble\libbtstack_central.a(hci.o)
 .text.stack.setup
                0x0000000010007f0e       0xe4 ..\..\libs\ble\libbtstack_central.a(hci.o)
                0x0000000010007f72                hci_add_event_handler
                0x0000000010007f80                hci_register_acl_packet_handler
                0x0000000010007f8a                hci_init
 .text.stack.hci
                0x0000000010007ff2      0x15a ..\..\libs\ble\libbtstack_central.a(hci.o)
 .text.stack.hci.conn
                0x000000001000814c       0xf6 ..\..\libs\ble\libbtstack_central.a(hci.o)
                0x000000001000814c                get_free_hci_connection
                0x0000000010008178                create_connection_for_bd_addr_and_type
                0x00000000100081ee                hci_connection_for_bd_addr_and_type
 .text.stack.hci.conn_param_get
                0x0000000010008242       0x10 ..\..\libs\ble\libbtstack_central.a(hci.o)
                0x0000000010008242                gap_get_connection_parameter_range
 .text.ble.hci  0x0000000010008252      0x190 ..\..\libs\ble\libbtstack_central.a(hci.o)
                0x0000000010008252                ble_event_cmd_complete
                0x00000000100082c6                ble_event_meta
 .text.stack.hci_send
                0x00000000100083e2      0x128 ..\..\libs\ble\libbtstack_central.a(hci.o)
                0x00000000100083e2                hci_send_cmd_packet
                0x00000000100084b0                hci_send_cmd
 *fill*         0x000000001000850a       0xf6 
 .text.stack.hci.run
                0x0000000010008600      0x3d2 ..\..\libs\ble\libbtstack_central.a(hci.o)
 .text.stack.hci_emit
                0x00000000100089d2       0x2e ..\..\libs\ble\libbtstack_central.a(hci.o)
                0x00000000100089d2                hci_emit_state
 .text          0x0000000010008a00       0x42 ..\..\libs\ble\libbtstack_central.a(btstack_util.o)
                0x0000000010008a00                log_info_hexdump
                0x0000000010008a02                log_info_key
                0x0000000010008a04                uuid_add_bluetooth_prefix
                0x0000000010008a26                uuid_has_bluetooth_prefix
 .text.stack.util
                0x0000000010008a42      0x126 ..\..\libs\ble\libbtstack_central.a(btstack_util.o)
                0x0000000010008a42                bd_addr_cmp
                0x0000000010008a48                bd_addr_copy
                0x0000000010008a4e                big_endian_read_16
                0x0000000010008a5e                big_endian_read_32
                0x0000000010008a7e                big_endian_store_16
                0x0000000010008a92                big_endian_store_32
                0x0000000010008ac6                reverse_bytes
                0x0000000010008ae2                reverse_24
                0x0000000010008ae6                reverse_48
                0x0000000010008aea                reverse_56
                0x0000000010008aee                reverse_64
                0x0000000010008af2                reverse_128
                0x0000000010008af6                reverse_256
                0x0000000010008afc                reverse_bd_addr
                0x0000000010008afe                btstack_min
                0x0000000010008b04                btstack_max
                0x0000000010008b0a                char_for_nibble
                0x0000000010008b30                nibble_for_char
 .text.stack.hci_dump
                0x0000000010008b68       0x50 ..\..\libs\ble\libbtstack_central.a(btstack_util.o)
                0x0000000010008b68                bd_addr_to_str
 .text.stack.linked_list
                0x0000000010008bb8       0x78 ..\..\libs\ble\libbtstack_central.a(btstack_linked_list.o)
                0x0000000010008bb8                btstack_linked_list_get_last_item
                0x0000000010008bc6                btstack_linked_list_add
                0x0000000010008bda                btstack_linked_list_add_tail
                0x0000000010008bee                btstack_linked_list_remove
                0x0000000010008c06                btstack_linked_list_count
                0x0000000010008c14                btstack_linked_list_iterator_remove
                0x0000000010008c24                btstack_linked_list_pop
 .text          0x0000000010008c30      0x75c ..\..\libs\ble\libbtstack_central.a(sm.o)
 .text.sm.aes   0x000000001000938c       0x3a ..\..\libs\ble\libbtstack_central.a(sm.o)
 .text.sm.get_handle
                0x00000000100093c6       0x16 ..\..\libs\ble\libbtstack_central.a(sm.o)
 .text.sm.rau_run
                0x00000000100093dc       0x90 ..\..\libs\ble\libbtstack_central.a(sm.o)
 .text.gap.trig
                0x000000001000946c       0x18 ..\..\libs\ble\libbtstack_central.a(sm.o)
 .text.gap.rau.update
                0x0000000010009484       0x46 ..\..\libs\ble\libbtstack_central.a(sm.o)
                0x00000000100094aa                gap_random_address_update
 .text.sm.is_null
                0x00000000100094ca       0x1c ..\..\libs\ble\libbtstack_central.a(sm.o)
                0x00000000100094ca                sm_is_null
 .text.sm.hdl   0x00000000100094e6        0xc ..\..\libs\ble\libbtstack_central.a(sm.o)
                0x00000000100094e6                sm_add_event_handler
 .text.sm.er    0x00000000100094f2        0xe ..\..\libs\ble\libbtstack_central.a(sm.o)
                0x00000000100094f2                sm_set_er
 .text.sm.ir    0x0000000010009500        0xe ..\..\libs\ble\libbtstack_central.a(sm.o)
                0x0000000010009500                sm_set_ir
 .text.stack.ble.sm
                0x000000001000950e      0x13e ..\..\libs\ble\libbtstack_central.a(sm.o)
                0x000000001000950e                ble_sm_init
 .text.sm.deinit
                0x000000001000964c        0x8 ..\..\libs\ble\libbtstack_central.a(sm.o)
                0x000000001000964c                sm_deinit
 .text.sm.key_size
                0x0000000010009654       0x20 ..\..\libs\ble\libbtstack_central.a(sm.o)
                0x0000000010009654                sm_encryption_key_size
 .text.sm.auth  0x0000000010009674       0x20 ..\..\libs\ble\libbtstack_central.a(sm.o)
                0x0000000010009674                sm_authenticated
 .text.sm.request
                0x0000000010009694       0x92 ..\..\libs\ble\libbtstack_central.a(sm.o)
                0x0000000010009694                sm_send_security_request
 .text.sm.pairing
                0x0000000010009726       0x72 ..\..\libs\ble\libbtstack_central.a(sm.o)
                0x0000000010009726                sm_request_pairing
 .text.sm.confirm
                0x0000000010009798       0x26 ..\..\libs\ble\libbtstack_central.a(sm.o)
                0x0000000010009798                sm_just_works_confirm
 .text.sm.passkey.get
                0x00000000100097be       0x20 ..\..\libs\ble\libbtstack_central.a(sm.o)
                0x00000000100097be                sm_passkey_input_get
 .text.sm.passkey.input
                0x00000000100097de       0x3e ..\..\libs\ble\libbtstack_central.a(sm.o)
                0x00000000100097de                sm_passkey_input
 .text.sm.index
                0x000000001000981c       0x14 ..\..\libs\ble\libbtstack_central.a(sm.o)
                0x000000001000981c                sm_le_device_index
 .text.gap.rau.mode
                0x0000000010009830       0x54 ..\..\libs\ble\libbtstack_central.a(sm.o)
                0x0000000010009830                gap_random_address_set_mode
 .text.gap.addr
                0x0000000010009884        0x8 ..\..\libs\ble\libbtstack_central.a(sm.o)
                0x0000000010009884                gap_random_address_get_mode
 *fill*         0x000000001000988c        0x0 
 .text.sm.run   0x000000001000988c      0x8cc ..\..\libs\ble\libbtstack_central.a(sm.o)
 .text.sm.pdu   0x000000001000a158      0x2f0 ..\..\libs\ble\libbtstack_central.a(sm.o)
 .text.sm.event
                0x000000001000a448      0x874 ..\..\libs\ble\libbtstack_central.a(sm.o)
 .text.gap.rau_set
                0x000000001000acbc       0x28 ..\..\libs\ble\libbtstack_central.a(sm.o)
                0x000000001000acbc                gap_random_address_set
 .text.sm.addr  0x000000001000ace4        0xc ..\..\libs\ble\libbtstack_central.a(sm.o)
                0x000000001000ace4                gap_random_address_get
 .text.sm.reconnect
                0x000000001000acf0       0x48 ..\..\libs\ble\libbtstack_central.a(sm.o)
                0x000000001000acf0                gap_reconnect_security_setup_active
 .text          0x000000001000ad38       0x34 ..\..\libs\ble\libbtstack_central.a(le_device_db_memory.o)
                0x000000001000ad38                le_device_db_count
 .text.le.db.max
                0x000000001000ad6c        0x4 ..\..\libs\ble\libbtstack_central.a(le_device_db_memory.o)
                0x000000001000ad6c                ble_bonding_info_max_count
 .text.le.db.write
                0x000000001000ad70       0x1a ..\..\libs\ble\libbtstack_central.a(le_device_db_memory.o)
                0x000000001000ad70                le_device_db_info_save_for_index
 .text.le.db.read
                0x000000001000ad8a       0x1a ..\..\libs\ble\libbtstack_central.a(le_device_db_memory.o)
                0x000000001000ad8a                le_device_db_info_load_for_index
 .text.le.db.init
                0x000000001000ada4       0x58 ..\..\libs\ble\libbtstack_central.a(le_device_db_memory.o)
                0x000000001000ada4                le_device_db_init
 .text.le.db.remove
                0x000000001000adfc       0x8a ..\..\libs\ble\libbtstack_central.a(le_device_db_memory.o)
                0x000000001000adfc                le_device_db_remove
 .text.le.db.add
                0x000000001000ae86       0xb2 ..\..\libs\ble\libbtstack_central.a(le_device_db_memory.o)
                0x000000001000ae86                le_device_db_add
 .text.le.db    0x000000001000af38      0x158 ..\..\libs\ble\libbtstack_central.a(le_device_db_memory.o)
                0x000000001000af38                le_device_db_info
                0x000000001000af92                le_device_db_encryption_set
                0x000000001000affa                le_device_db_encryption_get
 *fill*         0x000000001000b090        0x0 
 .text          0x000000001000b090     0x1ace ..\..\libs\ble\libbtstack_central.a(gatt_client.o)
                0x000000001000b5fa                att_client_register_handler
                0x000000001000b606                gatt_client_init
                0x000000001000b7b2                gatt_client_is_ready
                0x000000001000b7ca                gatt_client_get_mtu
                0x000000001000bd32                gatt_client_listen_for_characteristic_value_updates
                0x000000001000bd50                gatt_client_write_value_of_characteristic_without_response
                0x000000001000bdea                gatt_client_write_value_of_characteristic
                0x000000001000be70                ble_service_query_result_get_service
                0x000000001000be78                ble_characteristic_query_result_get_characteristic
                0x000000001000be80                ble_client_write_client_characteristic_configuration
                0x000000001000befa                att_client_send_func_get
                0x000000001000ca4c                gatt_client_read_value_of_characteristic_using_value_handle
                0x000000001000caee                gatt_client_write_client_characteristic_configuration
 .text.client.get_context
                0x000000001000cb5e       0x18 ..\..\libs\ble\libbtstack_central.a(gatt_client.o)
                0x000000001000cb5e                gatt_client_get_context_for_handle
 .text.client.request_can_send
                0x000000001000cb76       0x28 ..\..\libs\ble\libbtstack_central.a(gatt_client.o)
                0x000000001000cb76                att_client_request_can_send_now_event
 .text.client.write_req
                0x000000001000cb9e       0x6c ..\..\libs\ble\libbtstack_central.a(gatt_client.o)
                0x000000001000cb9e                att_write_request
                0x000000001000cbea                ble_write_req_for_character
 *fill*         0x000000001000cc0a        0x2 
 .text.sm.client
                0x000000001000cc0c      0x15a ..\..\libs\ble\libbtstack_central.a(gatt_client.o)
                0x000000001000cc0c                ble_sm_client_event_do
 .text.client.deserialize_service
                0x000000001000cd66       0x48 ..\..\libs\ble\libbtstack_central.a(gatt_client.o)
                0x000000001000cd66                gatt_client_deserialize_service
 .text.client.deserialize_characteristic
                0x000000001000cdae       0x58 ..\..\libs\ble\libbtstack_central.a(gatt_client.o)
                0x000000001000cdae                gatt_client_deserialize_characteristic
 .text.client.send_req
                0x000000001000ce06       0x16 ..\..\libs\ble\libbtstack_central.a(gatt_client.o)
                0x000000001000ce06                btstack_ble_client_send_req
 .text.client.read_req
                0x000000001000ce1c       0x1e ..\..\libs\ble\libbtstack_central.a(gatt_client.o)
                0x000000001000ce1c                ble_read_req_for_character
 .text.client.send
                0x000000001000ce3a       0xa8 ..\..\libs\ble\libbtstack_central.a(gatt_client.o)
                0x000000001000ce3a                att_event_client_send
 .text.client.find_services
                0x000000001000cee2       0x48 ..\..\libs\ble\libbtstack_central.a(gatt_client.o)
                0x000000001000cee2                gatt_client_discover_primary_services
                0x000000001000cf1e                ble_client_discover_primary_services
 .text.client.find_character
                0x000000001000cf2a       0x54 ..\..\libs\ble\libbtstack_central.a(gatt_client.o)
                0x000000001000cf2a                gatt_client_discover_characteristics_for_service
                0x000000001000cf70                ble_client_discover_characteristics_for_service
 .text.client.read_long_value_offset
                0x000000001000cf7e       0x3a ..\..\libs\ble\libbtstack_central.a(gatt_client.o)
                0x000000001000cf7e                gatt_client_read_long_value_of_characteristic_using_value_handle_with_offset
 .text          0x000000001000cfb8      0x1c0 ..\..\libs\ble\libbtstack_central.a(att_server.o)
                0x000000001000d0d4                att_server_handler_list_init
                0x000000001000d0dc                att_server_mtu_exch_complete_ind
                0x000000001000d0ea                att_server_can_send_packet_now
 .text          0x000000001000d178      0x1ce ..\..\libs\ble\libbtstack_central.a(att_dispatch.o)
                0x000000001000d25a                att_dispatch_connected_event
                0x000000001000d2b8                att_dispatch_disconnected_event
                0x000000001000d2e0                att_dispatch_connect_param_update_event
                0x000000001000d30e                att_dispatch_encryption_change_event
                0x000000001000d33e                att_dispatch_sm_event
 .text.att.register_client
                0x000000001000d346       0x14 ..\..\libs\ble\libbtstack_central.a(att_dispatch.o)
                0x000000001000d346                att_dispatch_register_client
 .text.att.dispatch
                0x000000001000d35a        0x6 ..\..\libs\ble\libbtstack_central.a(att_dispatch.o)
                0x000000001000d35a                att_dispatch_can_send_now
 .text.att.dispatch_client
                0x000000001000d360       0x12 ..\..\libs\ble\libbtstack_central.a(att_dispatch.o)
                0x000000001000d360                att_dispatch_client_request_can_send_now_event
 .text.att.client_mtu
                0x000000001000d372       0x2a ..\..\libs\ble\libbtstack_central.a(att_dispatch.o)
                0x000000001000d372                att_dispatch_client_mtu_exchanged
 .text.att.server_mtu
                0x000000001000d39c       0x2a ..\..\libs\ble\libbtstack_central.a(att_dispatch.o)
                0x000000001000d39c                att_dispatch_server_mtu_exchanged
 *fill*         0x000000001000d3c6        0x2 
 .text          0x000000001000d3c8      0xddc ..\..\libs\ble\libbtstack_central.a(att_db.o)
                0x000000001000d5c2                att_uuid_for_handle
                0x000000001000d5ec                att_set_db
                0x000000001000d5f4                att_set_read_callback
                0x000000001000d5fc                att_set_write_callback
                0x000000001000d604                handle_exchange_mtu_request
                0x000000001000d62c                att_clear_transaction_queue
                0x000000001000d648                att_prepare_handle_value_indication
                0x000000001000d686                att_handle_request
                0x000000001000e050                gatt_server_get_get_handle_range_for_service_with_uuid16
                0x000000001000e0d6                gatt_server_get_value_handle_for_characteristic_with_uuid16
                0x000000001000e118                gatt_server_get_client_configuration_handle_for_characteristic_with_uuid16
 .text.att.mtu_request
                0x000000001000e1a4       0x38 ..\..\libs\ble\libbtstack_central.a(att_db.o)
                0x000000001000e1a4                att_exchange_mtu_request
 .text.att_server.mtu_rsp
                0x000000001000e1dc       0x2a ..\..\libs\ble\libbtstack_central.a(att_db.o)
                0x000000001000e1dc                handle_exchange_mtu_response
 .text          0x000000001000e206      0x20a ..\..\libs\ble\libbtstack_central.a(ad_parser.o)
                0x000000001000e206                ad_iterator_init
                0x000000001000e212                ad_iterator_has_more
                0x000000001000e220                ad_iterator_next
                0x000000001000e23e                ad_iterator_get_data_len
                0x000000001000e250                ad_iterator_get_data_type
                0x000000001000e25e                ad_iterator_get_data
                0x000000001000e26a                ad_data_contains_uuid16
                0x000000001000e302                ad_data_contains_uuid128
                0x000000001000e3a0                ble_adv_report_info_analyse
                0x000000001000e40c                ble_ext_adv_report_info_analyse
 .text          0x000000001000e410       0x2a ..\..\libs\ble\libbtstack_central.a(hci_transport_hcic.o)
                0x000000001000e410                hcic_rx_flush
                0x000000001000e42c                hci_init_var
 .text.stack.hcic
                0x000000001000e43a       0x5c ..\..\libs\ble\libbtstack_central.a(hci_transport_hcic.o)
 .text          0x000000001000e496       0xce ..\..\libs\ble\libbtstack_central.a(btstack_api.o)
                0x000000001000e496                btstack_ble_enable_adv
                0x000000001000e498                btstack_ble_enable_scan
                0x000000001000e49c                btstack_ble_disable_scan
                0x000000001000e4a0                btstack_ble_set_scan_param
                0x000000001000e4a4                btstack_ble_conn_by_addr
                0x000000001000e4da                btstack_ble_conn_cancel
                0x000000001000e4de                btstack_ble_sm_passkey_input
                0x000000001000e4f4                btstack_ble_sm_send_security_request
                0x000000001000e4f8                btstack_ble_set_random_static_addr
                0x000000001000e502                btstack_ble_update_random_addr
                0x000000001000e506                btstack_ble_single_tone_mode_enter
                0x000000001000e51c                btstack_ctl_api
                0x000000001000e534                btstack_ble_rmv_dev_from_white_list
                0x000000001000e536                btstack_ble_disable_adv
                0x000000001000e538                btstack_ble_enable_ext_adv
                0x000000001000e53a                btstack_ble_disable_ext_adv
                0x000000001000e53c                btstack_ble_set_adv_param
                0x000000001000e53e                btstack_ble_set_ext_adv_data
                0x000000001000e540                btstack_ble_set_ext_adv_param
                0x000000001000e542                btstack_ble_ext_conn_by_addr
                0x000000001000e544                btstack_ble_rslv_enable
                0x000000001000e546                btstack_ble_rslv_renew_to_set
                0x000000001000e548                btstack_ble_add_dev_to_ral_list
                0x000000001000e54a                btstack_ble_rmv_dev_from_ral_list
                0x000000001000e54c                btstack_ble_add_dev_to_white_list
                0x000000001000e54e                btstack_var_init
                0x000000001000e560                btstack_ble_get_conn_rssi
 .text.stack.sleep
                0x000000001000e564       0x24 ..\..\libs\ble\libbtstack_central.a(btstack_api.o)
                0x000000001000e564                btstack_exit_sleep
                0x000000001000e570                btstack_enter_sleep
 .text.ble.hci  0x000000001000e588       0xb6 ..\..\libs\ble\libbtstack_central.a(btstack_api.o)
                0x000000001000e588                btstack_ble_set_adv_data
                0x000000001000e58a                btstack_ble_set_adv_interval
                0x000000001000e58c                btstack_ble_disconnect
                0x000000001000e5a6                btstack_ble_update_conn_param
                0x000000001000e5f6                btstack_ble_ll_update_conn_param
                0x000000001000e63c                btstack_ble_set_scan_rsp_data
 .text.stack.api
                0x000000001000e63e       0x34 ..\..\libs\ble\libbtstack_central.a(btstack_api.o)
                0x000000001000e63e                btstack_off
                0x000000001000e65e                bt_init
 .text.stack.setup
                0x000000001000e672       0x4e ..\..\libs\ble\libbtstack_central.a(btstack_api.o)
                0x000000001000e672                btstack_setup
 .text.stack.api
                0x000000001000e6c0       0x5c ..\..\libs\ble\libbtstack_central.a(bt_api.o)
                0x000000001000e6c0                bt_off
                0x000000001000e6ea                bt_setup
 .text.stack.sleep
                0x000000001000e71c       0xb4 ..\..\libs\ble\libbtstack_central.a(bt_api.o)
                0x000000001000e71c                bt_enter_sleep
                0x000000001000e776                bt_exit_sleep
 .text.ble.api.conn.update
                0x000000001000e7d0       0x90 ..\..\libs\ble\libbtstack_central.a(ble_api.o)
                0x000000001000e856                ble_update_conn_param
 .text.ble.api.conn_param.get
                0x000000001000e860        0x4 ..\..\libs\ble\libbtstack_central.a(ble_api.o)
                0x000000001000e860                ble_get_conn_param
 .text.ble.api.scan.dis
                0x000000001000e864        0xa ..\..\libs\ble\libbtstack_central.a(ble_api.o)
                0x000000001000e864                ble_scan_dis
 .text.ble.api.scan.en
                0x000000001000e86e        0xa ..\..\libs\ble\libbtstack_central.a(ble_api.o)
                0x000000001000e86e                ble_scan_en
 .text.ble.api.scan.set
                0x000000001000e878       0x2a ..\..\libs\ble\libbtstack_central.a(ble_api.o)
                0x000000001000e878                ble_set_scan_param
 .text.ble.api.conn_do
                0x000000001000e8a2       0x74 ..\..\libs\ble\libbtstack_central.a(ble_api.o)
                0x000000001000e8a2                ble_connect_by_addr
 .text.ble.api.regist
                0x000000001000e916        0x6 ..\..\libs\ble\libbtstack_central.a(ble_api.o)
                0x000000001000e916                ble_init_callback_register
                0x000000001000e91a                ble_vs_tbox_init_callback_register
 .text          0x000000001000e91c       0xaa ..\..\libs\ble\libbtstack_central.a(rf.o)
                0x000000001000e91c                rf_off
                0x000000001000e946                rf_reset
                0x000000001000e948                rf_init
 .text.rf.tx_tone
                0x000000001000e9c6       0x4e ..\..\libs\ble\libbtstack_central.a(rf.o)
                0x000000001000e9c6                rf_single_tone_enter
 *fill*         0x000000001000ea14      0x1ec 
 .text          0x000000001000ec00      0xa1e ..\..\libs\ble\libbtstack_central.a(hct_tl.o)
                0x000000001000f000                hci_tx_done_do
                0x000000001000f200                hci_tl_send
                0x000000001000f284                hci_tl_init
                0x000000001000f2c0                hci_cmd_received
 .text          0x000000001000f61e      0x2ee ..\..\libs\ble\libbtstack_central.a(hct_msg.o)
                0x000000001000f7f6                hci_look_for_cmd_desc
                0x000000001000f884                hci_look_for_evt_desc
                0x000000001000f8c6                hci_look_for_dbg_evt_desc
                0x000000001000f8ca                hci_look_for_le_evt_desc
 .text          0x000000001000f90c       0x38 ..\..\libs\ble\libbtstack_central.a(hct.o)
                0x000000001000f90c                hct_init
                0x000000001000f924                hci_send_2_host
                0x000000001000f92a                hci_ble_conhdl_register
                0x000000001000f938                hci_ble_conhdl_unregister
 .text          0x000000001000f944      0x168 ..\..\libs\ble\libbtstack_central.a(mgr_hci.o)
                0x000000001000fa98                hci_le_rd_buff_size
 .text.le.mgr   0x000000001000faac       0x38 ..\..\libs\ble\libbtstack_central.a(mgr_hci.o)
                0x000000001000faac                hci_command_mgr_func
 .text          0x000000001000fae4      0x486 ..\..\libs\ble\libbtstack_central.a(mgr.o)
                0x000000001000fae4                mgr_cmd_cmp_send
                0x000000001000fb0c                mgr_cmd_stat_send
                0x000000001000fb34                mgr_is_dev_connected
                0x000000001000fb86                mgr_ral_is_empty
                0x000000001000fb8a                mgr_ch_map_update
                0x000000001000fcdc                mgr_init
                0x000000001000fdf8                mgr_clk_acc_set
                0x000000001000fe36                mgr_link_disc
                0x000000001000fe6a                mgr_master_ch_map_get
                0x000000001000fe72                mgr_le_evt_mask_check
                0x000000001000fe8c                mgr_le_get_features
                0x000000001000fedc                mgr_le_get_tbox_feat
                0x000000001000feea                mgr_plan_elt_get
                0x000000001000fef8                mgr_act_get_free
                0x000000001000ff48                mgr_act_set_free
 .text          0x000000001000ff6a      0x43a ..\..\libs\ble\libbtstack_central.a(ll_scan.o)
                0x000000001000ff6a                hci_le_set_scan_param_cmd_func
                0x00000000100100bc                hci_le_set_scan_en_cmd_func
 .text.le.ll_scan
                0x00000000100103a4      0x5e4 ..\..\libs\ble\libbtstack_central.a(ll_scan.o)
                0x00000000100103a4                ble_adv_rep_ind_func
                0x000000001001090a                ble_scan_end_ind_func
 .text          0x0000000010010988      0x12a ..\..\libs\ble\libbtstack_central.a(ble_scan.o)
                0x0000000010010988                ble_get_scan_var
                0x0000000010010990                ble_get_ssync_var
                0x0000000010010998                ble_scan_private_init_hook
                0x0000000010010a3e                ble_scan_init
 .text          0x0000000010010ab2      0x2c4 ..\..\libs\ble\libbtstack_central.a(ble_hal.o)
                0x0000000010010ab2                ble_get_rslv_var
                0x0000000010010ab6                ble_hal_init
                0x0000000010010cd0                ble_ch_assess_data_get
                0x0000000010010cd8                ble_aa_gen
 *fill*         0x0000000010010d76       0x8a 
 .text          0x0000000010010e00      0x764 ..\..\libs\ble\libbtstack_central.a(ble_con.o)
                0x0000000010010e00                ble_con_evt_time_update_fix
                0x0000000010010f00                ble_con_start_do
                0x0000000010010f28                ble_con_start
                0x0000000010011400                ble_con_stop
                0x0000000010011480                ble_con_offset_get
                0x00000000100114ba                ble_con_peer_sca_set
                0x00000000100114e2                ble_event_start_hook_register
 .text.le.con   0x0000000010011564       0x8a ..\..\libs\ble\libbtstack_central.a(ble_con.o)
                0x0000000010011564                ble_get_con_var
                0x000000001001156c                ble_get_con_rssi
                0x0000000010011582                ble_con_init
 .text          0x00000000100115ee      0x164 ..\..\libs\ble\libbtstack_central.a(ble_buf.o)
                0x00000000100115ee                ble_buf_init_do
                0x000000001001170a                ble_buf_init
 .text          0x0000000010011752      0x150 ..\..\libs\ble\libbtstack_central.a(bb_int.o)
                0x0000000010011752                bb_sleep_init
                0x000000001001177a                bb_driver_init
 *fill*         0x00000000100118a2      0x15e 
 .text.bb.aes   0x0000000010011a00      0x1f4 ..\..\libs\ble\libbtstack_central.a(bb_int.o)
                0x0000000010011a00                bb_aes_encrypt
 .text          0x0000000010011bf4      0x24c ..\..\libs\ble\libbtstack_central.a(bb.o)
                0x0000000010011bf4                bb_rand_init
                0x0000000010011bfc                bb_get_heap_info
                0x0000000010011c0e                bb_var_init
                0x0000000010011c16                bb_nanos_mem_init
                0x0000000010011c60                bb_reset
                0x0000000010011cde                bb_init
                0x0000000010011df0                bb_off
 .text          0x0000000010011e40       0x3a ..\..\libs\ble\libbtstack_central.a(extern_ble.o)
                0x0000000010011e64                att_user_read_callback
                0x0000000010011e68                att_user_write_callback
                0x0000000010011e70                ble_sync_link_info
                0x0000000010011e76                hci_event_debug_en
 .text          0x0000000010011e7a       0x72 ..\..\libs\ble\libbtstack_central.a(l2cap.o)
                0x0000000010011ed6                l2cap_register_packet_handler
                0x0000000010011ede                l2cap_max_le_mtu
 .text.stk.l2cap.txreq
                0x0000000010011eec       0x9e ..\..\libs\ble\libbtstack_central.a(l2cap.o)
 .text.stack.l2cap
                0x0000000010011f8a      0x14e ..\..\libs\ble\libbtstack_central.a(l2cap.o)
                0x000000001001208e                l2cap_clear_pending_tx
 .text.stack.handler.l2cap
                0x00000000100120d8      0x174 ..\..\libs\ble\libbtstack_central.a(l2cap.o)
                0x0000000010012244                l2cap_can_send_fixed_channel_packet_now
 .text.stack.setup
                0x000000001001224c       0x72 ..\..\libs\ble\libbtstack_central.a(l2cap.o)
                0x000000001001224c                l2cap_init
                0x000000001001229c                l2cap_register_fixed_channel
 .text.stack.l2cap.connectionless
                0x00000000100122be       0x44 ..\..\libs\ble\libbtstack_central.a(l2cap.o)
                0x00000000100122be                l2cap_send_connectionless
 .text.stack.setup
                0x0000000010012302        0x2 ..\..\libs\ble\libbtstack_central.a(hci_dump.o)
                0x0000000010012302                hci_dump_open
 *fill*         0x0000000010012304        0x0 
 .text.stack.hci_send
                0x0000000010012304      0x28e ..\..\libs\ble\libbtstack_central.a(hci_cmd.o)
                0x0000000010012304                hci_cmd_create_from_template
 .text          0x0000000010012592        0x2 ..\..\libs\ble\libbtstack_central.a(btstack_run_loop.o)
                0x0000000010012592                thread_nanos_task_create
 *fill*         0x0000000010012594       0x6c 
 .text.stack.run_loop
                0x0000000010012600      0x16a ..\..\libs\ble\libbtstack_central.a(btstack_run_loop.o)
                0x0000000010012600                btstack_run_loop_set_timer_handler
                0x0000000010012604                btstack_run_loop_set_data_source_handler
                0x0000000010012608                btstack_run_loop_set_data_source_fd
                0x000000001001260c                btstack_run_loop_get_data_source_fd
                0x0000000010012610                btstack_run_loop_enable_data_source_callbacks
                0x000000001001261c                btstack_run_loop_disable_data_source_callbacks
                0x000000001001262c                btstack_run_loop_add_data_source
                0x0000000010012638                btstack_run_loop_remove_data_source
                0x0000000010012644                btstack_run_loop_set_timer
                0x000000001001265e                btstack_run_loop_set_timer_context
                0x0000000010012662                btstack_run_loop_get_timer_context
                0x0000000010012680                btstack_run_loop_set_trig_ticks
                0x00000000100126bc                btstack_run_loop_add_timer
                0x00000000100126ec                btstack_run_loop_remove_timer
                0x000000001001271e                btstack_run_loop_get_ticks
                0x0000000010012728                btstack_run_loop_ticks_for_ms
                0x000000001001272e                btstack_run_loop_get_time_ms
                0x000000001001273a                btstack_run_loop_timer_dump
 .text.stack.setup
                0x000000001001276a       0x2e ..\..\libs\ble\libbtstack_central.a(btstack_run_loop.o)
                0x000000001001276a                btstack_run_loop_init
 .text          0x0000000010012798       0x2c ..\..\libs\ble\libbtstack_central.a(btstack_memory.o)
                0x0000000010012798                btstack_memory_gatt_client_get
                0x00000000100127a2                btstack_memory_gatt_client_free
                0x00000000100127ae                btstack_memory_gatt_client_init
 .text.stack.setup
                0x00000000100127c4        0x2 ..\..\libs\ble\libbtstack_central.a(btstack_memory.o)
                0x00000000100127c4                btstack_memory_init
 .text          0x00000000100127c6       0x10 ..\..\libs\ble\libbtstack_central.a(hci_transport_dummy.o)
                0x00000000100127c6                hci_iodm_init
 .text          0x00000000100127d6        0xa ..\..\libs\ble\libbtstack_central.a(btstack_main.o)
                0x00000000100127d6                btstack_ble_set_init_callback
                0x00000000100127de                btstack_ble_vs_tbox_set_init_callback
 .text.stack.handler
                0x00000000100127e0       0x3c ..\..\libs\ble\libbtstack_central.a(btstack_main.o)
 .text.stack.ble.setup
                0x000000001001281c        0x4 ..\..\libs\ble\libbtstack_central.a(btstack_main.o)
                0x000000001001281c                btstack_ble_init
 .text.stack.setup
                0x0000000010012820       0x34 ..\..\libs\ble\libbtstack_central.a(btstack_main.o)
                0x0000000010012820                btstack_main
 .text          0x0000000010012854       0x18 ..\..\libs\ble\libbtstack_central.a(btstack_hal.o)
                0x0000000010012854                hal_tick_init
                0x000000001001285a                hal_tick_set_handler
 .text          0x000000001001286c       0x70 ..\..\libs\ble\libbtstack_central.a(nanos.o)
                0x000000001001286c                nanos_init
                0x00000000100128a0                nanos_var_init
 .text          0x00000000100128dc       0x34 ..\..\libs\ble\libbtstack_central.a(bb_sche.o)
                0x00000000100128dc                bb_sche_frag_ble_dur_set
                0x00000000100128ee                bb_sche_init
 .text          0x0000000010012910       0x90 ..\..\libs\ble\libbtstack_central.a(patch.o)
                0x0000000010012910                bb_patch_dummy
                0x0000000010012912                bb_patch_init
 .text          0x00000000100129a0       0xfe ..\..\libs\ble\libbtstack_central.a(bb_clk.o)
                0x00000000100129a0                bb_clk_init
                0x0000000010012a9c                bb_clk_off
 .text.bb.aes   0x0000000010012a9e      0x25c ..\..\libs\ble\libbtstack_central.a(aes.o)
                0x0000000010012a9e                aes_init
                0x0000000010012ae8                aes_alloc
                0x0000000010012b0a                aes_start
                0x0000000010012b48                aes_encrypt
                0x0000000010012b94                aes_rand
                0x0000000010012bd0                aes_result_handler
                0x0000000010012c38                ble_ecpy
 .text          0x0000000010012cfa       0x3c ..\..\libs\ble\libbtstack_central.a(extern.o)
                0x0000000010012d0c                ble_adv_is_private_mode
                0x0000000010012d10                ble_scan_is_private_mode
                0x0000000010012d14                ble_private_access_code_get
                0x0000000010012d26                ble_scan_freq_hop_en
                0x0000000010012d2a                ble_tbox_feature_req_enabled
                0x0000000010012d2e                ble_chmap_instant_pass_discon
                0x0000000010012d32                ble_adv_duration_get
 .text          0x0000000010012d36       0x9c ..\..\libs\ble\libbtstack_central.a(vs.o)
                0x0000000010012d36                vs_init
                0x0000000010012d72                vs_reset_complete_evt
 .text          0x0000000010012dd2      0xc2a ..\..\libs\ble\libbtstack_central.a(rf_xbox.o)
                0x0000000010013066                rfphy_rxdc_cal
                0x0000000010013370                rfphy_txdc_cal
                0x00000000100139c6                rfphy_test
                0x00000000100139c8                ble_rf_external_pa_init
 .text.bb.phy.pll
                0x00000000100139fc       0x9c ..\..\libs\ble\libbtstack_central.a(rf_xbox.o)
                0x00000000100139fc                rfphy_pll_afc
 .text.bb.phy.tx
                0x0000000010013a98      0x10a ..\..\libs\ble\libbtstack_central.a(rf_xbox.o)
                0x0000000010013a98                rfphy_tx
                0x0000000010013b18                rfphy_tx_tone
 .text.bb.rf    0x0000000010013ba2       0x7a ..\..\libs\ble\libbtstack_central.a(rf_xbox.o)
                0x0000000010013ba2                rfphy_tx_pwr
                0x0000000010013bec                rfphy_sw_ctrl
 .text          0x0000000010013c1c       0x8e ..\..\libs\ble\libbtstack_central.a(complex.o)
                0x0000000010013c1c                complexAdd
                0x0000000010013c26                complexSubtract
                0x0000000010013c30                complexMultiply
                0x0000000010013c4c                complexDivision
 .text          0x0000000010013caa        0x4 ..\..\libs\ble\libbtstack_central.a(scan_hook.o)
                0x0000000010013caa                ble_scan_end_ind_hook
 .text          0x0000000010013cae        0x2 ..\..\libs\ble\libbtstack_central.a(ble_hook.o)
                0x0000000010013cae                ble_hal_init_hook
 .text          0x0000000010013cb0      0x21a ..\..\libs\ble\libbtstack_central.a(mgr_test.o)
                0x0000000010013cda                ble_test_end_ind_func
                0x0000000010013d12                hci_le_rx_test_v1_cmd_func
                0x0000000010013d58                hci_le_tx_test_v1_cmd_func
                0x0000000010013dbc                hci_le_rx_test_v2_cmd_func
                0x0000000010013e1c                hci_le_tx_test_v2_cmd_func
                0x0000000010013e92                hci_le_test_end_cmd_func
 .text          0x0000000010013eca       0x54 ..\..\libs\ble\libbtstack_central.a(mgr_proc.o)
 .text          0x0000000010013f1e      0xa5e ..\..\libs\ble\libbtstack_central.a(mgr_init.o)
                0x0000000010013f1e                hci_le_create_con_cmd_func
                0x000000001001423e                hci_le_ext_create_con_cmd_func
                0x0000000010014592                hci_le_create_con_cancel_cmd_func
                0x0000000010014610                ble_init_end_ind_func
 *fill*         0x000000001001497c        0x0 
 .text          0x000000001001497c      0xc0c ..\..\libs\ble\libbtstack_central.a(ll_con_upd.o)
                0x0000000010015218                hci_le_con_upd_cmd_func
                0x0000000010015344                ll_op_con_upd_ind_func
                0x00000000100153d6                ble_con_param_upd_cfm_func
                0x0000000010015442                ble_con_offset_upd_ind_func
                0x0000000010015494                ll_con_move_cb
 .text.le.ll_cntl.pdu
                0x0000000010015588      0x308 ..\..\libs\ble\libbtstack_central.a(ll_con_upd.o)
                0x0000000010015588                ll_con_update_ind_func
                0x00000000100156e6                ll_con_param_req_func
                0x00000000100157fa                ll_con_param_rsp_func
 .text          0x0000000010015890      0x22c ..\..\libs\ble\libbtstack_central.a(ll_cntl.o)
                0x0000000010015890                ll_pdu_send_reject_ind
                0x00000000100158e2                ble_cntl_rx_ind_func
                0x0000000010015a64                ble_cntl_tx_cfm_func
 .text.le.ll_cntl.pdu
                0x0000000010015abc       0x64 ..\..\libs\ble\libbtstack_central.a(ll_cntl.o)
 .text.le.ll_cntl.send
                0x0000000010015b20      0x18a ..\..\libs\ble\libbtstack_central.a(ll_cntl.o)
                0x0000000010015b20                ll_cntl_tx_check
                0x0000000010015c0c                ll_cntl_send
 .text.le.ll_cntl.pdu
                0x0000000010015caa       0xf8 ..\..\libs\ble\libbtstack_central.a(ll_clk_acc.o)
                0x0000000010015caa                ll_clk_acc_req_func
                0x0000000010015d04                ll_clk_acc_rsp_func
 .text          0x0000000010015da2      0x2f0 ..\..\libs\ble\libbtstack_central.a(ll_chmap_upd.o)
                0x0000000010015f9e                ll_op_ch_map_upd_ind_func
                0x0000000010015ffa                mgr_ch_map_update_ind_func
                0x0000000010016072                ble_ch_map_upd_cfm_func
 .text.le.ll_cntl.pdu
                0x0000000010016092      0x1c2 ..\..\libs\ble\libbtstack_central.a(ll_chmap_upd.o)
                0x0000000010016092                ll_channel_map_ind_func
                0x00000000100161b2                ll_min_used_channels_ind_func
 .text.le.ll_cntl
                0x0000000010016254      0x2de ..\..\libs\ble\libbtstack_central.a(ll.o)
                0x00000000100162bc                ll_cleanup
                0x0000000010016346                ll_init
                0x00000000100163a8                ll_role_get
                0x00000000100163de                ll_proc_reg
                0x0000000010016428                ll_proc_id_get
                0x0000000010016446                ll_proc_state_get
                0x000000001001644c                ll_proc_state_set
                0x0000000010016452                ll_proc_get
                0x0000000010016468                ll_proc_err_ind
                0x000000001001648e                ll_proc_unreg
                0x00000000100164fc                ll_proc_collision_check
 .text.le.ll_cntl.start
                0x0000000010016532      0x22e ..\..\libs\ble\libbtstack_central.a(ll.o)
                0x0000000010016532                ll_start
 .text.le.ll_cntl.state
                0x0000000010016760       0x5e ..\..\libs\ble\libbtstack_central.a(ll.o)
                0x0000000010016760                ll_cntl_state_set
 .text.le.ll_cntl.stop
                0x00000000100167be       0x46 ..\..\libs\ble\libbtstack_central.a(ll.o)
                0x00000000100167be                ll_stop
 .text.le.ll_cntl.timer
                0x0000000010016804       0xd4 ..\..\libs\ble\libbtstack_central.a(ll.o)
                0x0000000010016804                ll_proc_timer_set
                0x0000000010016872                ll_proc_timer_set_state
 .text          0x00000000100168d8       0x28 ..\..\libs\ble\libbtstack_central.a(ble_test.o)
                0x00000000100168d8                ble_test_init
                0x00000000100168f8                ble_get_test_var
 .text.bb.ble.test.start
                0x0000000010016900       0x2e ..\..\libs\ble\libbtstack_central.a(ble_test.o)
                0x0000000010016900                ble_test_start
 *fill*         0x000000001001692e       0x52 
 .text          0x0000000010016980      0x8c0 ..\..\libs\ble\libbtstack_central.a(ble_init.o)
                0x0000000010016980                ble_init_connect_req_pack
                0x0000000010016a80                ble_init_start_do
                0x0000000010016aee                ble_init_start_hook
                0x0000000010016b42                ble_init_start
                0x00000000100171b4                ble_init_init
                0x000000001001721e                ble_get_init_var
 .text          0x0000000010017240       0x42 ..\..\libs\ble\libbtstack_central.a(ble.o)
                0x0000000010017240                ble_init
 .text.ble.var.init
                0x0000000010017282       0x56 ..\..\libs\ble\libbtstack_central.a(ble.o)
                0x0000000010017282                ble_var_init
 .text.stack.l2cap_sig
                0x00000000100172d8       0xcc ..\..\libs\ble\libbtstack_central.a(l2cap_signaling.o)
                0x00000000100173a2                l2cap_create_signaling_le
 .text.stack.memory
                0x00000000100173a4       0x46 ..\..\libs\ble\libbtstack_central.a(btstack_memory_pool.o)
                0x00000000100173a4                btstack_memory_pool_get
                0x00000000100173b0                btstack_memory_pool_free
                0x00000000100173c4                btstack_memory_pool_create
 .text          0x00000000100173ea       0xa8 ..\..\libs\ble\libbtstack_central.a(vs_proc.o)
 .text.bb.vs.fcc_ble.do
                0x0000000010017492       0xa0 ..\..\libs\ble\libbtstack_central.a(vs_fcc.o)
                0x0000000010017492                vs_ble_test_do
 .text.bb.vs.fcc
                0x0000000010017532       0xc8 ..\..\libs\ble\libbtstack_central.a(vs_fcc.o)
                0x0000000010017532                vs_ble_test
                0x0000000010017536                vs_fcc_test_cmd
 .text          0x00000000100175fa       0x60 ..\..\libs\ble\libbtstack_central.a(ll_version.o)
                0x0000000010017626                ble_ll_version_get
 .text.le.ll_cntl.pdu
                0x000000001001765a      0x120 ..\..\libs\ble\libbtstack_central.a(ll_version.o)
                0x000000001001765a                ll_version_ind_func
 .text          0x000000001001777a      0x1c8 ..\..\libs\ble\libbtstack_central.a(ll_proc.o)
                0x000000001001777a                hci_command_ll_func
                0x00000000100177ca                ble_acl_rx_ind_func
                0x00000000100178c4                ble_acl_tx_cfm_func
                0x00000000100178ec                ll_cmd_cmp_send
                0x000000001001791a                ll_cmd_stat_send
 .text          0x0000000010017942      0x25e ..\..\libs\ble\libbtstack_central.a(ll_ping.o)
                0x00000000100179c2                ll_op_ping_ind_func
                0x0000000010017a18                ll_auth_payl_nearly_to_func
                0x0000000010017a86                ll_ping_restart
                0x0000000010017adc                ll_auth_payl_real_to_func
                0x0000000010017b3a                ll_ping_set
 .text.le.ll_cntl.pdu
                0x0000000010017ba0       0x3c ..\..\libs\ble\libbtstack_central.a(ll_ping.o)
                0x0000000010017ba0                ll_ping_req_func
                0x0000000010017bbc                ll_ping_rsp_func
 *fill*         0x0000000010017bdc        0x0 
 .text          0x0000000010017bdc      0x978 ..\..\libs\ble\libbtstack_central.a(ll_phy_upd.o)
                0x0000000010018410                ll_op_phy_upd_ind_func
                0x000000001001849c                ble_phy_upd_cfm_func
                0x00000000100184d6                ll_phy_upd_proc_start
 .text.le.ll_cntl.pdu
                0x0000000010018554      0x234 ..\..\libs\ble\libbtstack_central.a(ll_phy_upd.o)
                0x0000000010018554                ll_phy_req_func
                0x0000000010018616                ll_phy_rsp_func
                0x00000000100186a8                ll_phy_update_ind_func
 .text          0x0000000010018788      0x368 ..\..\libs\ble\libbtstack_central.a(ll_length.o)
                0x00000000100189f4                ll_op_length_upd_ind_func
                0x0000000010018a5a                ll_length_proc_start_for_param
                0x0000000010018abc                ll_length_proc_start
 .text.le.ll_cntl.pdu
                0x0000000010018af0      0x206 ..\..\libs\ble\libbtstack_central.a(ll_length.o)
                0x0000000010018af0                ll_length_req_func
                0x0000000010018c5c                ll_length_rsp_func
 .text          0x0000000010018cf6      0x29c ..\..\libs\ble\libbtstack_central.a(ll_feature.o)
                0x0000000010018ea0                ll_op_feats_exch_ind_func
                0x0000000010018f14                ll_feature_exchange_proc_start
                0x0000000010018f5e                ble_ll_feature_exchange_get
 .text.le.ll_cntl.pdu
                0x0000000010018f92      0x162 ..\..\libs\ble\libbtstack_central.a(ll_feature.o)
                0x0000000010018f92                ll_feature_req_func
                0x0000000010019006                ll_slave_feature_req_func
                0x000000001001907a                ll_feature_rsp_func
 *fill*         0x00000000100190f4        0x0 
 .text          0x00000000100190f4      0xb10 ..\..\libs\ble\libbtstack_central.a(ll_encrypt.o)
                0x00000000100198be                hci_le_en_enc_cmd_func
                0x0000000010019994                hci_le_ltk_req_reply_cmd_func
                0x0000000010019a08                hci_le_ltk_req_neg_reply_cmd_func
                0x0000000010019a94                ll_encrypt_ind_func
                0x0000000010019b9e                ll_op_encrypt_ind_func
 .text.le.ll_cntl.pdu
                0x0000000010019c04      0x30e ..\..\libs\ble\libbtstack_central.a(ll_encrypt.o)
                0x0000000010019c04                ll_pause_enc_req_func
                0x0000000010019c80                ll_pause_enc_rsp_func
                0x0000000010019ce0                ll_enc_req_func
                0x0000000010019de4                ll_enc_rsp_func
                0x0000000010019e64                ll_start_enc_req_func
                0x0000000010019ebc                ll_start_enc_rsp_func
 .text          0x0000000010019f12      0x2c8 ..\..\libs\ble\libbtstack_central.a(ll_disconnect.o)
                0x0000000010019f12                ble_disc_ind_func
                0x0000000010019f68                ll_stopped_ind_func
                0x0000000010019fbe                hci_disconnect_cmd_func
                0x000000001001a110                ll_op_disconnect_ind_func
                0x000000001001a18a                ll_init_term_proc
 .text.le.ll_proc.disc
                0x000000001001a1da       0x3a ..\..\libs\ble\libbtstack_central.a(ll_disconnect.o)
                0x000000001001a1da                ll_disconnect
 .text.le.ll_cntl.pdu
                0x000000001001a214       0x42 ..\..\libs\ble\libbtstack_central.a(ll_disconnect.o)
                0x000000001001a214                ll_terminate_ind_func
 .text          0x000000001001a256        0x4 ..\..\libs\ble\libbtstack_central.a(ble_sync.o)
                0x000000001001a256                ble_get_sync_var
 *(.rodata*)
 *fill*         0x000000001001a25a        0x2 
 .rodata.separate_wakeup_io
                0x000000001001a25c       0x80 Output\obj\driver\driver_gpio.o
                0x000000001001a25c                separate_wakeup_io
 .rodata.lowpwr_get_wakeup_source.str1.4
                0x000000001001a2dc       0x5f Output\obj\driver\driver_lowpwr.o
 *fill*         0x000000001001a33b        0x1 
 .rodata.__func__.4453
                0x000000001001a33c        0x9 Output\obj\project\ble_central\app\func.o
 *fill*         0x000000001001a345        0x3 
 .rodata.func.msg.str1.4
                0x000000001001a348       0xc1 Output\obj\project\ble_central\app\func.o
 .rodata.func.str1.4
                0x000000001001a409       0xc1 Output\obj\project\ble_central\app\func.o
                                          0x4 (size before relaxing)
 .rodata.func.bt.str1.4
                0x000000001001a409        0x4 Output\obj\project\ble_central\app\func_bt.o
 *fill*         0x000000001001a409        0x3 
 .rodata.__func__.4436
                0x000000001001a40c        0xa Output\obj\project\ble_central\app\func_idle.o
 .rodata.func.idle.str1.4
                0x000000001001a416        0x4 Output\obj\project\ble_central\app\func_idle.o
 *fill*         0x000000001001a416        0x2 
 .rodata.__func__.4940
                0x000000001001a418        0xc Output\obj\project\ble_central\app\func_lowpwr.o
 .rodata.__func__.4951
                0x000000001001a424        0xc Output\obj\project\ble_central\app\func_lowpwr.o
 .rodata.app.proc.sleep.str1.4
                0x000000001001a430       0x14 Output\obj\project\ble_central\app\func_lowpwr.o
                                         0x18 (size before relaxing)
 .rodata.__func__.4490
                0x000000001001a444       0x1a Output\obj\project\ble_central\ble\ble_client.o
 *fill*         0x000000001001a45e        0x2 
 .rodata.ble_att_read_callback.str1.4
                0x000000001001a460       0x15 Output\obj\project\ble_central\ble\ble_client.o
 *fill*         0x000000001001a475        0x3 
 .rodata.ble_client_event_callback.str1.4
                0x000000001001a478      0x236 Output\obj\project\ble_central\ble\ble_client.o
 *fill*         0x000000001001a6ae        0x2 
 .rodata.ble_client_notify_callback.str1.4
                0x000000001001a6b0       0x1c Output\obj\project\ble_central\ble\ble_client.o
 .rodata.ble_scan_en_test.str1.4
                0x000000001001a6cc        0xd Output\obj\project\ble_central\ble\ble_client.o
 *fill*         0x000000001001a6d9        0x3 
 .rodata.ble_write_test.str1.4
                0x000000001001a6dc       0x11 Output\obj\project\ble_central\ble\ble_client.o
 *fill*         0x000000001001a6ed        0x3 
 .rodata.app.proc.charge.str1.4
                0x000000001001a6f0       0x27 Output\obj\project\ble_central\bsp\bsp_charge.o
 *fill*         0x000000001001a717        0x1 
 .rodata.charge_status_info
                0x000000001001a718       0xae Output\obj\project\ble_central\bsp\bsp_charge.o
                0x000000001001a718                charge_status_info
 *fill*         0x000000001001a7c6        0x2 
 .rodata.app.proc.vbat.str1.4
                0x000000001001a7c8       0x28 Output\obj\project\ble_central\bsp\bsp_saradc_vbat.o
 .rodata.__func__.4570
                0x000000001001a7f0        0xd Output\obj\project\ble_central\bsp\bsp_sys.o
 *fill*         0x000000001001a7fd        0x3 
 .rodata.bsp.sys.init.str1.4
                0x000000001001a800       0x11 Output\obj\project\ble_central\bsp\bsp_sys.o
                                         0x18 (size before relaxing)
 *fill*         0x000000001001a811        0x3 
 .rodata.sys_ram_info_dump.str1.4
                0x000000001001a814       0x9f Output\obj\project\ble_central\bsp\bsp_sys.o
 *fill*         0x000000001001a8b3        0x1 
 .rodata.main.str1.4
                0x000000001001a8b4       0x2c Output\obj\project\ble_central\main.o
 .rodata.str1.4
                0x000000001001a8e0       0x1e Output\obj\project\ble_central\strong_symbol.o
 *fill*         0x000000001001a8fe        0x2 
 .rodata.thread_cfg
                0x000000001001a900       0x18 Output\obj\project\ble_central\strong_symbol.o
 .rodata.cm_next_freepage.str1.4
                0x000000001001a918        0xc ..\..\libs\cpu\libplatform.a(cm.o)
 .rodata.cm_movepage.str1.4
                0x000000001001a924       0x10 ..\..\libs\cpu\libplatform.a(cm.o)
 .rodata.cm_release.str1.4
                0x000000001001a934       0x22 ..\..\libs\cpu\libplatform.a(cm.o)
 *fill*         0x000000001001a956        0x2 
 .rodata.cm_savepage.str1.4
                0x000000001001a958       0x13 ..\..\libs\cpu\libplatform.a(cm.o)
 *fill*         0x000000001001a96b        0x1 
 .rodata.cm_check_loadpage.str1.4
                0x000000001001a96c       0x3b ..\..\libs\cpu\libplatform.a(cm.o)
 *fill*         0x000000001001a9a7        0x1 
 .rodata.cm_init.str1.4
                0x000000001001a9a8       0x30 ..\..\libs\cpu\libplatform.a(cm.o)
 .rodata.platform_main.str1.4
                0x000000001001a9d8       0x10 ..\..\libs\cpu\libplatform.a(main.o)
 .rodata.thread_btstack_create.str1.4
                0x000000001001a9e8        0xc ..\..\libs\cpu\libplatform.a(startup.o)
 .rodata.thread_main_entry.str1.4
                0x000000001001a9f4        0x4 ..\..\libs\cpu\libplatform.a(startup.o)
 .rodata.startup.init.str1.4
                0x000000001001a9f8       0x2b ..\..\libs\cpu\libplatform.a(startup.o)
 *fill*         0x000000001001aa23        0x1 
 .rodata.sys_rst_dump.str1.4
                0x000000001001aa24       0x51 ..\..\libs\cpu\libplatform.a(sys.o)
 *fill*         0x000000001001aa75        0x3 
 .rodata.ichsel
                0x000000001001aa78       0x80 ..\..\libs\cpu\libplatform.a(voltage_trim.o)
 .rodata.iends  0x000000001001aaf8       0x10 ..\..\libs\cpu\libplatform.a(voltage_trim.o)
 .rodata.volt_trim
                0x000000001001ab08       0x40 ..\..\libs\cpu\libplatform.a(voltage_trim.o)
 .rodata.str1.4
                0x000000001001ab48       0x4d ..\..\libs\ble\libbtstack_central.a(hci.o)
 *fill*         0x000000001001ab95        0x3 
 .rodata        0x000000001001ab98       0x20 ..\..\libs\ble\libbtstack_central.a(btstack_util.o)
                0x000000001001aba8                bluetooth_base_uuid
 .rodata.str1.4
                0x000000001001abb8       0x50 ..\..\libs\ble\libbtstack_central.a(sm.o)
 .rodata        0x000000001001ac08       0x64 ..\..\libs\ble\libbtstack_central.a(sm.o)
 .rodata.str1.4
                0x000000001001ac6c        0x4 ..\..\libs\ble\libbtstack_central.a(le_device_db_memory.o)
 .rodata        0x000000001001ac6c       0x14 ..\..\libs\ble\libbtstack_central.a(gatt_client.o)
 .rodata        0x000000001001ac80       0x10 ..\..\libs\ble\libbtstack_central.a(att_db.o)
 .rodata.stack.api
                0x000000001001ac90       0xa0 ..\..\libs\ble\libbtstack_central.a(btstack_api.o)
                0x000000001001ac90                btstack_basic_tbl
                0x000000001001aca0                btstack_ctl_param_tbl
                0x000000001001acc4                btstack_ctl_tbl
 .rodata.str1.4
                0x000000001001ad30       0x20 ..\..\libs\ble\libbtstack_central.a(hct_tl.o)
 .rodata.str1.4
                0x000000001001ad50       0xbf ..\..\libs\ble\libbtstack_central.a(hct_msg.o)
                                         0xd3 (size before relaxing)
 *fill*         0x000000001001ae0f        0x1 
 .rodata        0x000000001001ae10      0x258 ..\..\libs\ble\libbtstack_central.a(hct_msg.o)
                0x000000001001ae10                hci_cmd_desc_root_tab
                0x000000001001ae50                hci_evt_desc_tab
                0x000000001001ae88                hci_evt_le_desc_tab
                0x000000001001aed0                hci_evt_dbg_desc_tab
                0x000000001001aed0                hci_cmd_desc_tab_vs
                0x000000001001aee8                hci_cmd_desc_tab_le
                0x000000001001affc                hci_cmd_desc_tab_info_par
                0x000000001001affc                hci_cmd_desc_tab_stat_par
                0x000000001001b020                hci_cmd_desc_tab_ctrl_bb
                0x000000001001b05c                hci_cmd_desc_tab_lk_ctrl
 .rodata.le.mgr_cntl.tbl
                0x000000001001b068       0x70 ..\..\libs\ble\libbtstack_central.a(mgr_hci.o)
                0x000000001001b068                mgr_hci_cmd_tbl
 .rodata        0x000000001001b0d8       0x1c ..\..\libs\ble\libbtstack_central.a(ll_scan.o)
 .rodata.bb.tbl
                0x000000001001b0f4        0x7 ..\..\libs\ble\libbtstack_central.a(ble_hal.o)
 *fill*         0x000000001001b0fb        0x1 
 .rodata.bb.tbl
                0x000000001001b0fc        0x8 ..\..\libs\ble\libbtstack_central.a(ble_con.o)
                0x000000001001b0fc                connect_req_dur_tab
 .rodata.bb.tbl
                0x000000001001b104       0x16 ..\..\libs\ble\libbtstack_central.a(bb_utils.o)
                0x000000001001b104                null_array
                0x000000001001b114                dft_addr
 *fill*         0x000000001001b11a        0x2 
 .rodata.str1.4
                0x000000001001b11c       0x21 ..\..\libs\ble\libbtstack_central.a(bb.o)
 *fill*         0x000000001001b13d        0x3 
 .rodata        0x000000001001b140       0x20 ..\..\libs\ble\libbtstack_central.a(bb.o)
                0x000000001001b140                bb_hook
 .rodata.stack.l2cap
                0x000000001001b160        0x2 ..\..\libs\ble\libbtstack_central.a(l2cap.o)
 *fill*         0x000000001001b162        0x2 
 .rodata.str1.4
                0x000000001001b164       0xc3 ..\..\libs\ble\libbtstack_central.a(hci_cmd.o)
                                         0xdf (size before relaxing)
 *fill*         0x000000001001b227        0x1 
 .rodata.stack.hci_send
                0x000000001001b228      0x168 ..\..\libs\ble\libbtstack_central.a(hci_cmd.o)
                0x000000001001b228                hci_le_write_rf_path_compensation
                0x000000001001b230                hci_le_read_rf_path_compensation
                0x000000001001b238                hci_le_transmit_power
                0x000000001001b240                hci_le_read_periodic_adv_list_size
                0x000000001001b248                hci_le_set_default_phy
                0x000000001001b250                hci_le_long_term_key_negative_reply
                0x000000001001b258                hci_le_long_term_key_request_reply
                0x000000001001b260                hci_le_rand
                0x000000001001b268                hci_le_encrypt
                0x000000001001b270                hci_le_connection_update
                0x000000001001b278                hci_le_add_device_to_per_adv_list
                0x000000001001b280                hci_le_per_advertising_terminate_sync
                0x000000001001b288                hci_le_per_advertising_creat_sync_cancel
                0x000000001001b290                hci_le_per_advertising_creat_sync
                0x000000001001b298                hci_le_ext_create_connection
                0x000000001001b2a0                hci_le_set_ext_scan_enable
                0x000000001001b2a8                hci_le_set_ext_scan_parameters
                0x000000001001b2b0                hci_le_set_per_advertise_enable
                0x000000001001b2b8                hci_le_set_per_advertising_data
                0x000000001001b2c0                hci_le_set_per_advertising_parameters
                0x000000001001b2c8                hci_le_set_ext_advertise_enable
                0x000000001001b2d0                hci_le_set_ext_scan_response_data
                0x000000001001b2d8                hci_le_set_ext_advertising_data
                0x000000001001b2e0                hci_le_set_ext_advertising_parameters
                0x000000001001b2e8                hci_le_set_ext_adv_set_random_address
                0x000000001001b2f0                hci_le_set_advertise_enable
                0x000000001001b2f8                hci_le_set_scan_response_data
                0x000000001001b300                hci_le_set_advertising_data
                0x000000001001b308                hci_le_set_advertising_parameters
                0x000000001001b310                hci_le_set_random_address
                0x000000001001b318                hci_le_read_buffer_size
                0x000000001001b320                hci_le_start_encryption
                0x000000001001b328                hci_le_create_connection_cancel
                0x000000001001b330                hci_le_create_connection
                0x000000001001b338                hci_le_set_scan_enable
                0x000000001001b340                hci_le_set_scan_parameters
                0x000000001001b348                hci_le_set_event_mask
                0x000000001001b350                hci_read_bd_addr
                0x000000001001b358                hci_read_buffer_size
                0x000000001001b360                hci_read_local_supported_features
                0x000000001001b368                hci_read_local_supported_commands
                0x000000001001b370                hci_write_le_host_supported
                0x000000001001b378                hci_reset
                0x000000001001b380                hci_set_event_mask
                0x000000001001b388                hci_disconnect
 .rodata        0x000000001001b390       0x20 ..\..\libs\ble\libbtstack_central.a(hci_transport_dummy.o)
 .rodata        0x000000001001b3b0       0x24 ..\..\libs\ble\libbtstack_central.a(bb_sche.o)
 .rodata.bb.tbl
                0x000000001001b3d4       0x4f ..\..\libs\ble\libbtstack_central.a(rf_xbox.o)
 *fill*         0x000000001001b423        0x1 
 .rodata        0x000000001001b424       0x40 ..\..\libs\ble\libbtstack_central.a(mgr_proc.o)
 .rodata.str1.4
                0x000000001001b464       0x49 ..\..\libs\ble\libbtstack_central.a(ll_cntl.o)
                                         0x59 (size before relaxing)
 *fill*         0x000000001001b4ad        0x3 
 .rodata.le.ll_cntl.tbl
                0x000000001001b4b0      0x1f8 ..\..\libs\ble\libbtstack_central.a(ll_cntl.o)
                0x000000001001b4b0                ll_cntl_pdu_tbl
 .rodata.bb.tbl
                0x000000001001b6a8       0x1c ..\..\libs\ble\libbtstack_central.a(ble.o)
                0x000000001001b6a8                ble_ctl
 .rodata.str1.4
                0x000000001001b6c4       0x14 ..\..\libs\ble\libbtstack_central.a(l2cap_signaling.o)
                                         0x2a (size before relaxing)
 .rodata        0x000000001001b6d8       0x58 ..\..\libs\ble\libbtstack_central.a(l2cap_signaling.o)
 .rodata        0x000000001001b730       0x10 ..\..\libs\ble\libbtstack_central.a(vs_proc.o)
 .rodata.le.ll_cntl.tbl
                0x000000001001b740       0xf8 ..\..\libs\ble\libbtstack_central.a(ll_proc.o)
                0x000000001001b740                ll_msg_tbl
                0x000000001001b810                ll_hci_cmd_tbl
 *(.srodata*)
 .srodata       0x000000001001b838       0x18 ..\..\libs\ble\libbtstack_central.a(mgr.o)
 .srodata       0x000000001001b850        0x8 ..\..\libs\ble\libbtstack_central.a(vs_proc.o)
 *(.rela*)
 .rela.com_periph.etrclockmode1
                0x000000001001b858        0x0 Output\obj\driver\driver_adv_timer.o
 .rela.com_periph.tim.etrclockmode2
                0x000000001001b858        0x0 Output\obj\driver\driver_adv_timer.o
 .rela.text.charge_init
                0x000000001001b858        0x0 Output\obj\driver\driver_adv_timer.o
 .rela.text.app.proc.charge
                0x000000001001b858        0x0 Output\obj\driver\driver_adv_timer.o
 .rela.text.clk_clk32k_rtc_get
                0x000000001001b858        0x0 Output\obj\driver\driver_adv_timer.o
 .rela.text.clk_saradc_clk_get
                0x000000001001b858        0x0 Output\obj\driver\driver_adv_timer.o
 .rela.text.clk_udet_clk_get
                0x000000001001b858        0x0 Output\obj\driver\driver_adv_timer.o
 .rela.text.clk_hsut0_clk_get
                0x000000001001b858        0x0 Output\obj\driver\driver_adv_timer.o
 .rela.text.clk_tmr_inc_get
                0x000000001001b858        0x0 Output\obj\driver\driver_adv_timer.o
 .rela.text.clk_clk2m_ks_get
                0x000000001001b858        0x0 Output\obj\driver\driver_adv_timer.o
 .rela.text.clk_sdadda_clk_get
                0x000000001001b858        0x0 Output\obj\driver\driver_adv_timer.o
 .rela.text.clk_touch_key_clk_get
                0x000000001001b858        0x0 Output\obj\driver\driver_adv_timer.o
 .rela.text.clk_ttmr_inc_get
                0x000000001001b858        0x0 Output\obj\driver\driver_adv_timer.o
 .rela.text.wk0_edge_capture_config
                0x000000001001b858        0x0 Output\obj\driver\driver_adv_timer.o
 .rela.text.gpio_edge_capture_config
                0x000000001001b858        0x0 Output\obj\driver\driver_adv_timer.o
 .rela.text.gpio_edge_pic_config
                0x000000001001b858        0x0 Output\obj\driver\driver_adv_timer.o
 .rela.text.hsuart_init
                0x000000001001b858        0x0 Output\obj\driver\driver_adv_timer.o
 .rela.text.hsuart_baud_config
                0x000000001001b858        0x0 Output\obj\driver\driver_adv_timer.o
 .rela.text.hsuart_pic_config
                0x000000001001b858        0x0 Output\obj\driver\driver_adv_timer.o
 .rela.text.iic_send_data
                0x000000001001b858        0x0 Output\obj\driver\driver_adv_timer.o
 .rela.text.iic_receive_data
                0x000000001001b858        0x0 Output\obj\driver\driver_adv_timer.o
 .rela.text.iic_pic_config
                0x000000001001b858        0x0 Output\obj\driver\driver_adv_timer.o
 .rela.text.irrx_decode_config
                0x000000001001b858        0x0 Output\obj\driver\driver_adv_timer.o
 .rela.text.irrx_base_init
                0x000000001001b858        0x0 Output\obj\driver\driver_adv_timer.o
 .rela.text.irrx_wake_init
                0x000000001001b858        0x0 Output\obj\driver\driver_adv_timer.o
 .rela.text.ir_clk_init
                0x000000001001b858        0x0 Output\obj\driver\driver_adv_timer.o
 .rela.text.irtx_clk_init
                0x000000001001b858        0x0 Output\obj\driver\driver_adv_timer.o
 .rela.text.irtx_timing_set
                0x000000001001b858        0x0 Output\obj\driver\driver_adv_timer.o
 .rela.text.irtx_timing_init
                0x000000001001b858        0x0 Output\obj\driver\driver_adv_timer.o
 .rela.text.irtx_init
                0x000000001001b858        0x0 Output\obj\driver\driver_adv_timer.o
 .rela.text.irtx_base_init
                0x000000001001b858        0x0 Output\obj\driver\driver_adv_timer.o
 .rela.text.irtx_capture_init
                0x000000001001b858        0x0 Output\obj\driver\driver_adv_timer.o
 .rela.text.irtx_capture_buf_init
                0x000000001001b858        0x0 Output\obj\driver\driver_adv_timer.o
 .rela.text.irtx_learn_init
                0x000000001001b858        0x0 Output\obj\driver\driver_adv_timer.o
 .rela.text.irtx_pic_config
                0x000000001001b858        0x0 Output\obj\driver\driver_adv_timer.o
 .rela.text.keyscan_pic_config
                0x000000001001b858        0x0 Output\obj\driver\driver_adv_timer.o
 .rela.text.ledc_pic_config
                0x000000001001b858        0x0 Output\obj\driver\driver_adv_timer.o
 .rela.com_sleep.lv2_proc
                0x000000001001b858        0x0 Output\obj\driver\driver_adv_timer.o
 .rela.com_sleep.lv2_wakeup
                0x000000001001b858        0x0 Output\obj\driver\driver_adv_timer.o
 .rela.text.lowpwr_get_wakeup_source
                0x000000001001b858        0x0 Output\obj\driver\driver_adv_timer.o
 .rela.text.lowpwr_wk0_wakeup_config
                0x000000001001b858        0x0 Output\obj\driver\driver_adv_timer.o
 .rela.text.lowpwr_gpio_wakeup_config
                0x000000001001b858        0x0 Output\obj\driver\driver_adv_timer.o
 .rela.text.lowpwr_wakeup_config_do
                0x000000001001b858        0x0 Output\obj\driver\driver_adv_timer.o
 .rela.text.lowpwr_pwroff_mode1_do
                0x000000001001b858        0x0 Output\obj\driver\driver_adv_timer.o
 .rela.com_text.lp_port_init
                0x000000001001b858        0x0 Output\obj\driver\driver_adv_timer.o
 .rela.com_text.pwroff_mode2
                0x000000001001b858        0x0 Output\obj\driver\driver_adv_timer.o
 .rela.com_sleep.sleep
                0x000000001001b858        0x0 Output\obj\driver\driver_adv_timer.o
 .rela.text.qdec_init
                0x000000001001b858        0x0 Output\obj\driver\driver_adv_timer.o
 .rela.text.qdec_pic_config
                0x000000001001b858        0x0 Output\obj\driver\driver_adv_timer.o
 .rela.text.rtc_pic_config
                0x000000001001b858        0x0 Output\obj\driver\driver_adv_timer.o
 .rela.text.saradc_init
                0x000000001001b858        0x0 Output\obj\driver\driver_adv_timer.o
 .rela.text.saradc_deinit
                0x000000001001b858        0x0 Output\obj\driver\driver_adv_timer.o
 .rela.text.saradc_set_baud
                0x000000001001b858        0x0 Output\obj\driver\driver_adv_timer.o
 .rela.text.saradc_pic_config
                0x000000001001b858        0x0 Output\obj\driver\driver_adv_timer.o
 .rela.com_periph.saradc.get_data
                0x000000001001b858        0x0 Output\obj\driver\driver_adv_timer.o
 .rela.text.sdadc_init
                0x000000001001b858        0x0 Output\obj\driver\driver_adv_timer.o
 .rela.text.sdadc_deinit
                0x000000001001b858        0x0 Output\obj\driver\driver_adv_timer.o
 .rela.text.sdadc_pic_config
                0x000000001001b858        0x0 Output\obj\driver\driver_adv_timer.o
 .rela.com_periph.sddac.spr_set
                0x000000001001b858        0x0 Output\obj\driver\driver_adv_timer.o
 .rela.text.sddac_pic_config
                0x000000001001b858        0x0 Output\obj\driver\driver_adv_timer.o
 .rela.text.spi_init
                0x000000001001b858        0x0 Output\obj\driver\driver_adv_timer.o
 .rela.text.spi_pic_config
                0x000000001001b858        0x0 Output\obj\driver\driver_adv_timer.o
 .rela.text.tmr_pic_config
                0x000000001001b858        0x0 Output\obj\driver\driver_adv_timer.o
 .rela.com_periph.tkey.isr
                0x000000001001b858        0x0 Output\obj\driver\driver_adv_timer.o
 .rela.text.touch_key_isr_init
                0x000000001001b858        0x0 Output\obj\driver\driver_adv_timer.o
 .rela.text.touch_key_clk_init
                0x000000001001b858        0x0 Output\obj\driver\driver_adv_timer.o
 .rela.text.touch_key_init
                0x000000001001b858        0x0 Output\obj\driver\driver_adv_timer.o
 .rela.text.uart_init
                0x000000001001b858        0x0 Output\obj\driver\driver_adv_timer.o
 .rela.text.uart_pic_config
                0x000000001001b858        0x0 Output\obj\driver\driver_adv_timer.o
 .rela.text.uart_baud_config
                0x000000001001b858        0x0 Output\obj\driver\driver_adv_timer.o
 .rela.text.utils_ring_buf_init
                0x000000001001b858        0x0 Output\obj\driver\driver_adv_timer.o
 .rela.com_text.ring_buf.write
                0x000000001001b858        0x0 Output\obj\driver\driver_adv_timer.o
 .rela.com_text.ring_buf.read
                0x000000001001b858        0x0 Output\obj\driver\driver_adv_timer.o
 .rela.text.app.proc.func
                0x000000001001b858        0x0 Output\obj\driver\driver_adv_timer.o
 .rela.text.func.msg
                0x000000001001b858        0x0 Output\obj\driver\driver_adv_timer.o
 .rela.text.func
                0x000000001001b858        0x0 Output\obj\driver\driver_adv_timer.o
 .rela.text.app.proc.bt
                0x000000001001b858        0x0 Output\obj\driver\driver_adv_timer.o
 .rela.text.func.bt
                0x000000001001b858        0x0 Output\obj\driver\driver_adv_timer.o
 .rela.text.func.idle
                0x000000001001b858        0x0 Output\obj\driver\driver_adv_timer.o
 .rela.com_text.gpio.isr
                0x000000001001b858        0x0 Output\obj\driver\driver_adv_timer.o
 .rela.com_sleep.lv2
                0x000000001001b858        0x0 Output\obj\driver\driver_adv_timer.o
 .rela.com_text.sleep_tick
                0x000000001001b858        0x0 Output\obj\driver\driver_adv_timer.o
 .rela.text.bsp_gpio_wakeup_config
                0x000000001001b858        0x0 Output\obj\driver\driver_adv_timer.o
 .rela.text.lowpwr_sleep_wakeup_config
                0x000000001001b858        0x0 Output\obj\driver\driver_adv_timer.o
 .rela.com_sleep.lowpwr.sleep
                0x000000001001b858        0x0 Output\obj\driver\driver_adv_timer.o
 .rela.text.app.proc.sleep
                0x000000001001b858        0x0 Output\obj\driver\driver_adv_timer.o
 .rela.text.lowpwr_pwroff_wakeup_config
                0x000000001001b858        0x0 Output\obj\driver\driver_adv_timer.o
 .rela.text.lowpwr.pwroff
                0x000000001001b858        0x0 Output\obj\driver\driver_adv_timer.o
 .rela.text.ble_att_read_callback
                0x000000001001b858        0x0 Output\obj\driver\driver_adv_timer.o
 .rela.text.ble_client_notify_callback
                0x000000001001b858        0x0 Output\obj\driver\driver_adv_timer.o
 .rela.text.ble_client_event_callback
                0x000000001001b858        0x0 Output\obj\driver\driver_adv_timer.o
 .rela.text.ble_client_init
                0x000000001001b858        0x0 Output\obj\driver\driver_adv_timer.o
 .rela.text.ble_scan_en_test
                0x000000001001b858        0x0 Output\obj\driver\driver_adv_timer.o
 .rela.text.ble_write_test
                0x000000001001b858        0x0 Output\obj\driver\driver_adv_timer.o
 .rela.text.ble_read_test
                0x000000001001b858        0x0 Output\obj\driver\driver_adv_timer.o
 .rela.text.ble_enter_sleep_proc
                0x000000001001b858        0x0 Output\obj\driver\driver_adv_timer.o
 .rela.text.ble_exit_sleep_proc
                0x000000001001b858        0x0 Output\obj\driver\driver_adv_timer.o
 .rela.text.ble_txpkt_init
                0x000000001001b858        0x0 Output\obj\driver\driver_adv_timer.o
 .rela.text.ble_sm_param_init
                0x000000001001b858        0x0 Output\obj\driver\driver_adv_timer.o
 .rela.text.ble_scan_param_init
                0x000000001001b858        0x0 Output\obj\driver\driver_adv_timer.o
 .rela.text.ble_central_init
                0x000000001001b858        0x0 Output\obj\driver\driver_adv_timer.o
 .rela.text.bsp_ble_init
                0x000000001001b858        0x0 Output\obj\driver\driver_adv_timer.o
 .rela.text.bsp_charge_init
                0x000000001001b858        0x0 Output\obj\driver\driver_adv_timer.o
 .rela.com_text.key.scan
                0x000000001001b858        0x0 Output\obj\driver\driver_adv_timer.o
 .rela.text.bsp_key_init
                0x000000001001b858        0x0 Output\obj\driver\driver_adv_timer.o
 .rela.text.bsp.param
                0x000000001001b858        0x0 Output\obj\driver\driver_adv_timer.o
 .rela.text.bsp.param.fota
                0x000000001001b858        0x0 Output\obj\driver\driver_adv_timer.o
 .rela.text.bsp_saradc_init
                0x000000001001b858        0x0 Output\obj\driver\driver_adv_timer.o
 .rela.text.app.proc.saradc
                0x000000001001b858        0x0 Output\obj\driver\driver_adv_timer.o
 .rela.text.app.proc.vbat
                0x000000001001b858        0x0 Output\obj\driver\driver_adv_timer.o
 .rela.text.bsp_vbat_detect_init
                0x000000001001b858        0x0 Output\obj\driver\driver_adv_timer.o
 .rela.text.sys_ram_info_dump
                0x000000001001b858        0x0 Output\obj\driver\driver_adv_timer.o
 .rela.com_text.timer
                0x000000001001b858        0x0 Output\obj\driver\driver_adv_timer.o
 .rela.text.power_on_check
                0x000000001001b858        0x0 Output\obj\driver\driver_adv_timer.o
 .rela.text.bsp.sys.init
                0x000000001001b858        0x0 Output\obj\driver\driver_adv_timer.o
 .rela.text.bsp_periph_init
                0x000000001001b858        0x0 Output\obj\driver\driver_adv_timer.o
 .rela.text.bsp_uart_debug_init
                0x000000001001b858        0x0 Output\obj\driver\driver_adv_timer.o
 .rela.text.startup.main
                0x000000001001b858        0x0 Output\obj\driver\driver_adv_timer.o
 .rela.text.thread_create_callback
                0x000000001001b858        0x0 Output\obj\driver\driver_adv_timer.o
 .rela.text.ble_get_local_bd_addr
                0x000000001001b858        0x0 Output\obj\driver\driver_adv_timer.o
 .rela.text.bt_rf_get_param
                0x000000001001b858        0x0 Output\obj\driver\driver_adv_timer.o
 .rela.text.bt_rf_get_tx_pwr
                0x000000001001b858        0x0 Output\obj\driver\driver_adv_timer.o
 .rela.text.xosc_get_xcfg
                0x000000001001b858        0x0 Output\obj\driver\driver_adv_timer.o
 .rela.text.param_xosc_write
                0x000000001001b858        0x0 Output\obj\driver\driver_adv_timer.o
 .rela.com_text.spiflash
                0x000000001001b858        0x0 Output\obj\driver\driver_adv_timer.o
 .rela.text.ble_get_link_info
                0x000000001001b858        0x0 Output\obj\driver\driver_adv_timer.o
 .rela.text.ble_put_link_info
                0x000000001001b858        0x0 Output\obj\driver\driver_adv_timer.o
 .rela.text.mic_adc_init
                0x000000001001b858        0x0 Output\obj\driver\driver_adv_timer.o
 .rela.com_text.irq.sdadc
                0x000000001001b858        0x0 Output\obj\driver\driver_adv_timer.o
 .rela.text.cm_loadpage
                0x000000001001b858        0x0 Output\obj\driver\driver_adv_timer.o
 .rela.text.cm_next_freepage
                0x000000001001b858        0x0 Output\obj\driver\driver_adv_timer.o
 .rela.text.cm_factory
                0x000000001001b858        0x0 Output\obj\driver\driver_adv_timer.o
 .rela.text.cm_writepage
                0x000000001001b858        0x0 Output\obj\driver\driver_adv_timer.o
 .rela.text.cm_movepage
                0x000000001001b858        0x0 Output\obj\driver\driver_adv_timer.o
 .rela.text.cm_erase
                0x000000001001b858        0x0 Output\obj\driver\driver_adv_timer.o
 .rela.text.cm_release
                0x000000001001b858        0x0 Output\obj\driver\driver_adv_timer.o
 .rela.text.cm_savepage
                0x000000001001b858        0x0 Output\obj\driver\driver_adv_timer.o
 .rela.text.cm_check_loadpage
                0x000000001001b858        0x0 Output\obj\driver\driver_adv_timer.o
 .rela.text.cm_move_allpages
                0x000000001001b858        0x0 Output\obj\driver\driver_adv_timer.o
 .rela.text.cm_sync
                0x000000001001b858        0x0 Output\obj\driver\driver_adv_timer.o
 .rela.text.cm_release_all
                0x000000001001b858        0x0 Output\obj\driver\driver_adv_timer.o
 .rela.text.cm_read
                0x000000001001b858        0x0 Output\obj\driver\driver_adv_timer.o
 .rela.text.cm_read8
                0x000000001001b858        0x0 Output\obj\driver\driver_adv_timer.o
 .rela.text.cm_read16
                0x000000001001b858        0x0 Output\obj\driver\driver_adv_timer.o
 .rela.text.cm_read32
                0x000000001001b858        0x0 Output\obj\driver\driver_adv_timer.o
 .rela.text.cm_write
                0x000000001001b858        0x0 Output\obj\driver\driver_adv_timer.o
 .rela.text.cm_write8
                0x000000001001b858        0x0 Output\obj\driver\driver_adv_timer.o
 .rela.text.cm_write16
                0x000000001001b858        0x0 Output\obj\driver\driver_adv_timer.o
 .rela.text.cm_write32
                0x000000001001b858        0x0 Output\obj\driver\driver_adv_timer.o
 .rela.text.cm_clear
                0x000000001001b858        0x0 Output\obj\driver\driver_adv_timer.o
 .rela.text.cm_init
                0x000000001001b858        0x0 Output\obj\driver\driver_adv_timer.o
 .rela.com_text.spiflash.id
                0x000000001001b858        0x0 Output\obj\driver\driver_adv_timer.o
 .rela.com_text.spiflash.dev_id
                0x000000001001b858        0x0 Output\obj\driver\driver_adv_timer.o
 .rela.com_text.spiflash.read
                0x000000001001b858        0x0 Output\obj\driver\driver_adv_timer.o
 .rela.com_text.spiflash.protect.weak
                0x000000001001b858        0x0 Output\obj\driver\driver_adv_timer.o
 .rela.com_text.spiflash.erase_2
                0x000000001001b858        0x0 Output\obj\driver\driver_adv_timer.o
 .rela.com_text.spiflash.erase_32k
                0x000000001001b858        0x0 Output\obj\driver\driver_adv_timer.o
 .rela.com_text.spiflash.erase_64k
                0x000000001001b858        0x0 Output\obj\driver\driver_adv_timer.o
 .rela.text.xcfg_init
                0x000000001001b858        0x0 Output\obj\driver\driver_adv_timer.o
 .rela.com_text.exception.hook
                0x000000001001b858        0x0 Output\obj\driver\driver_adv_timer.o
 .rela.com_text.exception
                0x000000001001b858        0x0 Output\obj\driver\driver_adv_timer.o
 .rela.com_text.delay
                0x000000001001b858        0x0 Output\obj\driver\driver_adv_timer.o
 .rela.text.platform_main
                0x000000001001b858        0x0 Output\obj\driver\driver_adv_timer.o
 .rela.text.main_startup
                0x000000001001b858        0x0 Output\obj\driver\driver_adv_timer.o
 .rela.text.compiler
                0x000000001001b858        0x0 Output\obj\driver\driver_adv_timer.o
 .rela.com_text.irq
                0x000000001001b858        0x0 Output\obj\driver\driver_adv_timer.o
 .rela.text.sys_irq_init
                0x000000001001b858        0x0 Output\obj\driver\driver_adv_timer.o
 .rela.text.soft_irq_init
                0x000000001001b858        0x0 Output\obj\driver\driver_adv_timer.o
 .rela.text.bthw_irq_init
                0x000000001001b858        0x0 Output\obj\driver\driver_adv_timer.o
 .rela.text.watch_point_set
                0x000000001001b858        0x0 Output\obj\driver\driver_adv_timer.o
 .rela.text.usb_irq_init
                0x000000001001b858        0x0 Output\obj\driver\driver_adv_timer.o
 .rela.text.sys_timer_init
                0x000000001001b858        0x0 Output\obj\driver\driver_adv_timer.o
 .rela.text.thread_driver_create
                0x000000001001b858        0x0 Output\obj\driver\driver_adv_timer.o
 .rela.text.thread_aupcm_create
                0x000000001001b858        0x0 Output\obj\driver\driver_adv_timer.o
 .rela.text.thread_btstack_create
                0x000000001001b858        0x0 Output\obj\driver\driver_adv_timer.o
 .rela.text.thread_main_entry
                0x000000001001b858        0x0 Output\obj\driver\driver_adv_timer.o
 .rela.text.startup.init
                0x000000001001b858        0x0 Output\obj\driver\driver_adv_timer.o
 .rela.com_text.thread.driver
                0x000000001001b858        0x0 Output\obj\driver\driver_adv_timer.o
 .rela.com_text.thread.aupcm
                0x000000001001b858        0x0 Output\obj\driver\driver_adv_timer.o
 .rela.com_text.thread.driver.usb
                0x000000001001b858        0x0 Output\obj\driver\driver_adv_timer.o
 .rela.com_text.thread.driver.vs
                0x000000001001b858        0x0 Output\obj\driver\driver_adv_timer.o
 .rela.text.thread.driver.usb
                0x000000001001b858        0x0 Output\obj\driver\driver_adv_timer.o
 .rela.text.thread.driver.vs
                0x000000001001b858        0x0 Output\obj\driver\driver_adv_timer.o
 .rela.com_text.thread.driver.enter
                0x000000001001b858        0x0 Output\obj\driver\driver_adv_timer.o
 .rela.text.pll0_vco_band_trimming
                0x000000001001b858        0x0 Output\obj\driver\driver_adv_timer.o
 .rela.text.pll0_init
                0x000000001001b858        0x0 Output\obj\driver\driver_adv_timer.o
 .rela.com_text.trim.vddio_get
                0x000000001001b858        0x0 Output\obj\driver\driver_adv_timer.o
 .rela.com_text.trim.vbg_get
                0x000000001001b858        0x0 Output\obj\driver\driver_adv_timer.o
 .rela.com_text.trim.vddio_set
                0x000000001001b858        0x0 Output\obj\driver\driver_adv_timer.o
 .rela.com_text.trim.core_get
                0x000000001001b858        0x0 Output\obj\driver\driver_adv_timer.o
 .rela.com_text.trim.core_set
                0x000000001001b858        0x0 Output\obj\driver\driver_adv_timer.o
 .rela.com_text.trim.lvd_get
                0x000000001001b858        0x0 Output\obj\driver\driver_adv_timer.o
 .rela.com_text.trim.lvd_set
                0x000000001001b858        0x0 Output\obj\driver\driver_adv_timer.o
 .rela.text.pmu_voltage_configure
                0x000000001001b858        0x0 Output\obj\driver\driver_adv_timer.o
 .rela.text.pmu_init
                0x000000001001b858        0x0 Output\obj\driver\driver_adv_timer.o
 .rela.reset    0x000000001001b858        0x0 Output\obj\driver\driver_adv_timer.o
 .rela.com_text.spiflash.erase
                0x000000001001b858        0x0 Output\obj\driver\driver_adv_timer.o
 .rela.com_text.spiflash.read_kick
                0x000000001001b858        0x0 Output\obj\driver\driver_adv_timer.o
 .rela.text.ota_pack
                0x000000001001b858        0x0 Output\obj\driver\driver_adv_timer.o
 .rela.text.lock_code_usbdev
                0x000000001001b858        0x0 Output\obj\driver\driver_adv_timer.o
 .rela.text.patch_init
                0x000000001001b858        0x0 Output\obj\driver\driver_adv_timer.o
 .rela.com_sleep.lp.sleep
                0x000000001001b858        0x0 Output\obj\driver\driver_adv_timer.o
 .rela.text.set_sys_clk_do
                0x000000001001b858        0x0 Output\obj\driver\driver_adv_timer.o
 .rela.text.sys_clk
                0x000000001001b858        0x0 Output\obj\driver\driver_adv_timer.o
 .rela.text.voltage.trim
                0x000000001001b858        0x0 Output\obj\driver\driver_adv_timer.o
 .rela.com_text.stack.api
                0x000000001001b858        0x0 Output\obj\driver\driver_adv_timer.o
 .rela.com_text.stack.run_loop
                0x000000001001b858        0x0 Output\obj\driver\driver_adv_timer.o
 .rela.text     0x000000001001b858        0x0 Output\obj\driver\driver_adv_timer.o
 .rela.text.stack.hci_init
                0x000000001001b858        0x0 Output\obj\driver\driver_adv_timer.o
 .rela.text.stack.setup
                0x000000001001b858        0x0 Output\obj\driver\driver_adv_timer.o
 .rela.text.stack.hci
                0x000000001001b858        0x0 Output\obj\driver\driver_adv_timer.o
 .rela.text.stack.hci.conn
                0x000000001001b858        0x0 Output\obj\driver\driver_adv_timer.o
 .rela.com_text.stack.linked_list
                0x000000001001b858        0x0 Output\obj\driver\driver_adv_timer.o
 .rela.com_text.stack.hci
                0x000000001001b858        0x0 Output\obj\driver\driver_adv_timer.o
 .rela.text.stack.send.hci
                0x000000001001b858        0x0 Output\obj\driver\driver_adv_timer.o
 .rela.text.ble.hci
                0x000000001001b858        0x0 Output\obj\driver\driver_adv_timer.o
 .rela.text.stack.hci_send
                0x000000001001b858        0x0 Output\obj\driver\driver_adv_timer.o
 .rela.text.stack.hci.run
                0x000000001001b858        0x0 Output\obj\driver\driver_adv_timer.o
 .rela.com_text.stack.hci_recv
                0x000000001001b858        0x0 Output\obj\driver\driver_adv_timer.o
 .rela.text.sm.aes
                0x000000001001b858        0x0 Output\obj\driver\driver_adv_timer.o
 .rela.text.sm.rau_run
                0x000000001001b858        0x0 Output\obj\driver\driver_adv_timer.o
 .rela.text.gap.rau.update
                0x000000001001b858        0x0 Output\obj\driver\driver_adv_timer.o
 .rela.text.stack.ble.sm
                0x000000001001b858        0x0 Output\obj\driver\driver_adv_timer.o
 .rela.text.sm.request
                0x000000001001b858        0x0 Output\obj\driver\driver_adv_timer.o
 .rela.text.sm.pairing
                0x000000001001b858        0x0 Output\obj\driver\driver_adv_timer.o
 .rela.text.gap.rau.mode
                0x000000001001b858        0x0 Output\obj\driver\driver_adv_timer.o
 .rela.text.sm.run
                0x000000001001b858        0x0 Output\obj\driver\driver_adv_timer.o
 .rela.text.sm.pdu
                0x000000001001b858        0x0 Output\obj\driver\driver_adv_timer.o
 .rela.text.sm.event
                0x000000001001b858        0x0 Output\obj\driver\driver_adv_timer.o
 .rela.text.gap.rau_set
                0x000000001001b858        0x0 Output\obj\driver\driver_adv_timer.o
 .rela.text.sm.delete_bonding
                0x000000001001b858        0x0 Output\obj\driver\driver_adv_timer.o
 .rela.text.le.db.get
                0x000000001001b858        0x0 Output\obj\driver\driver_adv_timer.o
 .rela.text.le.db.set
                0x000000001001b858        0x0 Output\obj\driver\driver_adv_timer.o
 .rela.text.le.db.write
                0x000000001001b858        0x0 Output\obj\driver\driver_adv_timer.o
 .rela.text.le.db.read
                0x000000001001b858        0x0 Output\obj\driver\driver_adv_timer.o
 .rela.text.le.db.init
                0x000000001001b858        0x0 Output\obj\driver\driver_adv_timer.o
 .rela.text.le.db.remove
                0x000000001001b858        0x0 Output\obj\driver\driver_adv_timer.o
 .rela.text.le.db.remove_all
                0x000000001001b858        0x0 Output\obj\driver\driver_adv_timer.o
 .rela.text.le.db.add
                0x000000001001b858        0x0 Output\obj\driver\driver_adv_timer.o
 .rela.text.le.db
                0x000000001001b858        0x0 Output\obj\driver\driver_adv_timer.o
 .rela.text.le.db.dump
                0x000000001001b858        0x0 Output\obj\driver\driver_adv_timer.o
 .rela.text.client.request_can_send
                0x000000001001b858        0x0 Output\obj\driver\driver_adv_timer.o
 .rela.text.client.write_req
                0x000000001001b858        0x0 Output\obj\driver\driver_adv_timer.o
 .rela.text.sm.client
                0x000000001001b858        0x0 Output\obj\driver\driver_adv_timer.o
 .rela.text.client.send
                0x000000001001b858        0x0 Output\obj\driver\driver_adv_timer.o
 .rela.text.sm.server
                0x000000001001b858        0x0 Output\obj\driver\driver_adv_timer.o
 .rela.text.server.init
                0x000000001001b858        0x0 Output\obj\driver\driver_adv_timer.o
 .rela.com_text.server.req_can_send
                0x000000001001b858        0x0 Output\obj\driver\driver_adv_timer.o
 .rela.text.server.packet_handler
                0x000000001001b858        0x0 Output\obj\driver\driver_adv_timer.o
 .rela.text.att.event_handler
                0x000000001001b858        0x0 Output\obj\driver\driver_adv_timer.o
 .rela.text.stack.send.ntf
                0x000000001001b858        0x0 Output\obj\driver\driver_adv_timer.o
 .rela.text.server.indicate
                0x000000001001b858        0x0 Output\obj\driver\driver_adv_timer.o
 .rela.text.att.register_client
                0x000000001001b858        0x0 Output\obj\driver\driver_adv_timer.o
 .rela.text.att.register_server
                0x000000001001b858        0x0 Output\obj\driver\driver_adv_timer.o
 .rela.text.att.dispatch
                0x000000001001b858        0x0 Output\obj\driver\driver_adv_timer.o
 .rela.text.att.dispatch_client
                0x000000001001b858        0x0 Output\obj\driver\driver_adv_timer.o
 .rela.com_text.att.dispatch_server
                0x000000001001b858        0x0 Output\obj\driver\driver_adv_timer.o
 .rela.text.att.mtu_request
                0x000000001001b858        0x0 Output\obj\driver\driver_adv_timer.o
 .rela.text.stack.hcic
                0x000000001001b858        0x0 Output\obj\driver\driver_adv_timer.o
 .rela.com_text.stack.hcic
                0x000000001001b858        0x0 Output\obj\driver\driver_adv_timer.o
 .rela.text.stack.sleep
                0x000000001001b858        0x0 Output\obj\driver\driver_adv_timer.o
 .rela.text.stack.api
                0x000000001001b858        0x0 Output\obj\driver\driver_adv_timer.o
 .rela.com_text.ret.bb.sleep
                0x000000001001b858        0x0 Output\obj\driver\driver_adv_timer.o
 .rela.rodata.stack.api
                0x000000001001b858        0x0 Output\obj\driver\driver_adv_timer.o
 .rela.com_text.bt.timer
                0x000000001001b858        0x0 Output\obj\driver\driver_adv_timer.o
 .rela.text.ble.api.max_mtu
                0x000000001001b858        0x0 Output\obj\driver\driver_adv_timer.o
 .rela.text.ble.api.regist
                0x000000001001b858        0x0 Output\obj\driver\driver_adv_timer.o
 .rela.com_sleep.bb
                0x000000001001b858        0x0 Output\obj\driver\driver_adv_timer.o
 .rela.text.rf.tx_tone
                0x000000001001b858        0x0 Output\obj\driver\driver_adv_timer.o
 .rela.text.le.mgr
                0x000000001001b858        0x0 Output\obj\driver\driver_adv_timer.o
 .rela.rodata.le.mgr_cntl.tbl
                0x000000001001b858        0x0 Output\obj\driver\driver_adv_timer.o
 .rela.text.le.ll_scan
                0x000000001001b858        0x0 Output\obj\driver\driver_adv_timer.o
 .rela.com_text.ble.isr
                0x000000001001b858        0x0 Output\obj\driver\driver_adv_timer.o
 .rela.com_text.ble.isr.con.end
                0x000000001001b858        0x0 Output\obj\driver\driver_adv_timer.o
 .rela.com_text.bb.isr.timer
                0x000000001001b858        0x0 Output\obj\driver\driver_adv_timer.o
 .rela.com_text.bb.isr
                0x000000001001b858        0x0 Output\obj\driver\driver_adv_timer.o
 .rela.text.bb.aes
                0x000000001001b858        0x0 Output\obj\driver\driver_adv_timer.o
 .rela.com_text.bb.run_loop
                0x000000001001b858        0x0 Output\obj\driver\driver_adv_timer.o
 .rela.rodata   0x000000001001b858        0x0 Output\obj\driver\driver_adv_timer.o
 .rela.text.stack.send.ntf_do
                0x000000001001b858        0x0 Output\obj\driver\driver_adv_timer.o
 .rela.text.ble.indicate
                0x000000001001b858        0x0 Output\obj\driver\driver_adv_timer.o
 .rela.text.stack.send.server
                0x000000001001b858        0x0 Output\obj\driver\driver_adv_timer.o
 .rela.text.stack.h3c
                0x000000001001b858        0x0 Output\obj\driver\driver_adv_timer.o
 .rela.com_text.stack.h3c
                0x000000001001b858        0x0 Output\obj\driver\driver_adv_timer.o
 .rela.com_text.stack.util
                0x000000001001b858        0x0 Output\obj\driver\driver_adv_timer.o
 .rela.text.stack.ble.setup
                0x000000001001b858        0x0 Output\obj\driver\driver_adv_timer.o
 .rela.com_text.stack.uart_isr
                0x000000001001b858        0x0 Output\obj\driver\driver_adv_timer.o
 .rela.text.stack.hal
                0x000000001001b858        0x0 Output\obj\driver\driver_adv_timer.o
 .rela.com_text.bb.prog
                0x000000001001b858        0x0 Output\obj\driver\driver_adv_timer.o
 .rela.com_sleep.rfphy
                0x000000001001b858        0x0 Output\obj\driver\driver_adv_timer.o
 .rela.text.le.ll_cntl.pdu
                0x000000001001b858        0x0 Output\obj\driver\driver_adv_timer.o
 .rela.text.le.ll_cntl.send
                0x000000001001b858        0x0 Output\obj\driver\driver_adv_timer.o
 .rela.rodata.le.ll_cntl.tbl
                0x000000001001b858        0x0 Output\obj\driver\driver_adv_timer.o
 .rela.text.le.ll_cntl
                0x000000001001b858        0x0 Output\obj\driver\driver_adv_timer.o
 .rela.text.le.ll_cntl.start
                0x000000001001b858        0x0 Output\obj\driver\driver_adv_timer.o
 .rela.text.le.ll_cntl.state
                0x000000001001b858        0x0 Output\obj\driver\driver_adv_timer.o
 .rela.text.le.ll_cntl.stop
                0x000000001001b858        0x0 Output\obj\driver\driver_adv_timer.o
 .rela.text.bb.ble.test.start
                0x000000001001b858        0x0 Output\obj\driver\driver_adv_timer.o
 .rela.text.ble.var.init
                0x000000001001b858        0x0 Output\obj\driver\driver_adv_timer.o
 .rela.text.bb.vs.fcc
                0x000000001001b858        0x0 Output\obj\driver\driver_adv_timer.o
 .rela.com_rodata.bb.tbl
                0x000000001001b858        0x0 Output\obj\driver\driver_adv_timer.o
 .rela.text.le.ll_proc.disc
                0x000000001001b858        0x0 Output\obj\driver\driver_adv_timer.o
                0x000000001001b858        0x4 LONG 0x0
                0x000000001001ba00                . = ALIGN (0x200)
 *fill*         0x000000001001b85c      0x1a4 

.stack          0x0000000000010800      0x400
                0x0000000000010800                __irq_stack_start = .
                0x0000000000000400                . = 0x400
 *fill*         0x0000000000010800      0x400 
                0x0000000000010c00                __irq_stack = .
                0x0000000000000400                __irq_stack_size = (__irq_stack - __irq_stack_start)

.bss            0x0000000000013c00     0x1b98
                0x0000000000013c00                __heap_start = .
 *(.mem_heap)
 .mem_heap      0x0000000000013c00     0x11b4 Output\obj\project\ble_central\strong_symbol.o
                0x0000000000013c00                mem_heap
                0x0000000000014db4                __heap_end = .
                0x0000000000014db4                __bss_start = .
 *(COMMON)
 COMMON         0x0000000000014db4       0x20 Output\obj\project\ble_central\app\func_lowpwr.o
                0x0000000000014db4                sfr_user_backup
 COMMON         0x0000000000014dd4       0x38 Output\obj\project\ble_central\bsp\bsp_sys.o
                0x0000000000014dd4                tmr5ms_cnt
                0x0000000000014dd8                xcfg_cb
 COMMON         0x0000000000014e0c        0x1 Output\obj\project\ble_central\strong_symbol.o
                0x0000000000014e0c                cfg_bt_rf_def_txpwr
 *(.bss*)
 *fill*         0x0000000000014e0d        0x3 
 .bss.charge_ctrl
                0x0000000000014e10       0x10 Output\obj\driver\driver_charge.o
 .bss.sfr_backup
                0x0000000000014e20       0x60 Output\obj\driver\driver_lowpwr.o
 .bss.client_handler
                0x0000000000014e80       0x10 Output\obj\project\ble_central\ble\ble_client.o
 .bss.server_info
                0x0000000000014e90      0x27c Output\obj\project\ble_central\ble\ble_client.o
 .bss.filter_buf.4661
                0x000000000001510c       0x14 Output\obj\project\ble_central\bsp\bsp_saradc_vbat.o
 .bss.cpu_gprs  0x0000000000015120       0x80 ..\..\libs\cpu\libplatform.a(main.o)
                0x0000000000015120                cpu_gprs
 .bss.sys       0x00000000000151a0       0x18 ..\..\libs\cpu\libplatform.a(main.o)
                0x00000000000151a0                sys
 .bss.irq_tbl   0x00000000000151b8       0x84 ..\..\libs\cpu\libplatform.a(interrupt.o)
                0x00000000000151b8                tbl_irq_vector
                0x0000000000015238                irq_mask
 .bss.soft_timer
                0x000000000001523c       0x28 ..\..\libs\cpu\libplatform.a(startup.o)
 .bss.thread.btstack
                0x0000000000015264        0x8 ..\..\libs\cpu\libplatform.a(startup.o)
                0x0000000000015264                psem_btstack
                0x0000000000015268                pmq_btstack
 *fill*         0x000000000001526c        0x4 
 .bss.lock_cb   0x0000000000015270       0x10 ..\..\libs\cpu\libplatform.a(lock.o)
 .bss.fix_buf   0x0000000000015280        0xc ..\..\libs\cpu\libplatform.a(sleep.o)
                0x0000000000015280                fix_buf
 .bss.sys_trim  0x000000000001528c       0x10 ..\..\libs\cpu\libplatform.a(voltage_trim.o)
                0x000000000001528c                sys_trim
 .bss           0x000000000001529c       0x30 ..\..\libs\ble\libbtstack_central.a(sm.o)
 .bss           0x00000000000152cc       0x1c ..\..\libs\ble\libbtstack_central.a(hct_tl.o)
 .bss           0x00000000000152e8       0xe0 ..\..\libs\ble\libbtstack_central.a(ble_buf.o)
 .bss           0x00000000000153c8       0xe8 ..\..\libs\ble\libbtstack_central.a(btstack_memory.o)
 .bss           0x00000000000154b0      0x130 ..\..\libs\ble\libbtstack_central.a(bb_sche.o)
 .bss           0x00000000000155e0        0xc ..\..\libs\ble\libbtstack_central.a(aes.o)
                0x00000000000155e0                aes_env
 *(.sbss*)
 .sbss.charge_status
                0x00000000000155ec        0x7 Output\obj\driver\driver_charge.o
 *fill*         0x00000000000155f3        0x1 
 .sbss.wkupedg_bak
                0x00000000000155f4        0x4 Output\obj\driver\driver_lowpwr.o
 .sbss.ble_conn_param
                0x00000000000155f8        0x6 Output\obj\project\ble_central\ble\ble_client.o
 *fill*         0x00000000000155fe        0x2 
 .sbss.tc_state
                0x0000000000015600        0x4 Output\obj\project\ble_central\ble\ble_client.o
 .sbss.cfg_bt_work_mode
                0x0000000000015604        0x4 Output\obj\project\ble_central\ble\ble_init.o
                0x0000000000015604                cfg_bt_work_mode
 .sbss.delay_cnt1.4586
                0x0000000000015608        0x4 Output\obj\project\ble_central\bsp\bsp_charge.o
 .sbss.delay_cnt2.4587
                0x000000000001560c        0x4 Output\obj\project\ble_central\bsp\bsp_charge.o
 .sbss.key_status
                0x0000000000015610        0x6 Output\obj\project\ble_central\bsp\bsp_key.o
 *fill*         0x0000000000015616        0x2 
 .sbss.tick.4500
                0x0000000000015618        0x4 Output\obj\project\ble_central\bsp\bsp_saradc.o
 .sbss.auto_off_count.4671
                0x000000000001561c        0x1 Output\obj\project\ble_central\bsp\bsp_saradc_vbat.o
 .sbss.index.4660
                0x000000000001561d        0x1 Output\obj\project\ble_central\bsp\bsp_saradc_vbat.o
 *fill*         0x000000000001561e        0x2 
 .sbss.vbat_voltage
                0x0000000000015620        0x4 Output\obj\project\ble_central\bsp\bsp_saradc_vbat.o
 .sbss.cfg_bt_hsec_wakeup_en
                0x0000000000015624        0x1 Output\obj\project\ble_central\strong_symbol.o
                0x0000000000015624                cfg_bt_hsec_wakeup_en
 *fill*         0x0000000000015625        0x3 
 .sbss.spi_baud_r
                0x0000000000015628        0x4 ..\..\libs\cpu\libplatform.a(os_flash.o)
                0x0000000000015628                spi_baud_r
 .sbss.spi_baud_w
                0x000000000001562c        0x4 ..\..\libs\cpu\libplatform.a(os_flash.o)
                0x000000000001562c                spi_baud_w
 .sbss.ms_tick  0x0000000000015630        0x4 ..\..\libs\cpu\libplatform.a(interrupt.o)
                0x0000000000015630                ms_tick
 .sbss.os_tick_cnt
                0x0000000000015634        0x4 ..\..\libs\cpu\libplatform.a(interrupt.o)
                0x0000000000015634                os_tick_cnt
 .sbss.p_thread_cfg_cb
                0x0000000000015638        0x4 ..\..\libs\cpu\libplatform.a(startup.o)
                0x0000000000015638                p_thread_cfg_cb
 .sbss.pmutex_clk
                0x000000000001563c        0x4 ..\..\libs\cpu\libplatform.a(startup.o)
                0x000000000001563c                pmutex_clk
 .sbss.pmutex_cm
                0x0000000000015640        0x4 ..\..\libs\cpu\libplatform.a(startup.o)
                0x0000000000015640                pmutex_cm
 .sbss.soft_timer_isr_en
                0x0000000000015644        0x4 ..\..\libs\cpu\libplatform.a(startup.o)
                0x0000000000015644                soft_timer_isr_en
 .sbss.flash_manufacturer_id
                0x0000000000015648        0x1 ..\..\libs\cpu\libplatform.a(spiflash.o)
                0x0000000000015648                flash_manufacturer_id
 .sbss.fot_update_success
                0x0000000000015649        0x1 ..\..\libs\cpu\libplatform.a(fot_pack.o)
 *fill*         0x000000000001564a        0x2 
 .sbss.tbl_double_key
                0x000000000001564c        0x4 ..\..\libs\cpu\libplatform.a(key.o)
 .sbss.tbl_double_key_cnt
                0x0000000000015650        0x1 ..\..\libs\cpu\libplatform.a(key.o)
 *fill*         0x0000000000015651        0x3 
 .sbss.lowpwr_sfr_save
                0x0000000000015654        0x8 ..\..\libs\cpu\libplatform.a(sleep.o)
 .sbss.bt_thread_res
                0x000000000001565c        0x4 ..\..\libs\cpu\libplatform.a(bt.o)
                0x000000000001565c                bt_thread_res
 .sbss          0x0000000000015660        0x4 ..\..\libs\ble\libbtstack_central.a(hci.o)
 .sbss          0x0000000000015664       0x10 ..\..\libs\ble\libbtstack_central.a(sm.o)
 .sbss          0x0000000000015674        0x4 ..\..\libs\ble\libbtstack_central.a(gatt_client.o)
 .sbss          0x0000000000015678        0xc ..\..\libs\ble\libbtstack_central.a(att_server.o)
 .sbss          0x0000000000015684        0xc ..\..\libs\ble\libbtstack_central.a(att_dispatch.o)
 .sbss          0x0000000000015690       0x10 ..\..\libs\ble\libbtstack_central.a(att_db.o)
 .sbss          0x00000000000156a0        0x4 ..\..\libs\ble\libbtstack_central.a(hci_transport_hcic.o)
 .sbss          0x00000000000156a4       0x1c ..\..\libs\ble\libbtstack_central.a(btstack_api.o)
                0x00000000000156a4                fcc_cfg_cb
                0x00000000000156ac                random_static_addr
                0x00000000000156b4                btstack_cb
                0x00000000000156b8                conn_param
 .sbss          0x00000000000156c0        0x2 ..\..\libs\ble\libbtstack_central.a(bb.o)
 .sbss          0x00000000000156c2        0x2 ..\..\libs\ble\libbtstack_central.a(l2cap.o)
 .sbss          0x00000000000156c4        0x4 ..\..\libs\ble\libbtstack_central.a(btstack_memory.o)
 .sbss          0x00000000000156c8        0xc ..\..\libs\ble\libbtstack_central.a(btstack_main.o)
 .sbss          0x00000000000156d4        0x8 ..\..\libs\ble\libbtstack_central.a(bb_sche.o)
                0x00000000000156d4                ss_params
 .sbss          0x00000000000156dc        0x8 ..\..\libs\ble\libbtstack_central.a(rf_xbox.o)
                0x00000000000156dc                q_sum
                0x00000000000156e0                i_sum
 .sbss          0x00000000000156e4        0x1 ..\..\libs\ble\libbtstack_central.a(mgr_proc.o)
 *fill*         0x00000000000156e5        0x3 
 .sbss          0x00000000000156e8        0x3 ..\..\libs\ble\libbtstack_central.a(ll_proc.o)
 *(.buf*)
 *fill*         0x00000000000156eb        0x1 
 .buf.func_cb   0x00000000000156ec        0x2 Output\obj\project\ble_central\app\func.o
                0x00000000000156ec                func_cb
 *fill*         0x00000000000156ee        0x2 
 .buf.bsp.sys_cb
                0x00000000000156f0       0x14 Output\obj\project\ble_central\bsp\bsp_sys.o
                0x00000000000156f0                sys_cb
 .buf.key.cb    0x0000000000015704       0x10 ..\..\libs\cpu\libplatform.a(key.o)
 *(.btmem.stack.l2cap)
 .btmem.stack.l2cap
                0x0000000000015714       0x84 ..\..\libs\ble\libbtstack_central.a(l2cap.o)
                0x0000000000015798                __bss_end = .
                0x00000000000009e4                __bss_size = (__bss_end - __bss_start)
                0x00000000000011b4                __heap_size = (__heap_end - __heap_start)

.bram           0x0000000000018000     0x46a0
                0x0000000000018000                __bram_start = .
 *(.btmem.bthw)
 .btmem.bthw    0x0000000000018000     0x1c00 ..\..\libs\ble\libbtstack_central.a(bb.o)
                0x0000000000018000                bthw_mem
 *(.btmem*)
 .btmem.spi     0x0000000000019c00      0x28c ..\..\libs\cpu\libplatform.a(cm.o)
 .btmem.cache.stack.hci
                0x0000000000019e8c      0x631 ..\..\libs\ble\libbtstack_central.a(hci.o)
 *fill*         0x000000000001a4bd        0x3 
 .btmem.stack.hci_buf
                0x000000000001a4c0      0x5b4 ..\..\libs\ble\libbtstack_central.a(hci.o)
 .btmem.stack.util
                0x000000000001aa74       0x12 ..\..\libs\ble\libbtstack_central.a(btstack_util.o)
 *fill*         0x000000000001aa86        0x2 
 .btmem.hci.transport
                0x000000000001aa88       0x24 ..\..\libs\ble\libbtstack_central.a(hci_transport_hcic.o)
                0x000000000001aaa8                p_hci_transport
 .btmem.rf.dc   0x000000000001aaac       0x48 ..\..\libs\ble\libbtstack_central.a(rf.o)
                0x000000000001aaac                rf_dc_trim
 .btmem.bb.hci  0x000000000001aaf4        0x3 ..\..\libs\ble\libbtstack_central.a(hct.o)
                0x000000000001aaf4                hci_env
 *fill*         0x000000000001aaf7        0x1 
 .btmem.ble.lm  0x000000000001aaf8      0x1b8 ..\..\libs\ble\libbtstack_central.a(mgr.o)
                0x000000000001aaf8                mgr_env
 .btmem.ble.scan
                0x000000000001acb0        0x8 ..\..\libs\ble\libbtstack_central.a(ble_scan.o)
 .btmem.ble.hal
                0x000000000001acb8      0x127 ..\..\libs\ble\libbtstack_central.a(ble_hal.o)
                0x000000000001acb8                ble_env
                0x000000000001add4                ble_exp_sync_pos_tab
 *fill*         0x000000000001addf        0x1 
 .btmem.ble.con
                0x000000000001ade0        0xc ..\..\libs\ble\libbtstack_central.a(ble_con.o)
                0x000000000001ade0                ble_con_env
 .btmem.ble.buf
                0x000000000001adec       0x30 ..\..\libs\ble\libbtstack_central.a(ble_buf.o)
 .btmem.bb.env  0x000000000001ae1c       0x68 ..\..\libs\ble\libbtstack_central.a(bb_int.o)
                0x000000000001ae1c                bb_env
 .btmem.alloc.bb.buf
                0x000000000001ae84      0xb20 ..\..\libs\ble\libbtstack_central.a(bb.o)
 .btmem.bb.buf  0x000000000001b9a4      0x530 ..\..\libs\ble\libbtstack_central.a(bb.o)
 .btmem.bb.rf   0x000000000001bed4        0x6 ..\..\libs\ble\libbtstack_central.a(bb.o)
                0x000000000001bed4                rf_api
 *fill*         0x000000000001beda        0x2 
 .btmem.stack   0x000000000001bedc       0x14 ..\..\libs\ble\libbtstack_central.a(btstack_run_loop.o)
 .btmem.bb.buf  0x000000000001bef0       0x2c ..\..\libs\ble\libbtstack_central.a(nanos.o)
 .btmem.bb.rf   0x000000000001bf1c        0x7 ..\..\libs\ble\libbtstack_central.a(rf_xbox.o)
 *fill*         0x000000000001bf23        0x1 
 .btmem.ble.lc  0x000000000001bf24        0xc ..\..\libs\ble\libbtstack_central.a(ll.o)
                0x000000000001bf24                ll_env
 .btmem.ble.test
                0x000000000001bf30        0x4 ..\..\libs\ble\libbtstack_central.a(ble_test.o)
 .btmem.ble.init
                0x000000000001bf34        0x4 ..\..\libs\ble\libbtstack_central.a(ble_init.o)
 .btmem.bb.ble.tbl
                0x000000000001bf38       0x10 ..\..\libs\ble\libbtstack_central.a(ble.o)
 .btmem.bb.vs   0x000000000001bf48        0xd ..\..\libs\ble\libbtstack_central.a(vs_proc.o)
                0x000000000001bf48                vs_env
 *(.ble_cache*)
 *fill*         0x000000000001bf55        0x3 
 .ble_cache.att
                0x000000000001bf58      0x460 Output\obj\project\ble_central\ble\ble_init.o
                0x000000000001bf58                ble_tx_pool
 .ble_cache.att
                0x000000000001c3b8       0x10 ..\..\libs\ble\libbtstack_central.a(txpkt.o)
                0x000000000001c3b8                ble_tx
 .ble_cache.sm  0x000000000001c3c8        0x8 ..\..\libs\ble\libbtstack_central.a(sm.o)
 .ble_cache.sm.addr
                0x000000000001c3d0        0x6 ..\..\libs\ble\libbtstack_central.a(sm.o)
 *fill*         0x000000000001c3d6        0x2 
 .ble_cache.sm.aes
                0x000000000001c3d8        0x8 ..\..\libs\ble\libbtstack_central.a(sm.o)
 .ble_cache.sm.auth
                0x000000000001c3e0        0x1 ..\..\libs\ble\libbtstack_central.a(sm.o)
 *fill*         0x000000000001c3e1        0x3 
 .ble_cache.sm.cmac
                0x000000000001c3e4       0x45 ..\..\libs\ble\libbtstack_central.a(sm.o)
 *fill*         0x000000000001c429        0x3 
 .ble_cache.sm.dhk
                0x000000000001c42c       0x10 ..\..\libs\ble\libbtstack_central.a(sm.o)
 .ble_cache.sm.er
                0x000000000001c43c       0x10 ..\..\libs\ble\libbtstack_central.a(sm.o)
 .ble_cache.sm.io
                0x000000000001c44c        0x1 ..\..\libs\ble\libbtstack_central.a(sm.o)
 *fill*         0x000000000001c44d        0x3 
 .ble_cache.sm.ir
                0x000000000001c450       0x10 ..\..\libs\ble\libbtstack_central.a(sm.o)
 .ble_cache.sm.irk
                0x000000000001c460       0x10 ..\..\libs\ble\libbtstack_central.a(sm.o)
 .ble_cache.sm.rand
                0x000000000001c470        0x4 ..\..\libs\ble\libbtstack_central.a(sm.o)
 .ble_cache.sm.req
                0x000000000001c474        0x1 ..\..\libs\ble\libbtstack_central.a(sm.o)
 *fill*         0x000000000001c475        0x3 
 .ble_cache.sm.resolution
                0x000000000001c478       0x18 ..\..\libs\ble\libbtstack_central.a(sm.o)
 .ble_cache.sm.setup
                0x000000000001c490      0x100 ..\..\libs\ble\libbtstack_central.a(sm.o)
 .ble_cache.sm.sta
                0x000000000001c590        0x8 ..\..\libs\ble\libbtstack_central.a(sm.o)
 *(.ble_buf*)
 .ble_buf.att   0x000000000001c598       0xe0 ..\..\libs\ble\libbtstack_central.a(le_device_db_memory.o)
                0x000000000001c598                le_devices
 .ble_buf.att   0x000000000001c678       0x28 ..\..\libs\ble\libbtstack_central.a(gatt_client.o)
 *(.codec*)
 *(.fot_data.*)
 *(.dut.huart_buf)
 *(.hci.h3*)
 *(.prod_test*)
                0x000000000001c6a0                __bram_end = .
                0x00000000000046a0                __bram_size = (__bram_end - __bram_start)
                0x0000000000018800                __bank_size = SIZEOF (.flash)
                0x0000000010000200                __comm_lma = LOADADDR (.comm)
                0x0000000000003000                __comm_size = SIZEOF (.comm)
LOAD ..\..\libs\cpu\libplatform.a
LOAD ..\..\libs\cpu\libm.a
LOAD ..\..\libs\cpu\libc.a
LOAD ..\..\libs\cpu\libgcc.a
LOAD ..\..\libs\ble\libbtstack_central.a
OUTPUT(Output\bin\app.rv32 elf32-littleriscv)

.comment        0x0000000000000000       0x23
 .comment       0x0000000000000000       0x11 Output\obj\driver\driver_charge.o
                                         0x12 (size before relaxing)
 .comment       0x0000000000000011       0x12 Output\obj\driver\driver_clk.o
 .comment       0x0000000000000011       0x12 Output\obj\driver\driver_gpio.o
 .comment       0x0000000000000011       0x12 Output\obj\driver\driver_lowpwr.o
 .comment       0x0000000000000011       0x12 Output\obj\driver\driver_saradc.o
 .comment       0x0000000000000011       0x12 Output\obj\driver\driver_uart.o
 .comment       0x0000000000000011       0x12 Output\obj\project\ble_central\app\func.o
 .comment       0x0000000000000011       0x12 Output\obj\project\ble_central\app\func_bt.o
 .comment       0x0000000000000011       0x12 Output\obj\project\ble_central\app\func_idle.o
 .comment       0x0000000000000011       0x12 Output\obj\project\ble_central\app\func_lowpwr.o
 .comment       0x0000000000000011       0x12 Output\obj\project\ble_central\app\msg_bt.o
 .comment       0x0000000000000011       0x12 Output\obj\project\ble_central\app\msg_idle.o
 .comment       0x0000000000000011       0x12 Output\obj\project\ble_central\ble\ble_client.o
 .comment       0x0000000000000011       0x12 Output\obj\project\ble_central\ble\ble_init.o
 .comment       0x0000000000000011       0x12 Output\obj\project\ble_central\bsp\bsp_charge.o
 .comment       0x0000000000000011       0x12 Output\obj\project\ble_central\bsp\bsp_io_key.o
 .comment       0x0000000000000011       0x12 Output\obj\project\ble_central\bsp\bsp_key.o
 .comment       0x0000000000000011       0x12 Output\obj\project\ble_central\bsp\bsp_param.o
 .comment       0x0000000000000011       0x12 Output\obj\project\ble_central\bsp\bsp_saradc.o
 .comment       0x0000000000000011       0x12 Output\obj\project\ble_central\bsp\bsp_saradc_vbat.o
 .comment       0x0000000000000011       0x12 Output\obj\project\ble_central\bsp\bsp_sys.o
 .comment       0x0000000000000011       0x12 Output\obj\project\ble_central\bsp\bsp_uart_debug.o
 .comment       0x0000000000000011       0x12 Output\obj\project\ble_central\main.o
 .comment       0x0000000000000011       0x12 Output\obj\project\ble_central\production_test\prod_test.o
 .comment       0x0000000000000011       0x12 Output\obj\project\ble_central\strong_symbol.o
 .comment       0x0000000000000011       0x12 ..\..\libs\cpu\libplatform.a(cm.o)
                                         0x13 (size before relaxing)
 .comment       0x0000000000000023       0x13 ..\..\libs\cpu\libplatform.a(os_flash.o)
 .comment       0x0000000000000023       0x13 ..\..\libs\cpu\libplatform.a(xcfg.o)
 .comment       0x0000000000000023       0x13 ..\..\libs\cpu\libplatform.a(main.o)
 .comment       0x0000000000000023       0x13 ..\..\libs\cpu\libplatform.a(interrupt.o)
 .comment       0x0000000000000023       0x13 ..\..\libs\cpu\libplatform.a(startup.o)
 .comment       0x0000000000000023       0x13 ..\..\libs\cpu\libplatform.a(sys_hook.o)
 .comment       0x0000000000000023       0x13 ..\..\libs\cpu\libplatform.a(pll.o)
 .comment       0x0000000000000023       0x13 ..\..\libs\cpu\libplatform.a(pmu.o)
 .comment       0x0000000000000023       0x13 ..\..\libs\cpu\libplatform.a(rc.o)
 .comment       0x0000000000000023       0x13 ..\..\libs\cpu\libplatform.a(spiflash.o)
 .comment       0x0000000000000023       0x13 ..\..\libs\cpu\libplatform.a(debug.o)
 .comment       0x0000000000000023       0x13 ..\..\libs\cpu\libplatform.a(fot_pack.o)
 .comment       0x0000000000000023       0x13 ..\..\libs\cpu\libplatform.a(key.o)
 .comment       0x0000000000000023       0x13 ..\..\libs\cpu\libplatform.a(lock.o)
 .comment       0x0000000000000023       0x13 ..\..\libs\cpu\libplatform.a(patch.o)
 .comment       0x0000000000000023       0x13 ..\..\libs\cpu\libplatform.a(sleep.o)
 .comment       0x0000000000000023       0x13 ..\..\libs\cpu\libplatform.a(sys.o)
 .comment       0x0000000000000023       0x13 ..\..\libs\cpu\libplatform.a(sys_clk.o)
 .comment       0x0000000000000023       0x13 ..\..\libs\cpu\libplatform.a(voltage_trim.o)
 .comment       0x0000000000000023       0x13 ..\..\libs\cpu\libplatform.a(weak_symbol.o)
 .comment       0x0000000000000023       0x13 ..\..\libs\cpu\libplatform.a(bt.o)
 .comment       0x0000000000000023       0x13 ..\..\libs\ble\libbtstack_central.a(txpkt.o)
 .comment       0x0000000000000023       0x13 ..\..\libs\ble\libbtstack_central.a(hci.o)
 .comment       0x0000000000000023       0x13 ..\..\libs\ble\libbtstack_central.a(btstack_util.o)
 .comment       0x0000000000000023       0x13 ..\..\libs\ble\libbtstack_central.a(btstack_linked_list.o)
 .comment       0x0000000000000023       0x13 ..\..\libs\ble\libbtstack_central.a(sm.o)
 .comment       0x0000000000000023       0x13 ..\..\libs\ble\libbtstack_central.a(le_device_db_memory.o)
 .comment       0x0000000000000023       0x13 ..\..\libs\ble\libbtstack_central.a(gatt_client.o)
 .comment       0x0000000000000023       0x13 ..\..\libs\ble\libbtstack_central.a(att_server.o)
 .comment       0x0000000000000023       0x13 ..\..\libs\ble\libbtstack_central.a(att_dispatch.o)
 .comment       0x0000000000000023       0x13 ..\..\libs\ble\libbtstack_central.a(att_db.o)
 .comment       0x0000000000000023       0x13 ..\..\libs\ble\libbtstack_central.a(ad_parser.o)
 .comment       0x0000000000000023       0x13 ..\..\libs\ble\libbtstack_central.a(hci_transport_hcic.o)
 .comment       0x0000000000000023       0x13 ..\..\libs\ble\libbtstack_central.a(btstack_api.o)
 .comment       0x0000000000000023       0x13 ..\..\libs\ble\libbtstack_central.a(bt_api.o)
 .comment       0x0000000000000023       0x13 ..\..\libs\ble\libbtstack_central.a(ble_api.o)
 .comment       0x0000000000000023       0x13 ..\..\libs\ble\libbtstack_central.a(rf.o)
 .comment       0x0000000000000023       0x13 ..\..\libs\ble\libbtstack_central.a(hct_tl.o)
 .comment       0x0000000000000023       0x13 ..\..\libs\ble\libbtstack_central.a(hct_msg.o)
 .comment       0x0000000000000023       0x13 ..\..\libs\ble\libbtstack_central.a(hct.o)
 .comment       0x0000000000000023       0x13 ..\..\libs\ble\libbtstack_central.a(mgr_hci.o)
 .comment       0x0000000000000023       0x13 ..\..\libs\ble\libbtstack_central.a(mgr.o)
 .comment       0x0000000000000023       0x13 ..\..\libs\ble\libbtstack_central.a(ll_scan.o)
 .comment       0x0000000000000023       0x13 ..\..\libs\ble\libbtstack_central.a(ble_scan.o)
 .comment       0x0000000000000023       0x13 ..\..\libs\ble\libbtstack_central.a(ble_hal.o)
 .comment       0x0000000000000023       0x13 ..\..\libs\ble\libbtstack_central.a(ble_con.o)
 .comment       0x0000000000000023       0x13 ..\..\libs\ble\libbtstack_central.a(ble_buf.o)
 .comment       0x0000000000000023       0x13 ..\..\libs\ble\libbtstack_central.a(bb_utils.o)
 .comment       0x0000000000000023       0x13 ..\..\libs\ble\libbtstack_central.a(bb_int.o)
 .comment       0x0000000000000023       0x13 ..\..\libs\ble\libbtstack_central.a(bb.o)
 .comment       0x0000000000000023       0x13 ..\..\libs\ble\libbtstack_central.a(platform.o)
 .comment       0x0000000000000023       0x13 ..\..\libs\ble\libbtstack_central.a(extern_ble.o)
 .comment       0x0000000000000023       0x13 ..\..\libs\ble\libbtstack_central.a(extern.o)
 .comment       0x0000000000000023       0x13 ..\..\libs\ble\libbtstack_central.a(l2cap.o)
 .comment       0x0000000000000023       0x13 ..\..\libs\ble\libbtstack_central.a(hci_dump.o)
 .comment       0x0000000000000023       0x13 ..\..\libs\ble\libbtstack_central.a(hci_cmd.o)
 .comment       0x0000000000000023       0x13 ..\..\libs\ble\libbtstack_central.a(btstack_run_loop.o)
 .comment       0x0000000000000023       0x13 ..\..\libs\ble\libbtstack_central.a(btstack_memory.o)
 .comment       0x0000000000000023       0x13 ..\..\libs\ble\libbtstack_central.a(gatt_server.o)
 .comment       0x0000000000000023       0x13 ..\..\libs\ble\libbtstack_central.a(hci_transport_h3_controller.o)
 .comment       0x0000000000000023       0x13 ..\..\libs\ble\libbtstack_central.a(hci_transport_dummy.o)
 .comment       0x0000000000000023       0x13 ..\..\libs\ble\libbtstack_central.a(btstack_main.o)
 .comment       0x0000000000000023       0x13 ..\..\libs\ble\libbtstack_central.a(btstack_hal.o)
 .comment       0x0000000000000023       0x13 ..\..\libs\ble\libbtstack_central.a(nanos.o)
 .comment       0x0000000000000023       0x13 ..\..\libs\ble\libbtstack_central.a(bb_sche.o)
 .comment       0x0000000000000023       0x13 ..\..\libs\ble\libbtstack_central.a(patch.o)
 .comment       0x0000000000000023       0x13 ..\..\libs\ble\libbtstack_central.a(bb_dbg.o)
 .comment       0x0000000000000023       0x13 ..\..\libs\ble\libbtstack_central.a(bb_clk.o)
 .comment       0x0000000000000023       0x13 ..\..\libs\ble\libbtstack_central.a(aes.o)
 .comment       0x0000000000000023       0x13 ..\..\libs\ble\libbtstack_central.a(extern.o)
 .comment       0x0000000000000023       0x13 ..\..\libs\ble\libbtstack_central.a(vs.o)
 .comment       0x0000000000000023       0x13 ..\..\libs\ble\libbtstack_central.a(rf_xbox.o)
 .comment       0x0000000000000023       0x13 ..\..\libs\ble\libbtstack_central.a(complex.o)
 .comment       0x0000000000000023       0x13 ..\..\libs\ble\libbtstack_central.a(scan_hook.o)
 .comment       0x0000000000000023       0x13 ..\..\libs\ble\libbtstack_central.a(ble_hook.o)
 .comment       0x0000000000000023       0x13 ..\..\libs\ble\libbtstack_central.a(mgr_test.o)
 .comment       0x0000000000000023       0x13 ..\..\libs\ble\libbtstack_central.a(mgr_proc.o)
 .comment       0x0000000000000023       0x13 ..\..\libs\ble\libbtstack_central.a(mgr_init.o)
 .comment       0x0000000000000023       0x13 ..\..\libs\ble\libbtstack_central.a(ll_con_upd.o)
 .comment       0x0000000000000023       0x13 ..\..\libs\ble\libbtstack_central.a(ll_cntl.o)
 .comment       0x0000000000000023       0x13 ..\..\libs\ble\libbtstack_central.a(ll_clk_acc.o)
 .comment       0x0000000000000023       0x13 ..\..\libs\ble\libbtstack_central.a(ll_chmap_upd.o)
 .comment       0x0000000000000023       0x13 ..\..\libs\ble\libbtstack_central.a(ll.o)
 .comment       0x0000000000000023       0x13 ..\..\libs\ble\libbtstack_central.a(ble_test.o)
 .comment       0x0000000000000023       0x13 ..\..\libs\ble\libbtstack_central.a(ble_init.o)
 .comment       0x0000000000000023       0x13 ..\..\libs\ble\libbtstack_central.a(ble.o)
 .comment       0x0000000000000023       0x13 ..\..\libs\ble\libbtstack_central.a(bb_sleep.o)
 .comment       0x0000000000000023       0x13 ..\..\libs\ble\libbtstack_central.a(l2cap_signaling.o)
 .comment       0x0000000000000023       0x13 ..\..\libs\ble\libbtstack_central.a(btstack_memory_pool.o)
 .comment       0x0000000000000023       0x13 ..\..\libs\ble\libbtstack_central.a(platform.o)
 .comment       0x0000000000000023       0x13 ..\..\libs\ble\libbtstack_central.a(vs_proc.o)
 .comment       0x0000000000000023       0x13 ..\..\libs\ble\libbtstack_central.a(vs_fcc.o)
 .comment       0x0000000000000023       0x13 ..\..\libs\ble\libbtstack_central.a(ll_version.o)
 .comment       0x0000000000000023       0x13 ..\..\libs\ble\libbtstack_central.a(ll_proc.o)
 .comment       0x0000000000000023       0x13 ..\..\libs\ble\libbtstack_central.a(ll_ping.o)
 .comment       0x0000000000000023       0x13 ..\..\libs\ble\libbtstack_central.a(ll_phy_upd.o)
 .comment       0x0000000000000023       0x13 ..\..\libs\ble\libbtstack_central.a(ll_length.o)
 .comment       0x0000000000000023       0x13 ..\..\libs\ble\libbtstack_central.a(ll_feature.o)
 .comment       0x0000000000000023       0x13 ..\..\libs\ble\libbtstack_central.a(ll_encrypt.o)
 .comment       0x0000000000000023       0x13 ..\..\libs\ble\libbtstack_central.a(ll_disconnect.o)
 .comment       0x0000000000000023       0x13 ..\..\libs\ble\libbtstack_central.a(ble_sync.o)

.riscv.attributes
                0x0000000000000000     0x1480
 .riscv.attributes
                0x0000000000000000       0x32 ..\..\libs\cpu\libplatform.a(cm.o)
 .riscv.attributes
                0x0000000000000032       0x32 ..\..\libs\cpu\libplatform.a(os_flash.o)
 .riscv.attributes
                0x0000000000000064       0x32 ..\..\libs\cpu\libplatform.a(xcfg.o)
 .riscv.attributes
                0x0000000000000096       0x32 ..\..\libs\cpu\libplatform.a(main.o)
 .riscv.attributes
                0x00000000000000c8       0x32 ..\..\libs\cpu\libplatform.a(interrupt.o)
 .riscv.attributes
                0x00000000000000fa       0x32 ..\..\libs\cpu\libplatform.a(startup.o)
 .riscv.attributes
                0x000000000000012c       0x32 ..\..\libs\cpu\libplatform.a(sys_hook.o)
 .riscv.attributes
                0x000000000000015e       0x32 ..\..\libs\cpu\libplatform.a(pll.o)
 .riscv.attributes
                0x0000000000000190       0x32 ..\..\libs\cpu\libplatform.a(pmu.o)
 .riscv.attributes
                0x00000000000001c2       0x32 ..\..\libs\cpu\libplatform.a(rc.o)
 .riscv.attributes
                0x00000000000001f4       0x34 ..\..\libs\cpu\libplatform.a(reset.o)
 .riscv.attributes
                0x0000000000000228       0x32 ..\..\libs\cpu\libplatform.a(spiflash.o)
 .riscv.attributes
                0x000000000000025a       0x32 ..\..\libs\cpu\libplatform.a(debug.o)
 .riscv.attributes
                0x000000000000028c       0x32 ..\..\libs\cpu\libplatform.a(fot_pack.o)
 .riscv.attributes
                0x00000000000002be       0x32 ..\..\libs\cpu\libplatform.a(key.o)
 .riscv.attributes
                0x00000000000002f0       0x32 ..\..\libs\cpu\libplatform.a(lock.o)
 .riscv.attributes
                0x0000000000000322       0x32 ..\..\libs\cpu\libplatform.a(patch.o)
 .riscv.attributes
                0x0000000000000354       0x30 ..\..\libs\cpu\libplatform.a(s_sys.o)
 .riscv.attributes
                0x0000000000000384       0x32 ..\..\libs\cpu\libplatform.a(sleep.o)
 .riscv.attributes
                0x00000000000003b6       0x32 ..\..\libs\cpu\libplatform.a(sys.o)
 .riscv.attributes
                0x00000000000003e8       0x32 ..\..\libs\cpu\libplatform.a(sys_clk.o)
 .riscv.attributes
                0x000000000000041a       0x32 ..\..\libs\cpu\libplatform.a(voltage_trim.o)
 .riscv.attributes
                0x000000000000044c       0x32 ..\..\libs\cpu\libplatform.a(weak_symbol.o)
 .riscv.attributes
                0x000000000000047e       0x32 ..\..\libs\cpu\libplatform.a(bt.o)
 .riscv.attributes
                0x00000000000004b0       0x32 ..\..\libs\ble\libbtstack_central.a(txpkt.o)
 .riscv.attributes
                0x00000000000004e2       0x32 ..\..\libs\ble\libbtstack_central.a(hci.o)
 .riscv.attributes
                0x0000000000000514       0x32 ..\..\libs\ble\libbtstack_central.a(btstack_util.o)
 .riscv.attributes
                0x0000000000000546       0x32 ..\..\libs\ble\libbtstack_central.a(btstack_linked_list.o)
 .riscv.attributes
                0x0000000000000578       0x32 ..\..\libs\ble\libbtstack_central.a(sm.o)
 .riscv.attributes
                0x00000000000005aa       0x32 ..\..\libs\ble\libbtstack_central.a(le_device_db_memory.o)
 .riscv.attributes
                0x00000000000005dc       0x32 ..\..\libs\ble\libbtstack_central.a(gatt_client.o)
 .riscv.attributes
                0x000000000000060e       0x32 ..\..\libs\ble\libbtstack_central.a(att_server.o)
 .riscv.attributes
                0x0000000000000640       0x32 ..\..\libs\ble\libbtstack_central.a(att_dispatch.o)
 .riscv.attributes
                0x0000000000000672       0x32 ..\..\libs\ble\libbtstack_central.a(att_db.o)
 .riscv.attributes
                0x00000000000006a4       0x32 ..\..\libs\ble\libbtstack_central.a(ad_parser.o)
 .riscv.attributes
                0x00000000000006d6       0x32 ..\..\libs\ble\libbtstack_central.a(hci_transport_hcic.o)
 .riscv.attributes
                0x0000000000000708       0x32 ..\..\libs\ble\libbtstack_central.a(btstack_api.o)
 .riscv.attributes
                0x000000000000073a       0x32 ..\..\libs\ble\libbtstack_central.a(bt_api.o)
 .riscv.attributes
                0x000000000000076c       0x32 ..\..\libs\ble\libbtstack_central.a(ble_api.o)
 .riscv.attributes
                0x000000000000079e       0x32 ..\..\libs\ble\libbtstack_central.a(rf.o)
 .riscv.attributes
                0x00000000000007d0       0x32 ..\..\libs\ble\libbtstack_central.a(hct_tl.o)
 .riscv.attributes
                0x0000000000000802       0x32 ..\..\libs\ble\libbtstack_central.a(hct_msg.o)
 .riscv.attributes
                0x0000000000000834       0x32 ..\..\libs\ble\libbtstack_central.a(hct.o)
 .riscv.attributes
                0x0000000000000866       0x32 ..\..\libs\ble\libbtstack_central.a(mgr_hci.o)
 .riscv.attributes
                0x0000000000000898       0x32 ..\..\libs\ble\libbtstack_central.a(mgr.o)
 .riscv.attributes
                0x00000000000008ca       0x32 ..\..\libs\ble\libbtstack_central.a(ll_scan.o)
 .riscv.attributes
                0x00000000000008fc       0x32 ..\..\libs\ble\libbtstack_central.a(ble_scan.o)
 .riscv.attributes
                0x000000000000092e       0x32 ..\..\libs\ble\libbtstack_central.a(ble_hal.o)
 .riscv.attributes
                0x0000000000000960       0x32 ..\..\libs\ble\libbtstack_central.a(ble_con.o)
 .riscv.attributes
                0x0000000000000992       0x32 ..\..\libs\ble\libbtstack_central.a(ble_buf.o)
 .riscv.attributes
                0x00000000000009c4       0x32 ..\..\libs\ble\libbtstack_central.a(bb_utils.o)
 .riscv.attributes
                0x00000000000009f6       0x32 ..\..\libs\ble\libbtstack_central.a(bb_int.o)
 .riscv.attributes
                0x0000000000000a28       0x32 ..\..\libs\ble\libbtstack_central.a(bb.o)
 .riscv.attributes
                0x0000000000000a5a       0x32 ..\..\libs\ble\libbtstack_central.a(platform.o)
 .riscv.attributes
                0x0000000000000a8c       0x32 ..\..\libs\ble\libbtstack_central.a(extern_ble.o)
 .riscv.attributes
                0x0000000000000abe       0x32 ..\..\libs\ble\libbtstack_central.a(extern.o)
 .riscv.attributes
                0x0000000000000af0       0x32 ..\..\libs\ble\libbtstack_central.a(l2cap.o)
 .riscv.attributes
                0x0000000000000b22       0x32 ..\..\libs\ble\libbtstack_central.a(hci_dump.o)
 .riscv.attributes
                0x0000000000000b54       0x32 ..\..\libs\ble\libbtstack_central.a(hci_cmd.o)
 .riscv.attributes
                0x0000000000000b86       0x32 ..\..\libs\ble\libbtstack_central.a(btstack_run_loop.o)
 .riscv.attributes
                0x0000000000000bb8       0x32 ..\..\libs\ble\libbtstack_central.a(btstack_memory.o)
 .riscv.attributes
                0x0000000000000bea       0x32 ..\..\libs\ble\libbtstack_central.a(gatt_server.o)
 .riscv.attributes
                0x0000000000000c1c       0x32 ..\..\libs\ble\libbtstack_central.a(hci_transport_h3_controller.o)
 .riscv.attributes
                0x0000000000000c4e       0x32 ..\..\libs\ble\libbtstack_central.a(hci_transport_dummy.o)
 .riscv.attributes
                0x0000000000000c80       0x32 ..\..\libs\ble\libbtstack_central.a(btstack_main.o)
 .riscv.attributes
                0x0000000000000cb2       0x32 ..\..\libs\ble\libbtstack_central.a(btstack_hal.o)
 .riscv.attributes
                0x0000000000000ce4       0x32 ..\..\libs\ble\libbtstack_central.a(nanos.o)
 .riscv.attributes
                0x0000000000000d16       0x32 ..\..\libs\ble\libbtstack_central.a(bb_sche.o)
 .riscv.attributes
                0x0000000000000d48       0x32 ..\..\libs\ble\libbtstack_central.a(patch.o)
 .riscv.attributes
                0x0000000000000d7a       0x32 ..\..\libs\ble\libbtstack_central.a(bb_dbg.o)
 .riscv.attributes
                0x0000000000000dac       0x32 ..\..\libs\ble\libbtstack_central.a(bb_clk.o)
 .riscv.attributes
                0x0000000000000dde       0x32 ..\..\libs\ble\libbtstack_central.a(aes.o)
 .riscv.attributes
                0x0000000000000e10       0x32 ..\..\libs\ble\libbtstack_central.a(extern.o)
 .riscv.attributes
                0x0000000000000e42       0x32 ..\..\libs\ble\libbtstack_central.a(vs.o)
 .riscv.attributes
                0x0000000000000e74       0x32 ..\..\libs\ble\libbtstack_central.a(rf_xbox.o)
 .riscv.attributes
                0x0000000000000ea6       0x32 ..\..\libs\ble\libbtstack_central.a(complex.o)
 .riscv.attributes
                0x0000000000000ed8       0x32 ..\..\libs\ble\libbtstack_central.a(scan_hook.o)
 .riscv.attributes
                0x0000000000000f0a       0x32 ..\..\libs\ble\libbtstack_central.a(ble_hook.o)
 .riscv.attributes
                0x0000000000000f3c       0x32 ..\..\libs\ble\libbtstack_central.a(mgr_test.o)
 .riscv.attributes
                0x0000000000000f6e       0x32 ..\..\libs\ble\libbtstack_central.a(mgr_proc.o)
 .riscv.attributes
                0x0000000000000fa0       0x32 ..\..\libs\ble\libbtstack_central.a(mgr_init.o)
 .riscv.attributes
                0x0000000000000fd2       0x32 ..\..\libs\ble\libbtstack_central.a(ll_con_upd.o)
 .riscv.attributes
                0x0000000000001004       0x32 ..\..\libs\ble\libbtstack_central.a(ll_cntl.o)
 .riscv.attributes
                0x0000000000001036       0x32 ..\..\libs\ble\libbtstack_central.a(ll_clk_acc.o)
 .riscv.attributes
                0x0000000000001068       0x32 ..\..\libs\ble\libbtstack_central.a(ll_chmap_upd.o)
 .riscv.attributes
                0x000000000000109a       0x32 ..\..\libs\ble\libbtstack_central.a(ll.o)
 .riscv.attributes
                0x00000000000010cc       0x32 ..\..\libs\ble\libbtstack_central.a(ble_test.o)
 .riscv.attributes
                0x00000000000010fe       0x32 ..\..\libs\ble\libbtstack_central.a(ble_init.o)
 .riscv.attributes
                0x0000000000001130       0x32 ..\..\libs\ble\libbtstack_central.a(ble.o)
 .riscv.attributes
                0x0000000000001162       0x32 ..\..\libs\ble\libbtstack_central.a(bb_sleep.o)
 .riscv.attributes
                0x0000000000001194       0x32 ..\..\libs\ble\libbtstack_central.a(l2cap_signaling.o)
 .riscv.attributes
                0x00000000000011c6       0x32 ..\..\libs\ble\libbtstack_central.a(btstack_memory_pool.o)
 .riscv.attributes
                0x00000000000011f8       0x30 ..\..\libs\ble\libbtstack_central.a(patch_asm.o)
 .riscv.attributes
                0x0000000000001228       0x32 ..\..\libs\ble\libbtstack_central.a(platform.o)
 .riscv.attributes
                0x000000000000125a       0x32 ..\..\libs\ble\libbtstack_central.a(vs_proc.o)
 .riscv.attributes
                0x000000000000128c       0x32 ..\..\libs\ble\libbtstack_central.a(vs_fcc.o)
 .riscv.attributes
                0x00000000000012be       0x32 ..\..\libs\ble\libbtstack_central.a(ll_version.o)
 .riscv.attributes
                0x00000000000012f0       0x32 ..\..\libs\ble\libbtstack_central.a(ll_proc.o)
 .riscv.attributes
                0x0000000000001322       0x32 ..\..\libs\ble\libbtstack_central.a(ll_ping.o)
 .riscv.attributes
                0x0000000000001354       0x32 ..\..\libs\ble\libbtstack_central.a(ll_phy_upd.o)
 .riscv.attributes
                0x0000000000001386       0x32 ..\..\libs\ble\libbtstack_central.a(ll_length.o)
 .riscv.attributes
                0x00000000000013b8       0x32 ..\..\libs\ble\libbtstack_central.a(ll_feature.o)
 .riscv.attributes
                0x00000000000013ea       0x32 ..\..\libs\ble\libbtstack_central.a(ll_encrypt.o)
 .riscv.attributes
                0x000000000000141c       0x32 ..\..\libs\ble\libbtstack_central.a(ll_disconnect.o)
 .riscv.attributes
                0x000000000000144e       0x32 ..\..\libs\ble\libbtstack_central.a(ble_sync.o)
