Archive member included to satisfy reference by file (symbol)

..\..\..\libs\cpu\libplatform.a(sdadc.o)
                              Output\obj\driver\driver_sdadc.o (mic_adc_init)
..\..\..\libs\cpu\libplatform.a(cm.o)
                              Output\obj\project\example\usb_example\fota\bsp_param.o (cm_sync)
..\..\..\libs\cpu\libplatform.a(os_flash.o)
                              ..\..\..\libs\cpu\libplatform.a(cm.o) (os_spiflash_read)
..\..\..\libs\cpu\libplatform.a(device.o)
                              Output\obj\project\example\usb_example\main.o (dev_init)
..\..\..\libs\cpu\libplatform.a(main.o)
                              Output\obj\project\example\usb_example\hardware\usb\usb_audio\usb_audio.o (delay_5ms)
..\..\..\libs\cpu\libplatform.a(interrupt.o)
                              Output\obj\driver\driver_gpio.o (sys_irq_init)
..\..\..\libs\cpu\libplatform.a(startup.o)
                              ..\..\..\libs\cpu\libplatform.a(main.o) (sys_startup)
..\..\..\libs\cpu\libplatform.a(sys_hook.o)
                              ..\..\..\libs\cpu\libplatform.a(startup.o) (sys_hook_init)
..\..\..\libs\cpu\libplatform.a(thread_aupcm.o)
                              ..\..\..\libs\cpu\libplatform.a(sdadc.o) (os_mq_aupcm_post)
..\..\..\libs\cpu\libplatform.a(thread_driver.o)
                              Output\obj\project\example\usb_example\hardware\usb\usb_vendor\usb_usr_vendor.o (thread_driver_msg_post)
..\..\..\libs\cpu\libplatform.a(pll.o)
                              ..\..\..\libs\cpu\libplatform.a(main.o) (pll0_disable)
..\..\..\libs\cpu\libplatform.a(rc.o)
                              ..\..\..\libs\cpu\libplatform.a(main.o) (rc_compile)
..\..\..\libs\cpu\libplatform.a(reset.o)
                              (_start)
..\..\..\libs\cpu\libplatform.a(context.o)
                              Output\obj\project\example\usb_example\hardware\usb\usb_vendor\usb_usr_vendor.o (list_pool_init)
..\..\..\libs\cpu\libplatform.a(spiflash.o)
                              ..\..\..\libs\cpu\libplatform.a(os_flash.o) (spi_delay)
..\..\..\libs\cpu\libplatform.a(debug.o)
                              ..\..\..\libs\cpu\libplatform.a(main.o) (debug_set)
..\..\..\libs\cpu\libplatform.a(fot_pack.o)
                              Output\obj\project\example\usb_example\fota\fota_proc.o (ota_pack_init)
..\..\..\libs\cpu\libplatform.a(lock.o)
                              ..\..\..\libs\cpu\libplatform.a(main.o) (lock_init)
..\..\..\libs\cpu\libplatform.a(patch.o)
                              ..\..\..\libs\cpu\libplatform.a(main.o) (patch_init)
..\..\..\libs\cpu\libplatform.a(s_sys.o)
                              ..\..\..\libs\cpu\libplatform.a(startup.o) (dummy_func)
..\..\..\libs\cpu\libplatform.a(sys.o)
                              Output\obj\driver\driver_clk.o (rc2m_clk_nhz_get)
..\..\..\libs\cpu\libplatform.a(sys_clk.o)
                              Output\obj\driver\driver_uart.o (sys_clk_nhz_get)
..\..\..\libs\cpu\libplatform.a(voltage_trim.o)
                              ..\..\..\libs\cpu\libplatform.a(main.o) (voltage_trim_value_init)
..\..\..\libs\cpu\libplatform.a(weak_symbol.o)
                              ..\..\..\libs\cpu\libplatform.a(main.o) (xosc_24m_div_get)
..\..\..\libs\cpu\libplatform.a(sddac.o)
                              ..\..\..\libs\cpu\libplatform.a(thread_aupcm.o) (sddac_dma_done_do)
..\..\..\libs\cpu\libplatform.a(bt.o)
                              ..\..\..\libs\cpu\libplatform.a(startup.o) (thread_btstack_entry)
..\..\..\libs\cpu\libplatform.a(crc.o)
                              ..\..\..\libs\cpu\libplatform.a(fot_pack.o) (calc_crc32)
..\..\..\libs\usb\libusb.a(usb_comm.o)
                              Output\obj\project\example\usb_example\hardware\usb\usb_com.o (usb_handler_register)
..\..\..\libs\usb\libusb.a(usb_detect.o)
                              ..\..\..\libs\usb\libusb.a(usb_comm.o) (usbchk_switch_otg_device)
..\..\..\libs\usb\libusb.a(usb_ep.o)
                              Output\obj\project\example\usb_example\hardware\usb\usb_vendor\usb_vendor.o (usb_ep_get_max_len)
..\..\..\libs\usb\libusb.a(usb_device_enum.o)
                              Output\obj\project\example\usb_example\hardware\usb\usb_audio\usb_audio.o (usb_ep0_start_transfer)
..\..\..\libs\usb\libusb.a(usb_device_manage.o)
                              Output\obj\project\example\usb_example\main.o (usb_device_enter)
..\..\..\libs\usb\libusb.a(usb_host_manage.o)
                              ..\..\..\libs\usb\libusb.a(usb_comm.o) (usb_host_isr)
..\..\..\libs\usb\libusb.a(usb_host_enum.o)
                              ..\..\..\libs\usb\libusb.a(usb_host_manage.o) (uhe_init)

Allocating common symbols
Common symbol       size              file

tmr5ms_cnt          0x2               Output\obj\project\example\usb_example\main.o
ep_cb               0x20              Output\obj\project\example\usb_example\hardware\usb\usb_com.o
usb_handler_cb      0x8               Output\obj\project\example\usb_example\hardware\usb\usb_com.o
ep_isoc_buf_in      0x22              Output\obj\project\example\usb_example\hardware\usb\usb_audio\usb_audio.o
is_usb_mode         0x1               Output\obj\project\example\usb_example\main.o
ep_isoc_buf_out     0x24              Output\obj\project\example\usb_example\hardware\usb\usb_audio\usb_audio.o

Discarded input sections

 .text          0x0000000000000000        0x0 Output\obj\driver\driver_clk.o
 .data          0x0000000000000000        0x0 Output\obj\driver\driver_clk.o
 .bss           0x0000000000000000        0x0 Output\obj\driver\driver_clk.o
 .text.clk_gate1_cmd
                0x0000000000000000       0x16 Output\obj\driver\driver_clk.o
 .text.clk_gate2_cmd
                0x0000000000000000       0x16 Output\obj\driver\driver_clk.o
 .text.clk_clkout_set
                0x0000000000000000       0x4e Output\obj\driver\driver_clk.o
 .text.clk_clk32k_rtc_set
                0x0000000000000000       0x28 Output\obj\driver\driver_clk.o
 .text.clk_clk32k_rtc_get
                0x0000000000000000       0x46 Output\obj\driver\driver_clk.o
 .text.clk_hsut0_clk_set
                0x0000000000000000       0x4a Output\obj\driver\driver_clk.o
 .text.clk_saradc_clk_set
                0x0000000000000000       0x18 Output\obj\driver\driver_clk.o
 .text.clk_saradc_clk_get
                0x0000000000000000       0x46 Output\obj\driver\driver_clk.o
 .text.clk_udet_clk_set
                0x0000000000000000       0x18 Output\obj\driver\driver_clk.o
 .text.clk_hsut0_clk_get
                0x0000000000000000       0x6c Output\obj\driver\driver_clk.o
 .text.clk_tmr_inc_set
                0x0000000000000000       0x18 Output\obj\driver\driver_clk.o
 .text.clk_tmr_inc_get
                0x0000000000000000       0x60 Output\obj\driver\driver_clk.o
 .text.clk_uart_inc_set
                0x0000000000000000       0x16 Output\obj\driver\driver_clk.o
 .text.clk_clk2m_ks_set
                0x0000000000000000       0x18 Output\obj\driver\driver_clk.o
 .text.clk_clk2m_ks_get
                0x0000000000000000       0x3a Output\obj\driver\driver_clk.o
 .text.clk_sdadda_clk_get
                0x0000000000000000       0x54 Output\obj\driver\driver_clk.o
 .text.clk_ledc_clk_set
                0x0000000000000000       0x18 Output\obj\driver\driver_clk.o
 .text.clk_ledc_clk_get
                0x0000000000000000       0x24 Output\obj\driver\driver_clk.o
 .text.clk_touch_key_clk_set
                0x0000000000000000       0x54 Output\obj\driver\driver_clk.o
 .text.clk_touch_key_clk_get
                0x0000000000000000       0x34 Output\obj\driver\driver_clk.o
 .text.clk_ttmr_inc_set
                0x0000000000000000       0x16 Output\obj\driver\driver_clk.o
 .text.clk_ttmr_inc_get
                0x0000000000000000       0x60 Output\obj\driver\driver_clk.o
 .text.clk_qdec_set
                0x0000000000000000       0x16 Output\obj\driver\driver_clk.o
 .text          0x0000000000000000        0x0 Output\obj\driver\driver_gpio.o
 .data          0x0000000000000000        0x0 Output\obj\driver\driver_gpio.o
 .bss           0x0000000000000000        0x0 Output\obj\driver\driver_gpio.o
 .text.gpio_deinit
                0x0000000000000000       0x1c Output\obj\driver\driver_gpio.o
 .com_periph.gpio.set
                0x0000000000000000        0x4 Output\obj\driver\driver_gpio.o
 .com_periph.gpio.reset
                0x0000000000000000        0x4 Output\obj\driver\driver_gpio.o
 .com_periph.gpio.write
                0x0000000000000000        0x4 Output\obj\driver\driver_gpio.o
 .com_periph.gpio.toggle
                0x0000000000000000        0x8 Output\obj\driver\driver_gpio.o
 .com_periph.gpio.read_data
                0x0000000000000000        0x8 Output\obj\driver\driver_gpio.o
 .text.wko_io_config
                0x0000000000000000       0x4e Output\obj\driver\driver_gpio.o
 .com_periph.wk0.read_bit
                0x0000000000000000        0xa Output\obj\driver\driver_gpio.o
 .text.wk0_edge_capture_config
                0x0000000000000000       0x74 Output\obj\driver\driver_gpio.o
 .text.gpio_edge_capture_idx_get
                0x0000000000000000       0x4a Output\obj\driver\driver_gpio.o
 .text.gpio_edge_capture_config
                0x0000000000000000       0xc0 Output\obj\driver\driver_gpio.o
 .com_periph.gpio.pending_clr
                0x0000000000000000        0xc Output\obj\driver\driver_gpio.o
 .com_periph.gpio.pending_is
                0x0000000000000000       0x12 Output\obj\driver\driver_gpio.o
 .text.gpio_edge_pic_config
                0x0000000000000000       0x32 Output\obj\driver\driver_gpio.o
 .text.gpio_edge_pic_disable
                0x0000000000000000       0x1c Output\obj\driver\driver_gpio.o
 .text.gpio_reset_init
                0x0000000000000000       0x84 Output\obj\driver\driver_gpio.o
 .text.gpio_reset_10s_sel
                0x0000000000000000       0x3a Output\obj\driver\driver_gpio.o
 .rodata        0x0000000000000000       0x80 Output\obj\driver\driver_gpio.o
 .text          0x0000000000000000        0x0 Output\obj\driver\driver_sdadc.o
 .data          0x0000000000000000        0x0 Output\obj\driver\driver_sdadc.o
 .bss           0x0000000000000000        0x0 Output\obj\driver\driver_sdadc.o
 .text.sdadc_deinit
                0x0000000000000000       0x40 Output\obj\driver\driver_sdadc.o
 .text.sdadc_removeDC_bits_set
                0x0000000000000000       0x18 Output\obj\driver\driver_sdadc.o
 .text.sdadc_getDC_bits_set
                0x0000000000000000       0x16 Output\obj\driver\driver_sdadc.o
 .text.sdadc_digital_gain_get
                0x0000000000000000        0xc Output\obj\driver\driver_sdadc.o
 .text.sdadc_getDC_bits_get
                0x0000000000000000        0xe Output\obj\driver\driver_sdadc.o
 .text.sdadc_removeDC_bits_get
                0x0000000000000000        0xc Output\obj\driver\driver_sdadc.o
 .text          0x0000000000000000        0x0 Output\obj\driver\driver_sddac.o
 .data          0x0000000000000000        0x0 Output\obj\driver\driver_sddac.o
 .bss           0x0000000000000000        0x0 Output\obj\driver\driver_sddac.o
 .com_periph.sddac.dma_stop
                0x0000000000000000        0xe Output\obj\driver\driver_sddac.o
 .com_periph.sddac.spr_get
                0x0000000000000000       0x1a Output\obj\driver\driver_sddac.o
 .com_periph.sddac.spr_set
                0x0000000000000000       0x6e Output\obj\driver\driver_sddac.o
 .text.sddac_deinit
                0x0000000000000000       0x20 Output\obj\driver\driver_sddac.o
 .text          0x0000000000000000        0x0 Output\obj\driver\driver_uart.o
 .data          0x0000000000000000        0x0 Output\obj\driver\driver_uart.o
 .bss           0x0000000000000000        0x0 Output\obj\driver\driver_uart.o
 .text.uart_deinit
                0x0000000000000000       0x2e Output\obj\driver\driver_uart.o
 .com_periph.uart.send
                0x0000000000000000        0x8 Output\obj\driver\driver_uart.o
 .com_periph.uart.recv
                0x0000000000000000       0x14 Output\obj\driver\driver_uart.o
 .text.uart_pic_config
                0x0000000000000000       0x5c Output\obj\driver\driver_uart.o
 .com_periph.uart.get_flag
                0x0000000000000000       0x18 Output\obj\driver\driver_uart.o
 .com_periph.uart.clear_flag
                0x0000000000000000       0x34 Output\obj\driver\driver_uart.o
 .text.uart_baud_config
                0x0000000000000000       0x86 Output\obj\driver\driver_uart.o
 .text          0x0000000000000000        0x0 Output\obj\modules\ains\ains3.o
 .data          0x0000000000000000        0x0 Output\obj\modules\ains\ains3.o
 .bss           0x0000000000000000        0x0 Output\obj\modules\ains\ains3.o
 .comment       0x0000000000000000       0x12 Output\obj\modules\ains\ains3.o
 .text          0x0000000000000000        0x0 Output\obj\modules\ains\ains4.o
 .data          0x0000000000000000        0x0 Output\obj\modules\ains\ains4.o
 .bss           0x0000000000000000        0x0 Output\obj\modules\ains\ains4.o
 .comment       0x0000000000000000       0x12 Output\obj\modules\ains\ains4.o
 .text          0x0000000000000000        0x0 Output\obj\project\example\usb_example\fota\bsp_param.o
 .data          0x0000000000000000        0x0 Output\obj\project\example\usb_example\fota\bsp_param.o
 .bss           0x0000000000000000        0x0 Output\obj\project\example\usb_example\fota\bsp_param.o
 .text          0x0000000000000000        0x0 Output\obj\project\example\usb_example\fota\fota_proc.o
 .data          0x0000000000000000        0x0 Output\obj\project\example\usb_example\fota\fota_proc.o
 .text.ab_fota_write
                0x0000000000000000        0x8 Output\obj\project\example\usb_example\fota\fota_proc.o
 .text.ab_fota_get_err
                0x0000000000000000        0x8 Output\obj\project\example\usb_example\fota\fota_proc.o
 .text.ab_fota_breakpoint_info_read
                0x0000000000000000        0x8 Output\obj\project\example\usb_example\fota\fota_proc.o
 .text.ab_fota_init
                0x0000000000000000        0x8 Output\obj\project\example\usb_example\fota\fota_proc.o
 .text.ab_fota_get_curaddr
                0x0000000000000000        0x8 Output\obj\project\example\usb_example\fota\fota_proc.o
 .text.ab_fota_is_update_success
                0x0000000000000000        0x8 Output\obj\project\example\usb_example\fota\fota_proc.o
 .com_text.fot.update
                0x0000000000000000        0xe Output\obj\project\example\usb_example\fota\fota_proc.o
 .text.fota_disconnected_handle
                0x0000000000000000       0x22 Output\obj\project\example\usb_example\fota\fota_proc.o
 .text.fota_connected_handle
                0x0000000000000000        0x2 Output\obj\project\example\usb_example\fota\fota_proc.o
 .text          0x0000000000000000        0x0 Output\obj\project\example\usb_example\hardware\audio\sdadc.o
 .data          0x0000000000000000        0x0 Output\obj\project\example\usb_example\hardware\audio\sdadc.o
 .bss           0x0000000000000000        0x0 Output\obj\project\example\usb_example\hardware\audio\sdadc.o
 .text          0x0000000000000000        0x0 Output\obj\project\example\usb_example\hardware\audio\sddac.o
 .data          0x0000000000000000        0x0 Output\obj\project\example\usb_example\hardware\audio\sddac.o
 .bss           0x0000000000000000        0x0 Output\obj\project\example\usb_example\hardware\audio\sddac.o
 .text          0x0000000000000000        0x0 Output\obj\project\example\usb_example\hardware\uart\bsp_uart_debug.o
 .data          0x0000000000000000        0x0 Output\obj\project\example\usb_example\hardware\uart\bsp_uart_debug.o
 .bss           0x0000000000000000        0x0 Output\obj\project\example\usb_example\hardware\uart\bsp_uart_debug.o
 .text          0x0000000000000000        0x0 Output\obj\project\example\usb_example\hardware\usb\usb_audio\usb_audio.o
 .data          0x0000000000000000        0x0 Output\obj\project\example\usb_example\hardware\usb\usb_audio\usb_audio.o
 .bss           0x0000000000000000        0x0 Output\obj\project\example\usb_example\hardware\usb\usb_audio\usb_audio.o
 .text.usb_audio_exit
                0x0000000000000000       0x44 Output\obj\project\example\usb_example\hardware\usb\usb_audio\usb_audio.o
 .text.usb_audio_deinit
                0x0000000000000000       0x10 Output\obj\project\example\usb_example\hardware\usb\usb_audio\usb_audio.o
 .text          0x0000000000000000        0x0 Output\obj\project\example\usb_example\hardware\usb\usb_audio\usb_audio_desc.o
 .data          0x0000000000000000        0x0 Output\obj\project\example\usb_example\hardware\usb\usb_audio\usb_audio_desc.o
 .bss           0x0000000000000000        0x0 Output\obj\project\example\usb_example\hardware\usb\usb_audio\usb_audio_desc.o
 .text          0x0000000000000000        0x0 Output\obj\project\example\usb_example\hardware\usb\usb_cdc\usb_cdc.o
 .data          0x0000000000000000        0x0 Output\obj\project\example\usb_example\hardware\usb\usb_cdc\usb_cdc.o
 .bss           0x0000000000000000        0x0 Output\obj\project\example\usb_example\hardware\usb\usb_cdc\usb_cdc.o
 .comment       0x0000000000000000       0x12 Output\obj\project\example\usb_example\hardware\usb\usb_cdc\usb_cdc.o
 .text          0x0000000000000000        0x0 Output\obj\project\example\usb_example\hardware\usb\usb_cdc\usb_cdc_desc.o
 .data          0x0000000000000000        0x0 Output\obj\project\example\usb_example\hardware\usb\usb_cdc\usb_cdc_desc.o
 .bss           0x0000000000000000        0x0 Output\obj\project\example\usb_example\hardware\usb\usb_cdc\usb_cdc_desc.o
 .comment       0x0000000000000000       0x12 Output\obj\project\example\usb_example\hardware\usb\usb_cdc\usb_cdc_desc.o
 .text          0x0000000000000000        0x0 Output\obj\project\example\usb_example\hardware\usb\usb_cdc\usb_usr_cdc.o
 .data          0x0000000000000000       0x1c Output\obj\project\example\usb_example\hardware\usb\usb_cdc\usb_usr_cdc.o
 .bss           0x0000000000000000        0x0 Output\obj\project\example\usb_example\hardware\usb\usb_cdc\usb_usr_cdc.o
 .com_text.usb.hid.in
                0x0000000000000000       0x1c Output\obj\project\example\usb_example\hardware\usb\usb_cdc\usb_usr_cdc.o
 .text.usb_usr_cdc_data_out
                0x0000000000000000       0x30 Output\obj\project\example\usb_example\hardware\usb\usb_cdc\usb_usr_cdc.o
 .rodata.str1.4
                0x0000000000000000       0x13 Output\obj\project\example\usb_example\hardware\usb\usb_cdc\usb_usr_cdc.o
 .comment       0x0000000000000000       0x12 Output\obj\project\example\usb_example\hardware\usb\usb_cdc\usb_usr_cdc.o
 .text          0x0000000000000000        0x0 Output\obj\project\example\usb_example\hardware\usb\usb_com.o
 .data          0x0000000000000000        0x0 Output\obj\project\example\usb_example\hardware\usb\usb_com.o
 .bss           0x0000000000000000        0x0 Output\obj\project\example\usb_example\hardware\usb\usb_com.o
 .text.usb_device_deinit
                0x0000000000000000       0x28 Output\obj\project\example\usb_example\hardware\usb\usb_com.o
 .text          0x0000000000000000        0x0 Output\obj\project\example\usb_example\hardware\usb\usb_desc.o
 .data          0x0000000000000000        0x0 Output\obj\project\example\usb_example\hardware\usb\usb_desc.o
 .bss           0x0000000000000000        0x0 Output\obj\project\example\usb_example\hardware\usb\usb_desc.o
 .text          0x0000000000000000        0x0 Output\obj\project\example\usb_example\hardware\usb\usb_dev_enum.o
 .data          0x0000000000000000        0x0 Output\obj\project\example\usb_example\hardware\usb\usb_dev_enum.o
 .bss           0x0000000000000000        0x0 Output\obj\project\example\usb_example\hardware\usb\usb_dev_enum.o
 .text          0x0000000000000000        0x0 Output\obj\project\example\usb_example\hardware\usb\usb_hid\usb_hid.o
 .data          0x0000000000000000        0x0 Output\obj\project\example\usb_example\hardware\usb\usb_hid\usb_hid.o
 .bss           0x0000000000000000        0x0 Output\obj\project\example\usb_example\hardware\usb\usb_hid\usb_hid.o
 .text.usb_hid_is_valid
                0x0000000000000000        0xa Output\obj\project\example\usb_example\hardware\usb\usb_hid\usb_hid.o
 .text.usb_hid_deinit
                0x0000000000000000        0xa Output\obj\project\example\usb_example\hardware\usb\usb_hid\usb_hid.o
 .text          0x0000000000000000        0x0 Output\obj\project\example\usb_example\hardware\usb\usb_hid\usb_hid_desc.o
 .data          0x0000000000000000        0x0 Output\obj\project\example\usb_example\hardware\usb\usb_hid\usb_hid_desc.o
 .bss           0x0000000000000000        0x0 Output\obj\project\example\usb_example\hardware\usb\usb_hid\usb_hid_desc.o
 .text          0x0000000000000000        0x0 Output\obj\project\example\usb_example\hardware\usb\usb_hid\usb_usr_hid.o
 .bss           0x0000000000000000        0x0 Output\obj\project\example\usb_example\hardware\usb\usb_hid\usb_usr_hid.o
 .text          0x0000000000000000        0x0 Output\obj\project\example\usb_example\hardware\usb\usb_vendor\usb_usr_vendor.o
 .text          0x0000000000000000        0x0 Output\obj\project\example\usb_example\hardware\usb\usb_vendor\usb_vendor.o
 .data          0x0000000000000000        0x0 Output\obj\project\example\usb_example\hardware\usb\usb_vendor\usb_vendor.o
 .bss           0x0000000000000000        0x0 Output\obj\project\example\usb_example\hardware\usb\usb_vendor\usb_vendor.o
 .text.usb_vendor_deinit
                0x0000000000000000       0x24 Output\obj\project\example\usb_example\hardware\usb\usb_vendor\usb_vendor.o
 .text          0x0000000000000000        0x0 Output\obj\project\example\usb_example\hardware\usb\usb_vendor\usb_vendor_desc.o
 .data          0x0000000000000000        0x0 Output\obj\project\example\usb_example\hardware\usb\usb_vendor\usb_vendor_desc.o
 .bss           0x0000000000000000        0x0 Output\obj\project\example\usb_example\hardware\usb\usb_vendor\usb_vendor_desc.o
 .text          0x0000000000000000        0x0 Output\obj\project\example\usb_example\main.o
 .data          0x0000000000000000        0x0 Output\obj\project\example\usb_example\main.o
 .bss           0x0000000000000000        0x0 Output\obj\project\example\usb_example\main.o
 .text          0x0000000000000000        0x0 Output\obj\project\example\usb_example\strong_symbol.o
 .data          0x0000000000000000        0x0 Output\obj\project\example\usb_example\strong_symbol.o
 .bss           0x0000000000000000        0x0 Output\obj\project\example\usb_example\strong_symbol.o
 .text          0x0000000000000000        0x0 Output\obj\project\example\usb_example\utils\utils_ring_buffer.o
 .data          0x0000000000000000        0x0 Output\obj\project\example\usb_example\utils\utils_ring_buffer.o
 .bss           0x0000000000000000        0x0 Output\obj\project\example\usb_example\utils\utils_ring_buffer.o
 .text.utils_ring_buffer_clear
                0x0000000000000000       0x10 Output\obj\project\example\usb_example\utils\utils_ring_buffer.o
 .com_text.ring_buf.get
                0x0000000000000000       0x4c Output\obj\project\example\usb_example\utils\utils_ring_buffer.o
 .com_text.ring_buf.dl_get
                0x0000000000000000        0x4 Output\obj\project\example\usb_example\utils\utils_ring_buffer.o
 .com_text.ring_buf.tl_get
                0x0000000000000000        0x4 Output\obj\project\example\usb_example\utils\utils_ring_buffer.o
 .text          0x0000000000000000        0x0 ..\..\..\libs\cpu\libplatform.a(sdadc.o)
 .data          0x0000000000000000        0x0 ..\..\..\libs\cpu\libplatform.a(sdadc.o)
 .bss           0x0000000000000000        0x0 ..\..\..\libs\cpu\libplatform.a(sdadc.o)
 .text.mic_trimin
                0x0000000000000000       0x32 ..\..\..\libs\cpu\libplatform.a(sdadc.o)
 .text.mic_adc_deinit
                0x0000000000000000       0x14 ..\..\..\libs\cpu\libplatform.a(sdadc.o)
 .text.mic_bias_open
                0x0000000000000000       0x30 ..\..\..\libs\cpu\libplatform.a(sdadc.o)
 .text.mic_bias_close
                0x0000000000000000       0x10 ..\..\..\libs\cpu\libplatform.a(sdadc.o)
 .text          0x0000000000000000        0x0 ..\..\..\libs\cpu\libplatform.a(cm.o)
 .data          0x0000000000000000        0x0 ..\..\..\libs\cpu\libplatform.a(cm.o)
 .bss           0x0000000000000000        0x0 ..\..\..\libs\cpu\libplatform.a(cm.o)
 .rodata.cm_move_allpages.str1.4
                0x0000000000000000       0x3a ..\..\..\libs\cpu\libplatform.a(cm.o)
 .text.cm_move_allpages
                0x0000000000000000      0x140 ..\..\..\libs\cpu\libplatform.a(cm.o)
 .text.cm_get_startaddr
                0x0000000000000000        0xa ..\..\..\libs\cpu\libplatform.a(cm.o)
 .text.cm_get_area
                0x0000000000000000       0x10 ..\..\..\libs\cpu\libplatform.a(cm.o)
 .text.cm_release_all
                0x0000000000000000       0x82 ..\..\..\libs\cpu\libplatform.a(cm.o)
 .text.cm_read8
                0x0000000000000000       0x28 ..\..\..\libs\cpu\libplatform.a(cm.o)
 .text.cm_read16
                0x0000000000000000       0x28 ..\..\..\libs\cpu\libplatform.a(cm.o)
 .text.cm_read32
                0x0000000000000000       0x24 ..\..\..\libs\cpu\libplatform.a(cm.o)
 .text.cm_write8
                0x0000000000000000       0x28 ..\..\..\libs\cpu\libplatform.a(cm.o)
 .text.cm_write16
                0x0000000000000000       0x28 ..\..\..\libs\cpu\libplatform.a(cm.o)
 .text.cm_write32
                0x0000000000000000       0x24 ..\..\..\libs\cpu\libplatform.a(cm.o)
 .text.cm_clear
                0x0000000000000000       0x60 ..\..\..\libs\cpu\libplatform.a(cm.o)
 .text          0x0000000000000000        0x0 ..\..\..\libs\cpu\libplatform.a(os_flash.o)
 .data          0x0000000000000000        0x0 ..\..\..\libs\cpu\libplatform.a(os_flash.o)
 .bss           0x0000000000000000        0x0 ..\..\..\libs\cpu\libplatform.a(os_flash.o)
 .com_text.spiflash.id
                0x0000000000000000       0x82 ..\..\..\libs\cpu\libplatform.a(os_flash.o)
 .com_text.spiflash.erase_32k
                0x0000000000000000       0x72 ..\..\..\libs\cpu\libplatform.a(os_flash.o)
 .com_text.spiflash.erase_64k
                0x0000000000000000       0x72 ..\..\..\libs\cpu\libplatform.a(os_flash.o)
 .text          0x0000000000000000        0x0 ..\..\..\libs\cpu\libplatform.a(device.o)
 .data          0x0000000000000000        0x0 ..\..\..\libs\cpu\libplatform.a(device.o)
 .bss           0x0000000000000000        0x0 ..\..\..\libs\cpu\libplatform.a(device.o)
 .text          0x0000000000000000        0x0 ..\..\..\libs\cpu\libplatform.a(main.o)
 .data          0x0000000000000000        0x0 ..\..\..\libs\cpu\libplatform.a(main.o)
 .bss           0x0000000000000000        0x0 ..\..\..\libs\cpu\libplatform.a(main.o)
 .text.compiler
                0x0000000000000000       0x20 ..\..\..\libs\cpu\libplatform.a(main.o)
 .text          0x0000000000000000        0x0 ..\..\..\libs\cpu\libplatform.a(interrupt.o)
 .data          0x0000000000000000        0x0 ..\..\..\libs\cpu\libplatform.a(interrupt.o)
 .bss           0x0000000000000000        0x0 ..\..\..\libs\cpu\libplatform.a(interrupt.o)
 .rodata.watch_point_set.str1.4
                0x0000000000000000       0x19 ..\..\..\libs\cpu\libplatform.a(interrupt.o)
 .text.watch_point_set
                0x0000000000000000       0x48 ..\..\..\libs\cpu\libplatform.a(interrupt.o)
 .text.wdt_init
                0x0000000000000000       0x3a ..\..\..\libs\cpu\libplatform.a(interrupt.o)
 .text          0x0000000000000000        0x0 ..\..\..\libs\cpu\libplatform.a(startup.o)
 .data          0x0000000000000000        0x0 ..\..\..\libs\cpu\libplatform.a(startup.o)
 .bss           0x0000000000000000        0x0 ..\..\..\libs\cpu\libplatform.a(startup.o)
 .text.mem_heap_size_get
                0x0000000000000000        0x8 ..\..\..\libs\cpu\libplatform.a(startup.o)
 .text.thread_cfg_get
                0x0000000000000000        0x4 ..\..\..\libs\cpu\libplatform.a(startup.o)
 .text.thread_bthw_create
                0x0000000000000000        0x2 ..\..\..\libs\cpu\libplatform.a(startup.o)
 .text.bt_set_timer_enable
                0x0000000000000000       0x1a ..\..\..\libs\cpu\libplatform.a(startup.o)
 .mem_heap      0x0000000000000000     0x1c00 ..\..\..\libs\cpu\libplatform.a(startup.o)
 .text          0x0000000000000000        0x0 ..\..\..\libs\cpu\libplatform.a(sys_hook.o)
 .data          0x0000000000000000        0x0 ..\..\..\libs\cpu\libplatform.a(sys_hook.o)
 .bss           0x0000000000000000        0x0 ..\..\..\libs\cpu\libplatform.a(sys_hook.o)
 .text          0x0000000000000000        0x0 ..\..\..\libs\cpu\libplatform.a(thread_aupcm.o)
 .data          0x0000000000000000        0x0 ..\..\..\libs\cpu\libplatform.a(thread_aupcm.o)
 .bss           0x0000000000000000        0x0 ..\..\..\libs\cpu\libplatform.a(thread_aupcm.o)
 .text          0x0000000000000000        0x0 ..\..\..\libs\cpu\libplatform.a(thread_driver.o)
 .data          0x0000000000000000        0x0 ..\..\..\libs\cpu\libplatform.a(thread_driver.o)
 .bss           0x0000000000000000        0x0 ..\..\..\libs\cpu\libplatform.a(thread_driver.o)
 .com_text.thread.driver
                0x0000000000000000       0x26 ..\..\..\libs\cpu\libplatform.a(thread_driver.o)
 .text          0x0000000000000000        0x0 ..\..\..\libs\cpu\libplatform.a(pll.o)
 .data          0x0000000000000000        0x0 ..\..\..\libs\cpu\libplatform.a(pll.o)
 .bss           0x0000000000000000        0x0 ..\..\..\libs\cpu\libplatform.a(pll.o)
 .text.pll_clk_nhz_get
                0x0000000000000000       0x22 ..\..\..\libs\cpu\libplatform.a(pll.o)
 .text          0x0000000000000000        0x0 ..\..\..\libs\cpu\libplatform.a(rc.o)
 .data          0x0000000000000000        0x0 ..\..\..\libs\cpu\libplatform.a(rc.o)
 .bss           0x0000000000000000        0x0 ..\..\..\libs\cpu\libplatform.a(rc.o)
 .text.compiler
                0x0000000000000000        0x2 ..\..\..\libs\cpu\libplatform.a(rc.o)
 .text.sleep.rc
                0x0000000000000000       0x3e ..\..\..\libs\cpu\libplatform.a(rc.o)
 .com_sleep.sleep.rc
                0x0000000000000000       0x4e ..\..\..\libs\cpu\libplatform.a(rc.o)
 .comment       0x0000000000000000       0x13 ..\..\..\libs\cpu\libplatform.a(rc.o)
 .riscv.attributes
                0x0000000000000000       0x32 ..\..\..\libs\cpu\libplatform.a(rc.o)
 .text          0x0000000000000000        0x0 ..\..\..\libs\cpu\libplatform.a(reset.o)
 .data          0x0000000000000000        0x0 ..\..\..\libs\cpu\libplatform.a(reset.o)
 .bss           0x0000000000000000        0x0 ..\..\..\libs\cpu\libplatform.a(reset.o)
 .text          0x0000000000000000        0x0 ..\..\..\libs\cpu\libplatform.a(context.o)
 .data          0x0000000000000000        0x0 ..\..\..\libs\cpu\libplatform.a(context.o)
 .bss           0x0000000000000000        0x0 ..\..\..\libs\cpu\libplatform.a(context.o)
 .riscv.attributes
                0x0000000000000000       0x30 ..\..\..\libs\cpu\libplatform.a(context.o)
 .text          0x0000000000000000        0x0 ..\..\..\libs\cpu\libplatform.a(spiflash.o)
 .data          0x0000000000000000        0x0 ..\..\..\libs\cpu\libplatform.a(spiflash.o)
 .bss           0x0000000000000000        0x0 ..\..\..\libs\cpu\libplatform.a(spiflash.o)
 .com_text.spiflash
                0x0000000000000000       0x84 ..\..\..\libs\cpu\libplatform.a(spiflash.o)
 .com_text.spiflash.refactor
                0x0000000000000000      0x112 ..\..\..\libs\cpu\libplatform.a(spiflash.o)
 .com_text.spiflash.read_kick
                0x0000000000000000       0x20 ..\..\..\libs\cpu\libplatform.a(spiflash.o)
 .com_text.spiflash.read_wait
                0x0000000000000000       0x30 ..\..\..\libs\cpu\libplatform.a(spiflash.o)
 .com_text.spiflash.byte_addr
                0x0000000000000000      0x164 ..\..\..\libs\cpu\libplatform.a(spiflash.o)
 .com_text.spiflash.erase_32k
                0x0000000000000000       0x50 ..\..\..\libs\cpu\libplatform.a(spiflash.o)
 .com_text.spiflash.erase_32k.byte_addr
                0x0000000000000000       0x48 ..\..\..\libs\cpu\libplatform.a(spiflash.o)
 .com_text.spiflash.erase_64k
                0x0000000000000000       0x50 ..\..\..\libs\cpu\libplatform.a(spiflash.o)
 .com_text.spiflash.erase_64k.byte_addr
                0x0000000000000000       0x48 ..\..\..\libs\cpu\libplatform.a(spiflash.o)
 .btmem.spi     0x0000000000000000       0x1c ..\..\..\libs\cpu\libplatform.a(spiflash.o)
 .text          0x0000000000000000        0x0 ..\..\..\libs\cpu\libplatform.a(debug.o)
 .data          0x0000000000000000        0x0 ..\..\..\libs\cpu\libplatform.a(debug.o)
 .bss           0x0000000000000000        0x0 ..\..\..\libs\cpu\libplatform.a(debug.o)
 .text.debug_dump_info_nanos_schedule
                0x0000000000000000        0x2 ..\..\..\libs\cpu\libplatform.a(debug.o)
 .text.debug_dump_info_nanos_timer
                0x0000000000000000        0x2 ..\..\..\libs\cpu\libplatform.a(debug.o)
 .text          0x0000000000000000        0x0 ..\..\..\libs\cpu\libplatform.a(fot_pack.o)
 .data          0x0000000000000000        0x0 ..\..\..\libs\cpu\libplatform.a(fot_pack.o)
 .bss           0x0000000000000000        0x0 ..\..\..\libs\cpu\libplatform.a(fot_pack.o)
 .text.ota_pack_deinit
                0x0000000000000000       0x2a ..\..\..\libs\cpu\libplatform.a(fot_pack.o)
 .text          0x0000000000000000        0x0 ..\..\..\libs\cpu\libplatform.a(lock.o)
 .data          0x0000000000000000        0x0 ..\..\..\libs\cpu\libplatform.a(lock.o)
 .bss           0x0000000000000000        0x0 ..\..\..\libs\cpu\libplatform.a(lock.o)
 .rodata.lock_code_alg.str1.4
                0x0000000000000000       0x1f ..\..\..\libs\cpu\libplatform.a(lock.o)
 .text.lock_code_alg
                0x0000000000000000       0x60 ..\..\..\libs\cpu\libplatform.a(lock.o)
 .text.unlock_code_alg
                0x0000000000000000       0x38 ..\..\..\libs\cpu\libplatform.a(lock.o)
 .text          0x0000000000000000        0x0 ..\..\..\libs\cpu\libplatform.a(patch.o)
 .data          0x0000000000000000        0x0 ..\..\..\libs\cpu\libplatform.a(patch.o)
 .bss           0x0000000000000000        0x0 ..\..\..\libs\cpu\libplatform.a(patch.o)
 .text          0x0000000000000000        0x0 ..\..\..\libs\cpu\libplatform.a(s_sys.o)
 .data          0x0000000000000000        0x0 ..\..\..\libs\cpu\libplatform.a(s_sys.o)
 .bss           0x0000000000000000        0x0 ..\..\..\libs\cpu\libplatform.a(s_sys.o)
 .text          0x0000000000000000        0x0 ..\..\..\libs\cpu\libplatform.a(sys.o)
 .data          0x0000000000000000        0x0 ..\..\..\libs\cpu\libplatform.a(sys.o)
 .bss           0x0000000000000000        0x0 ..\..\..\libs\cpu\libplatform.a(sys.o)
 .text.udivmoddi4
                0x0000000000000000       0x96 ..\..\..\libs\cpu\libplatform.a(sys.o)
 .text.sys_rst_init
                0x0000000000000000       0x7c ..\..\..\libs\cpu\libplatform.a(sys.o)
 .rodata.sys_rst_dump.str1.4
                0x0000000000000000       0x51 ..\..\..\libs\cpu\libplatform.a(sys.o)
 .text.sys_rst_dump
                0x0000000000000000       0x92 ..\..\..\libs\cpu\libplatform.a(sys.o)
 .text.dbg_clk_out
                0x0000000000000000       0x46 ..\..\..\libs\cpu\libplatform.a(sys.o)
 .text.rc2m_clk_nhz_cal
                0x0000000000000000      0x10e ..\..\..\libs\cpu\libplatform.a(sys.o)
 .text.sys_get_rand_key
                0x0000000000000000       0x6c ..\..\..\libs\cpu\libplatform.a(sys.o)
 .text.xosc_init
                0x0000000000000000       0xa2 ..\..\..\libs\cpu\libplatform.a(sys.o)
 .text.bsp.param
                0x0000000000000000       0x32 ..\..\..\libs\cpu\libplatform.a(sys.o)
 .text.bt_restore_xosc_cap
                0x0000000000000000        0x8 ..\..\..\libs\cpu\libplatform.a(sys.o)
 .text.bt_get_xosc_cap
                0x0000000000000000        0xc ..\..\..\libs\cpu\libplatform.a(sys.o)
 .text.bt_set_xosc_cap
                0x0000000000000000       0x18 ..\..\..\libs\cpu\libplatform.a(sys.o)
 .text.bt_adj_xosc_cap
                0x0000000000000000       0x72 ..\..\..\libs\cpu\libplatform.a(sys.o)
 .text.__divdi3
                0x0000000000000000       0x5c ..\..\..\libs\cpu\libplatform.a(sys.o)
 .text.__udivdi3
                0x0000000000000000        0xa ..\..\..\libs\cpu\libplatform.a(sys.o)
 .text.__umoddi3
                0x0000000000000000       0x30 ..\..\..\libs\cpu\libplatform.a(sys.o)
 .text.get_random
                0x0000000000000000       0x26 ..\..\..\libs\cpu\libplatform.a(sys.o)
 .text.random_init
                0x0000000000000000        0xa ..\..\..\libs\cpu\libplatform.a(sys.o)
 .com_text.sys  0x0000000000000000       0x1e ..\..\..\libs\cpu\libplatform.a(sys.o)
 .text.sw_reset_source_get
                0x0000000000000000       0x2a ..\..\..\libs\cpu\libplatform.a(sys.o)
 .text          0x0000000000000000        0x0 ..\..\..\libs\cpu\libplatform.a(sys_clk.o)
 .data          0x0000000000000000        0x0 ..\..\..\libs\cpu\libplatform.a(sys_clk.o)
 .bss           0x0000000000000000        0x0 ..\..\..\libs\cpu\libplatform.a(sys_clk.o)
 .text.periph_cacl_clkdiv
                0x0000000000000000        0x2 ..\..\..\libs\cpu\libplatform.a(sys_clk.o)
 .text.sys_clk_get
                0x0000000000000000        0xa ..\..\..\libs\cpu\libplatform.a(sys_clk.o)
 .text.sys_clk_lower_limit_lock
                0x0000000000000000       0x84 ..\..\..\libs\cpu\libplatform.a(sys_clk.o)
 .text.sys_clk_lower_limit_unlock
                0x0000000000000000       0x6c ..\..\..\libs\cpu\libplatform.a(sys_clk.o)
 .text.sys_clk_lower_limit_all_unlock
                0x0000000000000000       0x50 ..\..\..\libs\cpu\libplatform.a(sys_clk.o)
 .srodata.rtc_clk_div_coef
                0x0000000000000000        0x4 ..\..\..\libs\cpu\libplatform.a(sys_clk.o)
 .text          0x0000000000000000        0x0 ..\..\..\libs\cpu\libplatform.a(voltage_trim.o)
 .data          0x0000000000000000        0x0 ..\..\..\libs\cpu\libplatform.a(voltage_trim.o)
 .bss           0x0000000000000000        0x0 ..\..\..\libs\cpu\libplatform.a(voltage_trim.o)
 .text.charge_const_curr_trim
                0x0000000000000000       0x7c ..\..\..\libs\cpu\libplatform.a(voltage_trim.o)
 .text.charge_cutoff_curr_trim
                0x0000000000000000       0x70 ..\..\..\libs\cpu\libplatform.a(voltage_trim.o)
 .com_text.get.vrtc24_mv
                0x0000000000000000        0xa ..\..\..\libs\cpu\libplatform.a(voltage_trim.o)
 .com_text.get.vbatdet
                0x0000000000000000       0x28 ..\..\..\libs\cpu\libplatform.a(voltage_trim.o)
 .rodata.voltage_trim_value_dump.str1.4
                0x0000000000000000       0xa1 ..\..\..\libs\cpu\libplatform.a(voltage_trim.o)
 .text.voltage_trim_value_dump
                0x0000000000000000       0xf8 ..\..\..\libs\cpu\libplatform.a(voltage_trim.o)
 .rodata.ichsel
                0x0000000000000000       0x80 ..\..\..\libs\cpu\libplatform.a(voltage_trim.o)
 .rodata.iends  0x0000000000000000       0x10 ..\..\..\libs\cpu\libplatform.a(voltage_trim.o)
 .text          0x0000000000000000        0x0 ..\..\..\libs\cpu\libplatform.a(weak_symbol.o)
 .data          0x0000000000000000        0x0 ..\..\..\libs\cpu\libplatform.a(weak_symbol.o)
 .bss           0x0000000000000000        0x0 ..\..\..\libs\cpu\libplatform.a(weak_symbol.o)
 .text.xosc_get_xcfg
                0x0000000000000000        0x2 ..\..\..\libs\cpu\libplatform.a(weak_symbol.o)
 .text.param_xosc_read
                0x0000000000000000        0x2 ..\..\..\libs\cpu\libplatform.a(weak_symbol.o)
 .text.param_xosc_write
                0x0000000000000000        0x2 ..\..\..\libs\cpu\libplatform.a(weak_symbol.o)
 .text.dongle_alg_tbl_get
                0x0000000000000000        0x4 ..\..\..\libs\cpu\libplatform.a(weak_symbol.o)
 .text.dongle_soft_key_get
                0x0000000000000000        0x4 ..\..\..\libs\cpu\libplatform.a(weak_symbol.o)
 .com_text.ret.stack.thread
                0x0000000000000000        0x2 ..\..\..\libs\cpu\libplatform.a(weak_symbol.o)
 .text          0x0000000000000000        0x0 ..\..\..\libs\cpu\libplatform.a(sddac.o)
 .data          0x0000000000000000        0x0 ..\..\..\libs\cpu\libplatform.a(sddac.o)
 .bss           0x0000000000000000        0x0 ..\..\..\libs\cpu\libplatform.a(sddac.o)
 .text.sddac_done_callback_set
                0x0000000000000000        0xc ..\..\..\libs\cpu\libplatform.a(sddac.o)
 .com_text.irq.sddac
                0x0000000000000000       0x2a ..\..\..\libs\cpu\libplatform.a(sddac.o)
 .text          0x0000000000000000        0x0 ..\..\..\libs\cpu\libplatform.a(bt.o)
 .data          0x0000000000000000        0x0 ..\..\..\libs\cpu\libplatform.a(bt.o)
 .bss           0x0000000000000000        0x0 ..\..\..\libs\cpu\libplatform.a(bt.o)
 .com_text.bthw
                0x0000000000000000        0x4 ..\..\..\libs\cpu\libplatform.a(bt.o)
 .com_text.stack.api
                0x0000000000000000       0x34 ..\..\..\libs\cpu\libplatform.a(bt.o)
 .com_text.stack.thread
                0x0000000000000000       0x36 ..\..\..\libs\cpu\libplatform.a(bt.o)
 .text          0x0000000000000000        0x0 ..\..\..\libs\cpu\libplatform.a(crc.o)
 .data          0x0000000000000000        0x0 ..\..\..\libs\cpu\libplatform.a(crc.o)
 .bss           0x0000000000000000        0x0 ..\..\..\libs\cpu\libplatform.a(crc.o)
 .text.calc_crc16
                0x0000000000000000       0x2a ..\..\..\libs\cpu\libplatform.a(crc.o)
 .com_text.crc8
                0x0000000000000000       0x28 ..\..\..\libs\cpu\libplatform.a(crc.o)
 .com_rodata.crc.tbl
                0x0000000000000000      0x100 ..\..\..\libs\cpu\libplatform.a(crc.o)
 .rodata.crc.tbl
                0x0000000000000000      0x200 ..\..\..\libs\cpu\libplatform.a(crc.o)
 .text          0x0000000000000000        0x0 ..\..\..\libs\usb\libusb.a(usb_comm.o)
 .data          0x0000000000000000        0x0 ..\..\..\libs\usb\libusb.a(usb_comm.o)
 .bss           0x0000000000000000        0x0 ..\..\..\libs\usb\libusb.a(usb_comm.o)
 .text.usb_init_2
                0x0000000000000000        0x8 ..\..\..\libs\usb\libusb.a(usb_comm.o)
 .text          0x0000000000000000        0x0 ..\..\..\libs\usb\libusb.a(usb_detect.o)
 .data          0x0000000000000000        0x0 ..\..\..\libs\usb\libusb.a(usb_detect.o)
 .bss           0x0000000000000000        0x0 ..\..\..\libs\usb\libusb.a(usb_detect.o)
 .com_text.usb.dect.host
                0x0000000000000000       0x12 ..\..\..\libs\usb\libusb.a(usb_detect.o)
 .com_text.usb.dect.pc
                0x0000000000000000       0x10 ..\..\..\libs\usb\libusb.a(usb_detect.o)
 .com_text.usb.dect.proc
                0x0000000000000000       0xcc ..\..\..\libs\usb\libusb.a(usb_detect.o)
 .text          0x0000000000000000        0x0 ..\..\..\libs\usb\libusb.a(usb_ep.o)
 .data          0x0000000000000000        0x0 ..\..\..\libs\usb\libusb.a(usb_ep.o)
 .text.usb_host_ep_type_set
                0x0000000000000000       0x42 ..\..\..\libs\usb\libusb.a(usb_ep.o)
 .text          0x0000000000000000        0x0 ..\..\..\libs\usb\libusb.a(usb_device_enum.o)
 .data          0x0000000000000000        0x0 ..\..\..\libs\usb\libusb.a(usb_device_enum.o)
 .bss           0x0000000000000000        0x0 ..\..\..\libs\usb\libusb.a(usb_device_enum.o)
 .text          0x0000000000000000        0x0 ..\..\..\libs\usb\libusb.a(usb_device_manage.o)
 .data          0x0000000000000000        0x0 ..\..\..\libs\usb\libusb.a(usb_device_manage.o)
 .bss           0x0000000000000000        0x0 ..\..\..\libs\usb\libusb.a(usb_device_manage.o)
 .text          0x0000000000000000        0x0 ..\..\..\libs\usb\libusb.a(usb_host_manage.o)
 .data          0x0000000000000000        0x0 ..\..\..\libs\usb\libusb.a(usb_host_manage.o)
 .bss           0x0000000000000000        0x0 ..\..\..\libs\usb\libusb.a(usb_host_manage.o)
 .text.usb.host.init
                0x0000000000000000       0x3a ..\..\..\libs\usb\libusb.a(usb_host_manage.o)
 .text.usb_host_exit
                0x0000000000000000        0x8 ..\..\..\libs\usb\libusb.a(usb_host_manage.o)
 .text.usb_host_suspend
                0x0000000000000000        0xe ..\..\..\libs\usb\libusb.a(usb_host_manage.o)
 .text.usb_host_resume
                0x0000000000000000        0xc ..\..\..\libs\usb\libusb.a(usb_host_manage.o)
 .text.usb_host_session_start
                0x0000000000000000        0x8 ..\..\..\libs\usb\libusb.a(usb_host_manage.o)
 .text          0x0000000000000000        0x0 ..\..\..\libs\usb\libusb.a(usb_host_enum.o)
 .data          0x0000000000000000        0x0 ..\..\..\libs\usb\libusb.a(usb_host_enum.o)
 .bss           0x0000000000000000        0x0 ..\..\..\libs\usb\libusb.a(usb_host_enum.o)
 .text.wait_transfering
                0x0000000000000000       0x38 ..\..\..\libs\usb\libusb.a(usb_host_enum.o)
 .text.usb_device_addr_set
                0x0000000000000000        0xa ..\..\..\libs\usb\libusb.a(usb_host_enum.o)
 .text.usb_host_reset
                0x0000000000000000       0x36 ..\..\..\libs\usb\libusb.a(usb_host_enum.o)
 .text.usb_host_ep0_out_transfer
                0x0000000000000000       0x54 ..\..\..\libs\usb\libusb.a(usb_host_enum.o)
 .text.usb_host_ep0_in_transfer
                0x0000000000000000       0xa0 ..\..\..\libs\usb\libusb.a(usb_host_enum.o)
 .text.usb_host_ep0_setup_transfer
                0x0000000000000000       0x48 ..\..\..\libs\usb\libusb.a(usb_host_enum.o)
 .text.uhe_init
                0x0000000000000000       0x1e ..\..\..\libs\usb\libusb.a(usb_host_enum.o)
 .comment       0x0000000000000000       0x13 ..\..\..\libs\usb\libusb.a(usb_host_enum.o)
 .riscv.attributes
                0x0000000000000000       0x32 ..\..\..\libs\usb\libusb.a(usb_host_enum.o)

Memory Configuration

Name             Origin             Length             Attributes
init             0x0000000010000000 0x0000000000000200
flash            0x0000000010000200 0x000000000003e000 xr
comm             0x0000000000013800 0x0000000000004800 xr
stack            0x0000000000010800 0x0000000000000400
data             0x0000000000010c00 0x0000000000002c00
bram             0x0000000000018000 0x0000000000006c00
cram             0x000000000001ec00 0x0000000000001400
*default*        0x0000000000000000 0xffffffffffffffff

Linker script and memory map

LOAD Output\obj\driver\driver_clk.o
LOAD Output\obj\driver\driver_gpio.o
LOAD Output\obj\driver\driver_sdadc.o
LOAD Output\obj\driver\driver_sddac.o
LOAD Output\obj\driver\driver_uart.o
LOAD Output\obj\modules\ains\ains3.o
LOAD Output\obj\modules\ains\ains4.o
LOAD Output\obj\project\example\usb_example\fota\bsp_param.o
LOAD Output\obj\project\example\usb_example\fota\fota_proc.o
LOAD Output\obj\project\example\usb_example\hardware\audio\sdadc.o
LOAD Output\obj\project\example\usb_example\hardware\audio\sddac.o
LOAD Output\obj\project\example\usb_example\hardware\uart\bsp_uart_debug.o
LOAD Output\obj\project\example\usb_example\hardware\usb\usb_audio\usb_audio.o
LOAD Output\obj\project\example\usb_example\hardware\usb\usb_audio\usb_audio_desc.o
LOAD Output\obj\project\example\usb_example\hardware\usb\usb_cdc\usb_cdc.o
LOAD Output\obj\project\example\usb_example\hardware\usb\usb_cdc\usb_cdc_desc.o
LOAD Output\obj\project\example\usb_example\hardware\usb\usb_cdc\usb_usr_cdc.o
LOAD Output\obj\project\example\usb_example\hardware\usb\usb_com.o
LOAD Output\obj\project\example\usb_example\hardware\usb\usb_desc.o
LOAD Output\obj\project\example\usb_example\hardware\usb\usb_dev_enum.o
LOAD Output\obj\project\example\usb_example\hardware\usb\usb_hid\usb_hid.o
LOAD Output\obj\project\example\usb_example\hardware\usb\usb_hid\usb_hid_desc.o
LOAD Output\obj\project\example\usb_example\hardware\usb\usb_hid\usb_usr_hid.o
LOAD Output\obj\project\example\usb_example\hardware\usb\usb_vendor\usb_usr_vendor.o
LOAD Output\obj\project\example\usb_example\hardware\usb\usb_vendor\usb_vendor.o
LOAD Output\obj\project\example\usb_example\hardware\usb\usb_vendor\usb_vendor_desc.o
LOAD Output\obj\project\example\usb_example\main.o
LOAD Output\obj\project\example\usb_example\strong_symbol.o
LOAD Output\obj\project\example\usb_example\utils\utils_ring_buffer.o
                0x000000000003e000                __max_flash_size = 0x3e000
                0x0000000010000000                __base = 0x10000000
                0x0000000000010600                __cache_stack_vma = 0x10600
                0x0000000000000200                __cache_stack_size = 0x200
                0x0000000000010800                __stack_vma = 0x10800
                0x0000000000000400                __stack_ram_size = 0x400
                0x0000000000010c00                __data_vma = 0x10c00
                0x0000000000002c00                __data_ram_size = 0x2c00
                0x0000000000013800                __comm_vma = 0x13800
                0x0000000000004800                __comm_ram_size = 0x4800
                0x0000000000018000                __bram_vma = 0x18000
                0x0000000000006c00                __bram_ram_size = 0x6c00
                0x000000000001ec00                __cram_vma = 0x1ec00
                0x0000000000001400                __cram_ram_size = 0x1400

.init           0x0000000010000000       0x4e
 *(.reset)
 .reset         0x0000000010000000       0x4e ..\..\..\libs\cpu\libplatform.a(reset.o)
                0x0000000010000000                _start

.comm           0x0000000000013800     0x1400 load address 0x0000000010000200
 *(.vector)
 .vector        0x0000000000013800      0x19a ..\..\..\libs\cpu\libplatform.a(reset.o)
                0x00000000000138a0                _exception_isr
                0x00000000000138a2                nop_isr
 *(.com_text*)
 .com_text.thread.aupcm
                0x000000000001399a       0x22 Output\obj\project\example\usb_example\hardware\audio\sdadc.o
                0x000000000001399a                sdadc_done_callback_func
 .com_text.isr.sdadc
                0x00000000000139bc       0x2c Output\obj\project\example\usb_example\hardware\audio\sdadc.o
                0x00000000000139bc                sdadc_isr
 .com_text.isr.sddac
                0x00000000000139e8       0x30 Output\obj\project\example\usb_example\hardware\audio\sddac.o
                0x00000000000139e8                sddac_isr
 .com_text.usbdev
                0x0000000000013a18       0x36 Output\obj\project\example\usb_example\hardware\usb\usb_audio\usb_audio.o
                0x0000000000013a18                usb_audio_speaker_stream
 .com_text.thread.driver
                0x0000000000013a4e       0x32 Output\obj\project\example\usb_example\hardware\usb\usb_com.o
                0x0000000000013a4e                thread_driver_event_handle
 .com_text.isr.sof
                0x0000000000013a80        0x8 Output\obj\project\example\usb_example\hardware\usb\usb_com.o
                0x0000000000013a80                usb_sof_callback
 .com_text.usb.hid
                0x0000000000013a88       0x64 Output\obj\project\example\usb_example\hardware\usb\usb_hid\usb_usr_hid.o
                0x0000000000013a88                usb_usr_hid_data_in
 .com_text.usb.vendor.usr
                0x0000000000013aec        0x8 Output\obj\project\example\usb_example\hardware\usb\usb_vendor\usb_usr_vendor.o
 .com_text.usb.vendor.queue
                0x0000000000013af4       0xc2 Output\obj\project\example\usb_example\hardware\usb\usb_vendor\usb_usr_vendor.o
 .com_text.usb.vendor.user
                0x0000000000013bb6       0x26 Output\obj\project\example\usb_example\hardware\usb\usb_vendor\usb_usr_vendor.o
                0x0000000000013bb6                usb_usr_vendor_mouse_write
 .com_text.detect
                0x0000000000013bdc       0x32 Output\obj\project\example\usb_example\main.o
                0x0000000000013bdc                usb_detect
 .com_text.timer
                0x0000000000013c0e        0xe Output\obj\project\example\usb_example\main.o
                0x0000000000013c0e                usr_tmr5ms_thread_callback
 .com_text.ring_buf.write
                0x0000000000013c1c       0x72 Output\obj\project\example\usb_example\utils\utils_ring_buffer.o
                0x0000000000013c1c                utils_ring_buffer_write
 .com_text.ring_buf.read
                0x0000000000013c8e       0x64 Output\obj\project\example\usb_example\utils\utils_ring_buffer.o
                0x0000000000013c8e                utils_ring_buffer_read
 .com_text.sdadc.done
                0x0000000000013cf2        0xc ..\..\..\libs\cpu\libplatform.a(sdadc.o)
                0x0000000000013cf2                sdadc_dma_done_do
 .com_text.irq.sdadc
                0x0000000000013cfe       0x18 ..\..\..\libs\cpu\libplatform.a(sdadc.o)
                0x0000000000013cfe                sdadc_done_proc_kick
 .com_text.spiflash.dev_id
                0x0000000000013d16       0x3e ..\..\..\libs\cpu\libplatform.a(os_flash.o)
                0x0000000000013d16                os_spiflash_cap_id_get
 .com_text.spiflash.read
                0x0000000000013d54       0x32 ..\..\..\libs\cpu\libplatform.a(os_flash.o)
                0x0000000000013d54                os_spiflash_read
 .com_text.spiflash
                0x0000000000013d86       0xe2 ..\..\..\libs\cpu\libplatform.a(os_flash.o)
                0x0000000000013d86                os_spiflash_addr_check
                0x0000000000013d8a                os_spiflash_addr_check_2
                0x0000000000013da2                os_spiflash_program
                0x0000000000013dee                os_spiflash_program_2
                0x0000000000013e28                os_spiflash_erase
 .com_text.spiflash.protect.weak
                0x0000000000013e68       0x36 ..\..\..\libs\cpu\libplatform.a(os_flash.o)
                0x0000000000013e68                os_spiflash_data_protect
                0x0000000000013e82                os_spiflash_data_is_protect
 .com_text.spiflash.erase_2
                0x0000000000013e9e       0x50 ..\..\..\libs\cpu\libplatform.a(os_flash.o)
                0x0000000000013e9e                os_spiflash_erase_2
 .com_text.device
                0x0000000000013eee       0xf2 ..\..\..\libs\cpu\libplatform.a(device.o)
                0x0000000000013eee                dev_is_online
                0x0000000000013efc                dev_online_filter
                0x0000000000013f74                dev_offline_filter
 .com_text.exception.hook
                0x0000000000013fe0       0x3e ..\..\..\libs\cpu\libplatform.a(main.o)
                0x0000000000013fe0                sys_error_hook
 .com_text.exception
                0x000000000001401e       0x7e ..\..\..\libs\cpu\libplatform.a(main.o)
                0x000000000001401e                exception_isr
 .com_text.delay
                0x000000000001409c       0x54 ..\..\..\libs\cpu\libplatform.a(main.o)
                0x000000000001409c                delay_5ms
                0x00000000000140b6                delay_ms
                0x00000000000140ce                delay_us
                0x00000000000140e6                delay
 .com_text.irq  0x00000000000140f0       0xe0 ..\..\..\libs\cpu\libplatform.a(interrupt.o)
                0x00000000000140f0                tick0_isr
                0x000000000001414c                register_isr
                0x0000000000014186                tick_get
                0x000000000001418e                tick_check_expire
                0x00000000000141a0                watch_point_isr
 .com_text.timer
                0x00000000000141d0       0x10 ..\..\..\libs\cpu\libplatform.a(startup.o)
 .com_text.thread.driver
                0x00000000000141e0       0x26 ..\..\..\libs\cpu\libplatform.a(thread_aupcm.o)
                0x00000000000141e0                os_mq_aupcm_post
 .com_text.thread.aupcm
                0x0000000000014206       0x54 ..\..\..\libs\cpu\libplatform.a(thread_aupcm.o)
                0x0000000000014206                thread_aupcm_entry
 .com_text.thread.driver.usb
                0x000000000001425a       0x42 ..\..\..\libs\cpu\libplatform.a(thread_driver.o)
                0x000000000001425a                thread_driver_usb_msg_post
 .com_text.thread.driver.vs
                0x000000000001429c       0x42 ..\..\..\libs\cpu\libplatform.a(thread_driver.o)
                0x000000000001429c                thread_driver_msg_post
 .com_text.thread.driver.enter
                0x00000000000142de       0x56 ..\..\..\libs\cpu\libplatform.a(thread_driver.o)
                0x00000000000142de                thread_driver_entry
 .com_text.irq  0x0000000000014334       0x52 ..\..\..\libs\cpu\libplatform.a(reset.o)
                0x0000000000014334                cpu_irq_comm
 .com_text.util.isr
                0x0000000000014386        0x6 ..\..\..\libs\cpu\libplatform.a(reset.o)
                0x0000000000014386                kick_soft_isr
 .com_text.spiflash.delay
                0x000000000001438c        0xc ..\..\..\libs\cpu\libplatform.a(spiflash.o)
                0x000000000001438c                spi_delay
 .com_text.spiflash.get
                0x0000000000014398       0x28 ..\..\..\libs\cpu\libplatform.a(spiflash.o)
                0x0000000000014398                spi_getbyte
 .com_text.spiflash.send
                0x00000000000143c0       0x1a ..\..\..\libs\cpu\libplatform.a(spiflash.o)
                0x00000000000143c0                spi_sendbyte
 .com_text.spiflash.w_en
                0x00000000000143da       0x16 ..\..\..\libs\cpu\libplatform.a(spiflash.o)
 .com_text.spiflash.rssr
                0x00000000000143f0       0x20 ..\..\..\libs\cpu\libplatform.a(spiflash.o)
 .com_text.spiflash.busy
                0x0000000000014410       0x10 ..\..\..\libs\cpu\libplatform.a(spiflash.o)
 .com_text.spiflash.read
                0x0000000000014420        0x4 ..\..\..\libs\cpu\libplatform.a(spiflash.o)
                0x0000000000014420                spiflash_read
 .com_text.spiflash.program
                0x0000000000014424       0x26 ..\..\..\libs\cpu\libplatform.a(spiflash.o)
                0x0000000000014424                spiflash_program
 .com_text.spiflash.erase
                0x000000000001444a       0x2a ..\..\..\libs\cpu\libplatform.a(spiflash.o)
                0x000000000001444a                spiflash_erase
 .com_text.spiflash.wrsr
                0x0000000000014474       0x1e ..\..\..\libs\cpu\libplatform.a(spiflash.o)
                0x0000000000014474                spiflash_wrsr
 .com_text.spiflash.protect.en
                0x0000000000014492        0x4 ..\..\..\libs\cpu\libplatform.a(spiflash.o)
                0x0000000000014492                spiflash_data_protect_en
 .com_text.spiflash.protect_do
                0x0000000000014496       0x4c ..\..\..\libs\cpu\libplatform.a(spiflash.o)
                0x0000000000014496                spiflash_data_protect
 .com_text.spiflash.is_protect
                0x00000000000144e2       0x3a ..\..\..\libs\cpu\libplatform.a(spiflash.o)
                0x00000000000144e2                spiflash_data_is_protect
 .com_text.spiflash.addr.size
                0x000000000001451c        0x4 ..\..\..\libs\cpu\libplatform.a(spiflash.o)
                0x000000000001451c                spiflash_addr_4byte
 .com_text.debug
                0x0000000000014520       0x68 ..\..\..\libs\cpu\libplatform.a(debug.o)
 .com_text.sys  0x0000000000014588       0x68 ..\..\..\libs\cpu\libplatform.a(s_sys.o)
                0x0000000000014588                s_ff1
                0x000000000001458e                s_fl1
                0x0000000000014594                s_log2
                0x000000000001459c                s_clb
                0x00000000000145a2                s_bcnt
                0x00000000000145a8                s_ror
                0x00000000000145ae                s_swapw
                0x00000000000145b4                s_bitrvti
                0x00000000000145ba                s_clip16
                0x00000000000145c0                s_abs
                0x00000000000145c6                mul_r
                0x00000000000145d2                dummy_func
                0x00000000000145d4                __ashrdi3
                0x00000000000145e2                __ashldi3
 .com_text.timer
                0x00000000000145f0        0x4 ..\..\..\libs\cpu\libplatform.a(weak_symbol.o)
                0x00000000000145f2                usr_tmr1ms_isr_callback
 .com_text.stack.api
                0x00000000000145f4        0x4 ..\..\..\libs\cpu\libplatform.a(weak_symbol.o)
                0x00000000000145f4                bt_get_status
 .com_text.bb.isr
                0x00000000000145f8        0x2 ..\..\..\libs\cpu\libplatform.a(weak_symbol.o)
                0x00000000000145f8                bb_hal_isr
 .com_text.isr  0x00000000000145fa        0x2 ..\..\..\libs\cpu\libplatform.a(weak_symbol.o)
                0x00000000000145fa                bt_timer_isr
 .com_text.stack.run_loop
                0x00000000000145fc        0x2 ..\..\..\libs\cpu\libplatform.a(weak_symbol.o)
                0x00000000000145fc                btstack_run_loop_execute_once
 .com_text.sddac.done
                0x00000000000145fe        0xc ..\..\..\libs\cpu\libplatform.a(sddac.o)
                0x00000000000145fe                sddac_dma_done_do
 .com_text.stack.run_loop
                0x000000000001460a       0x6c ..\..\..\libs\cpu\libplatform.a(bt.o)
                0x000000000001460a                thread_btstack_entry
 .com_text.thread.driver.usb
                0x0000000000014676       0x68 ..\..\..\libs\usb\libusb.a(usb_comm.o)
                0x0000000000014676                thread_driver_usb_event_callback
 .com_text.usbdev.com
                0x00000000000146de       0x2a ..\..\..\libs\usb\libusb.a(usb_comm.o)
                0x00000000000146de                usb_interrupt_disable
 .com_text.irq  0x0000000000014708       0x16 ..\..\..\libs\usb\libusb.a(usb_comm.o)
                0x0000000000014708                usb_isr
 .com_text.usb.dect.otg_dev
                0x000000000001471e       0x12 ..\..\..\libs\usb\libusb.a(usb_detect.o)
                0x000000000001471e                usbchk_switch_otg_device
 .com_text.usb.dect.otg_host
                0x0000000000014730       0x12 ..\..\..\libs\usb\libusb.a(usb_detect.o)
                0x0000000000014730                usbchk_switch_otg_host
 .com_text.usb.dect.dev
                0x0000000000014742       0x2e ..\..\..\libs\usb\libusb.a(usb_detect.o)
                0x0000000000014742                usbchk_only_device
                0x0000000000014754                usbchk_device_connect
 .com_text.usb.dect2.pc
                0x0000000000014770       0x20 ..\..\..\libs\usb\libusb.a(usb_detect.o)
                0x0000000000014770                usbchk_host_connect_2
 .com_text.irq  0x0000000000014790       0xc2 ..\..\..\libs\usb\libusb.a(usb_device_manage.o)
                0x0000000000014790                usb_dev_isr
 .com_text.irq  0x0000000000014852       0xb0 ..\..\..\libs\usb\libusb.a(usb_host_manage.o)
                0x0000000000014852                usb_host_isr
 *(.com_rodata*)
 *fill*         0x0000000000014902        0x2 
 .com_rodata.exception
                0x0000000000014904       0x49 ..\..\..\libs\cpu\libplatform.a(main.o)
 *fill*         0x000000000001494d        0x3 
 .com_rodata.irq
                0x0000000000014950       0x1b ..\..\..\libs\cpu\libplatform.a(interrupt.o)
                0x0000000000014950                watch_point_str
 *fill*         0x000000000001496b        0x1 
 .com_rodata.miss
                0x000000000001496c       0x29 ..\..\..\libs\cpu\libplatform.a(debug.o)
 *fill*         0x0000000000014995        0x3 
 .com_rodata.epsize.table
                0x0000000000014998        0x4 ..\..\..\libs\usb\libusb.a(usb_ep.o)
                0x0000000000014998                epsize_tbl
 *debug.o(.rodata*)
 *(.com_sleep*)
 *(.com_periph.*)
 .com_periph.gpio.read_bit
                0x000000000001499c        0xa Output\obj\driver\driver_gpio.o
                0x000000000001499c                gpio_read_bit
 .com_periph.sdadc.flag
                0x00000000000149a6       0x4c Output\obj\driver\driver_sdadc.o
                0x00000000000149a6                sdadc_get_flag
                0x00000000000149cc                sdadc_clear_flag
 .com_periph.sddac.kick
                0x00000000000149f2       0x24 Output\obj\driver\driver_sddac.o
                0x00000000000149f2                sddac_dma_kick_start
 .com_periph.sddac.get
                0x0000000000014a16       0x28 Output\obj\driver\driver_sddac.o
                0x0000000000014a16                sddac_get_flag
 .com_periph.sddac.clear
                0x0000000000014a3e       0x1c Output\obj\driver\driver_sddac.o
                0x0000000000014a3e                sddac_clear_flag
 *(.data*)
 *fill*         0x0000000000014a5a        0x2 
 .data          0x0000000000014a5c       0x1c Output\obj\project\example\usb_example\hardware\usb\usb_hid\usb_usr_hid.o
                0x0000000000014a5c                usb_usr_hid_cb
 .data          0x0000000000014a78       0x1c Output\obj\project\example\usb_example\hardware\usb\usb_vendor\usb_usr_vendor.o
                0x0000000000014a78                usb_usr_vendor_cb
 *(.sdata*)
 .sdata         0x0000000000014a94        0x7 Output\obj\project\example\usb_example\fota\fota_proc.o
                0x0000000000014c00                . = ALIGN (0x200)
 *fill*         0x0000000000014a9b      0x165 

.flash          0x0000000010001600     0x6600
                0x0000000010001600                __code_start_sleep = .
                0x0000000010001600                . = ALIGN (0x200)
                0x0000000010001600                __code_end_sleep = .
                0x0000000010001600                __code_start_usbdev = .
 *(.usbdev*)
 .usbdev.com    0x0000000010001600      0x442 Output\obj\project\example\usb_example\hardware\usb\usb_audio\usb_audio.o
                0x0000000010001600                usb_audio_out_callback
                0x0000000010001654                usb_audio_in_callback
                0x00000000100016a8                usb_audio_set_isocin_flag
                0x00000000100016b0                usb_audio_get_isocin_flag
                0x00000000100016b8                usb_audio_mic_stream
                0x00000000100016e4                usb_audio_get_mic_mute
                0x0000000010001704                usb_audio_set_mic_mute
                0x0000000010001718                usb_audio_set_mic_volume
                0x0000000010001736                usb_audio_get_mic_volume
                0x00000000100017fc                usb_audio_set_isocout_flag
                0x0000000010001804                usb_audio_get_isocout_flag
                0x000000001000180c                usb_audio_get_spk_volume
                0x000000001000185a                usb_audio_set_spk_mute
                0x000000001000186e                usb_audio_set_spk_volume
                0x000000001000188c                usb_audio_speaker_sync
                0x00000000100018e2                usb_audio_get_spk_mute
                0x0000000010001902                usb_isoc_ep_reset
                0x000000001000192a                usb_audio_run_loop_execute
 *fill*         0x0000000010001a42        0x2 
 .usbdev.com.table
                0x0000000010001a44        0xb Output\obj\project\example\usb_example\hardware\usb\usb_audio\usb_audio.o
 *fill*         0x0000000010001a4f        0x1 
 .usbdev.com    0x0000000010001a50       0x10 Output\obj\project\example\usb_example\hardware\usb\usb_com.o
                0x0000000010001a50                usb_device_process
 .usbdev.com    0x0000000010001a60      0x2ee Output\obj\project\example\usb_example\hardware\usb\usb_dev_enum.o
                0x0000000010001d38                ude_state_reset
 .usbdev.com    0x0000000010001d4e       0xae Output\obj\project\example\usb_example\hardware\usb\usb_hid\usb_hid.o
                0x0000000010001d4e                usb_hid_out_callback
                0x0000000010001d7c                usb_hid_in_callback
                0x0000000010001dbc                usb_hid_setvalid
                0x0000000010001dd0                usb_int_ep_reset
 .usbdev.com.table
                0x0000000010001dfc       0x5f Output\obj\project\example\usb_example\hardware\usb\usb_hid\usb_hid_desc.o
                0x0000000010001dfc                desc_config_hid
                0x0000000010001e1c                desc_hid_report
 *fill*         0x0000000010001e5b        0x1 
 .usbdev.com    0x0000000010001e5c       0x3c Output\obj\project\example\usb_example\hardware\usb\usb_vendor\usb_vendor.o
                0x0000000010001e5c                usb_vendor_out_callback
                0x0000000010001e8a                usb_vendor_sof_isr
 .usbdev.com    0x0000000010001e98       0x14 ..\..\..\libs\usb\libusb.a(usb_comm.o)
                0x0000000010001e98                usb_flush_fifo0
 .usbdev.com.ep.cur_set
                0x0000000010001eac       0x18 ..\..\..\libs\usb\libusb.a(usb_ep.o)
                0x0000000010001eac                usb_set_cur_ep
 .usbdev.co.ep.halt
                0x0000000010001ec4       0x4e ..\..\..\libs\usb\libusb.a(usb_ep.o)
                0x0000000010001ec4                usb_ep_halt
 .usbdev.com.ep.tx
                0x0000000010001f12      0x100 ..\..\..\libs\usb\libusb.a(usb_ep.o)
                0x0000000010001f12                usb_ep_transfer
                0x0000000010001fec                usb_ep_do_transfer
 .usbdev.com.ep.tx_str
                0x0000000010002012       0x4a ..\..\..\libs\usb\libusb.a(usb_ep.o)
                0x0000000010002012                usb_ep_start_transfer
                0x0000000010002032                usb_host_ep_in_transfer
 .usbdev.com    0x000000001000205c      0x250 ..\..\..\libs\usb\libusb.a(usb_device_enum.o)
                0x00000000100020c6                usb_ep0_start_transfer
                0x00000000100020d4                get_setup
                0x00000000100020e8                ude_ep_reset
                0x0000000010002138                ude_control_flow
                0x0000000010002400                . = ALIGN (0x200)
 *fill*         0x00000000100022ac      0x154 
                0x0000000010002400                __code_end_usbdev = .
                0x0000000010002400                __code_start_fota = .
 *(.text.fot.cache*)
 .text.fot.cache
                0x0000000010002400      0x48a Output\obj\project\example\usb_example\fota\fota_proc.o
                0x0000000010002458                ab_fot_recv_proc
                0x00000000100027b4                ab_fota_process_do
                0x000000001000282e                ab_fota_flag_do
 .text.fot.cache
                0x000000001000288a      0x184 ..\..\..\libs\cpu\libplatform.a(fot_pack.o)
                0x000000001000288a                ota_pack_write
                0x0000000010002c00                . = ALIGN (0x200)
 *fill*         0x0000000010002a0e      0x1f2 
                0x0000000010002c00                __code_end_fota = .
 *(.irq_init.aligned)
                0x0000000010002c00                . = ALIGN (0x200)
 *(.text*)
 .text.clk_gate0_cmd
                0x0000000010002c00       0x16 Output\obj\driver\driver_clk.o
                0x0000000010002c00                clk_gate0_cmd
 .text.clk_udet_clk_get
                0x0000000010002c16       0x3c Output\obj\driver\driver_clk.o
                0x0000000010002c16                clk_udet_clk_get
 .text.clk_uart_inc_get
                0x0000000010002c52       0x32 Output\obj\driver\driver_clk.o
                0x0000000010002c52                clk_uart_inc_get
 .text.clk_sdadda_clk_set
                0x0000000010002c84       0x40 Output\obj\driver\driver_clk.o
                0x0000000010002c84                clk_sdadda_clk_set
 .text.gpio_init
                0x0000000010002cc4      0x10e Output\obj\driver\driver_gpio.o
                0x0000000010002cc4                gpio_init
 .text.gpio_func_mapping_config
                0x0000000010002dd2       0xc6 Output\obj\driver\driver_gpio.o
                0x0000000010002dd2                gpio_func_mapping_config
 .text.gpio_func_mapping_clear
                0x0000000010002e98       0x84 Output\obj\driver\driver_gpio.o
                0x0000000010002e98                gpio_func_mapping_clear
 .text.sdadc_init
                0x0000000010002f1c       0x96 Output\obj\driver\driver_sdadc.o
                0x0000000010002f1c                sdadc_init
 .text.sdadc_cmd
                0x0000000010002fb2       0x16 Output\obj\driver\driver_sdadc.o
                0x0000000010002fb2                sdadc_cmd
 .text.sdadc_dma_cmd
                0x0000000010002fc8       0x1c Output\obj\driver\driver_sdadc.o
                0x0000000010002fc8                sdadc_dma_cmd
 .text.sdadc_pic_config
                0x0000000010002fe4       0x4e Output\obj\driver\driver_sdadc.o
                0x0000000010002fe4                sdadc_pic_config
 .text.sdadc_digital_gain_set
                0x0000000010003032        0xc Output\obj\driver\driver_sdadc.o
                0x0000000010003032                sdadc_digital_gain_set
 .text.sddac_init
                0x000000001000303e       0x64 Output\obj\driver\driver_sddac.o
                0x000000001000303e                sddac_init
 .text.sddac_pic_config
                0x00000000100030a2       0x40 Output\obj\driver\driver_sddac.o
                0x00000000100030a2                sddac_pic_config
 .text.sddac_cmd
                0x00000000100030e2       0x1c Output\obj\driver\driver_sddac.o
                0x00000000100030e2                sddac_cmd
 .text.uart_init
                0x00000000100030fe       0x9c Output\obj\driver\driver_uart.o
                0x00000000100030fe                uart_init
 .text.uart_cmd
                0x000000001000319a       0x10 Output\obj\driver\driver_uart.o
                0x000000001000319a                uart_cmd
 .text.bsp.param
                0x00000000100031aa       0x18 Output\obj\project\example\usb_example\fota\bsp_param.o
                0x00000000100031aa                bsp_param_init
                0x00000000100031b6                bsp_param_write
                0x00000000100031ba                bsp_param_read
                0x00000000100031be                bsp_param_sync
 .text.bsp.param.fota
                0x00000000100031c2       0x5c Output\obj\project\example\usb_example\fota\bsp_param.o
                0x00000000100031c2                param_fot_addr_write
                0x00000000100031d6                param_fot_addr_read
                0x00000000100031de                param_fot_remote_ver_write
                0x00000000100031f2                param_fot_remote_ver_read
                0x00000000100031fa                param_fot_head_info_read
                0x0000000010003202                param_fot_hash_write
                0x0000000010003216                param_fot_hash_read
 .text.bsp.param.fota.head_info
                0x000000001000321e       0x14 Output\obj\project\example\usb_example\fota\bsp_param.o
                0x000000001000321e                param_fot_head_info_write
 .text.fot.update
                0x0000000010003232      0x17e Output\obj\project\example\usb_example\fota\fota_proc.o
                0x0000000010003338                ab_fota_var_init
                0x0000000010003360                fota_pause
                0x000000001000337e                fota_continue
 .text.ab_fota_exit
                0x00000000100033b0       0x1c Output\obj\project\example\usb_example\fota\fota_proc.o
                0x00000000100033b0                ab_fota_exit
 .text.fota_init
                0x00000000100033cc       0x32 Output\obj\project\example\usb_example\fota\fota_proc.o
                0x00000000100033cc                fota_init
 .text.app.proc.fot
                0x00000000100033fe       0x28 Output\obj\project\example\usb_example\fota\fota_proc.o
                0x00000000100033fe                fota_process
 .text.fota_recv_packet_handle
                0x0000000010003426       0x6c Output\obj\project\example\usb_example\fota\fota_proc.o
                0x0000000010003426                fota_recv_packet_handle
 .text.bsp_sdadc_init
                0x0000000010003492       0x76 Output\obj\project\example\usb_example\hardware\audio\sdadc.o
                0x0000000010003492                bsp_sdadc_init
 .text.bsp_sddac_init
                0x0000000010003508       0x7c Output\obj\project\example\usb_example\hardware\audio\sddac.o
                0x0000000010003508                bsp_sddac_init
 .text.bsp_uart_debug_init
                0x0000000010003584       0x82 Output\obj\project\example\usb_example\hardware\uart\bsp_uart_debug.o
                0x0000000010003584                bsp_uart_debug_init
 .text.func.usbdev
                0x0000000010003606       0x68 Output\obj\project\example\usb_example\hardware\usb\usb_audio\usb_audio.o
                0x0000000010003606                usb_audio_mic_start_do
                0x0000000010003620                usb_audio_mic_stop_do
                0x000000001000363a                usb_audio_speaker_start_do
                0x0000000010003654                usb_audio_speaker_stop_do
 .text.usb_audio_process
                0x000000001000366e        0x4 Output\obj\project\example\usb_example\hardware\usb\usb_audio\usb_audio.o
                0x000000001000366e                usb_audio_process
 .text.bsp_usb_audio_init
                0x0000000010003672        0xc Output\obj\project\example\usb_example\hardware\usb\usb_audio\usb_audio.o
                0x0000000010003672                bsp_usb_audio_init
 .text.usb_audio_init
                0x000000001000367e      0x112 Output\obj\project\example\usb_example\hardware\usb\usb_audio\usb_audio.o
                0x000000001000367e                usb_audio_init
 .text.usb_audio_itf_header_desc_get
                0x0000000010003790       0x12 Output\obj\project\example\usb_example\hardware\usb\usb_audio\usb_audio_desc.o
                0x0000000010003790                usb_audio_itf_header_desc_get
 .text.usb_audio_itf_speaker_stream_desc_get
                0x00000000100037a2       0x12 Output\obj\project\example\usb_example\hardware\usb\usb_audio\usb_audio_desc.o
                0x00000000100037a2                usb_audio_itf_speaker_stream_desc_get
 .text.usb_audio_itf_mic_stream_desc_get
                0x00000000100037b4       0x12 Output\obj\project\example\usb_example\hardware\usb\usb_audio\usb_audio_desc.o
                0x00000000100037b4                usb_audio_itf_mic_stream_desc_get
 .text.usb_device_init_handler
                0x00000000100037c6       0x14 Output\obj\project\example\usb_example\hardware\usb\usb_com.o
                0x00000000100037c6                usb_device_init_handler
 .text.usb_ep_callback_register
                0x00000000100037da       0x1a Output\obj\project\example\usb_example\hardware\usb\usb_com.o
                0x00000000100037da                usb_ep_callback_register
 .text.usb_ep_reset_deal
                0x00000000100037f4       0x14 Output\obj\project\example\usb_example\hardware\usb\usb_com.o
                0x00000000100037f4                usb_ep_reset_deal
 *fill*         0x0000000010003808        0x0 
 .text.usb_event_callback
                0x0000000010003808       0xbc Output\obj\project\example\usb_example\hardware\usb\usb_com.o
                0x0000000010003808                usb_event_callback
 .text.usb_device_init
                0x00000000100038c4       0x54 Output\obj\project\example\usb_example\hardware\usb\usb_com.o
                0x00000000100038c4                usb_device_init
 .text.usb_desc_swapper.constprop.1
                0x0000000010003918       0x62 Output\obj\project\example\usb_example\hardware\usb\usb_desc.o
 .text.usb_get_device_descriptor
                0x000000001000397a       0x10 Output\obj\project\example\usb_example\hardware\usb\usb_desc.o
                0x000000001000397a                usb_get_device_descriptor
 .text.usb_get_cfg_descriptor
                0x000000001000398a       0x10 Output\obj\project\example\usb_example\hardware\usb\usb_desc.o
                0x000000001000398a                usb_get_cfg_descriptor
 .text.usb_get_lang_id_str_descriptor
                0x000000001000399a       0x10 Output\obj\project\example\usb_example\hardware\usb\usb_desc.o
                0x000000001000399a                usb_get_lang_id_str_descriptor
 .text.usb_get_manufacturer_str_descriptor
                0x00000000100039aa       0x1a Output\obj\project\example\usb_example\hardware\usb\usb_desc.o
                0x00000000100039aa                usb_get_manufacturer_str_descriptor
 .text.usb_get_product_str_descriptor
                0x00000000100039c4       0x1a Output\obj\project\example\usb_example\hardware\usb\usb_desc.o
                0x00000000100039c4                usb_get_product_str_descriptor
 .text.usb_get_serial_str_descriptor
                0x00000000100039de       0x1a Output\obj\project\example\usb_example\hardware\usb\usb_desc.o
                0x00000000100039de                usb_get_serial_str_descriptor
 .text.usb_get_microsoft_str_descriptor
                0x00000000100039f8       0x26 Output\obj\project\example\usb_example\hardware\usb\usb_desc.o
                0x00000000100039f8                usb_get_microsoft_str_descriptor
 .text.usb_get_microsoft_feature_descriptor
                0x0000000010003a1e       0x26 Output\obj\project\example\usb_example\hardware\usb\usb_desc.o
                0x0000000010003a1e                usb_get_microsoft_feature_descriptor
 .text.usb_ep0_ctl_callback
                0x0000000010003a44      0x54c Output\obj\project\example\usb_example\hardware\usb\usb_dev_enum.o
                0x0000000010003a44                usb_ep0_ctl_callback
 .text.usb_hid_set_idle
                0x0000000010003f90        0xa Output\obj\project\example\usb_example\hardware\usb\usb_hid\usb_hid.o
                0x0000000010003f90                usb_hid_set_idle
 .text.usb_hid_get_idle
                0x0000000010003f9a        0xe Output\obj\project\example\usb_example\hardware\usb\usb_hid\usb_hid.o
                0x0000000010003f9a                usb_hid_get_idle
 .text.usb_hid_init
                0x0000000010003fa8       0xc6 Output\obj\project\example\usb_example\hardware\usb\usb_hid\usb_hid.o
                0x0000000010003fa8                usb_hid_init
 .text.usb_hid_process
                0x000000001000406e        0x2 Output\obj\project\example\usb_example\hardware\usb\usb_hid\usb_hid.o
                0x000000001000406e                usb_hid_process
 .text.usb_hid_itf_desc_get
                0x0000000010004070       0x12 Output\obj\project\example\usb_example\hardware\usb\usb_hid\usb_hid_desc.o
                0x0000000010004070                usb_hid_itf_desc_get
 .text.usb_hid_desc_get
                0x0000000010004082       0x24 Output\obj\project\example\usb_example\hardware\usb\usb_hid\usb_hid_desc.o
                0x0000000010004082                usb_hid_desc_get
 .text.usb_hid_report_desc_get
                0x00000000100040a6       0x12 Output\obj\project\example\usb_example\hardware\usb\usb_hid\usb_hid_desc.o
                0x00000000100040a6                usb_hid_report_desc_get
 .text.usb_usr_hid_data_out
                0x00000000100040b8       0x20 Output\obj\project\example\usb_example\hardware\usb\usb_hid\usb_usr_hid.o
                0x00000000100040b8                usb_usr_hid_data_out
 .text.usb_usr_vendor_app_max_pkt_get
                0x00000000100040d8        0xa Output\obj\project\example\usb_example\hardware\usb\usb_vendor\usb_usr_vendor.o
 .text.usb_usr_vendor_ready
                0x00000000100040e2       0x2e Output\obj\project\example\usb_example\hardware\usb\usb_vendor\usb_usr_vendor.o
 .text.usb_usr_vendor_data_in
                0x0000000010004110        0x8 Output\obj\project\example\usb_example\hardware\usb\usb_vendor\usb_usr_vendor.o
 .text.usb_usr_vendor_init
                0x0000000010004118       0x62 Output\obj\project\example\usb_example\hardware\usb\usb_vendor\usb_usr_vendor.o
 .text.usb_usr_vendor_data_out
                0x000000001000417a       0x1a Output\obj\project\example\usb_example\hardware\usb\usb_vendor\usb_usr_vendor.o
 .text.usb_usr_vendor_app_write
                0x0000000010004194       0x5c Output\obj\project\example\usb_example\hardware\usb\usb_vendor\usb_usr_vendor.o
                0x0000000010004194                usb_usr_vendor_app_write
 .text.usb_usr_vendor_app_send
                0x00000000100041f0       0x14 Output\obj\project\example\usb_example\hardware\usb\usb_vendor\usb_usr_vendor.o
 .text.usb_usb_vendor_sof_poll
                0x0000000010004204       0xa8 Output\obj\project\example\usb_example\hardware\usb\usb_vendor\usb_usr_vendor.o
                0x0000000010004204                usb_usb_vendor_sof_poll
 .text.usb_vendor_in_callback
                0x00000000100042ac       0x46 Output\obj\project\example\usb_example\hardware\usb\usb_vendor\usb_vendor.o
                0x00000000100042ac                usb_vendor_in_callback
 .text.usb_vendor_setvalid
                0x00000000100042f2       0x14 Output\obj\project\example\usb_example\hardware\usb\usb_vendor\usb_vendor.o
                0x00000000100042f2                usb_vendor_setvalid
 .text.usb_vendor_is_valid
                0x0000000010004306        0x8 Output\obj\project\example\usb_example\hardware\usb\usb_vendor\usb_vendor.o
                0x0000000010004306                usb_vendor_is_valid
 .text.usb_vendor_set_idle
                0x000000001000430e        0xa Output\obj\project\example\usb_example\hardware\usb\usb_vendor\usb_vendor.o
                0x000000001000430e                usb_vendor_set_idle
 .text.usb_vendor_get_idle
                0x0000000010004318        0xe Output\obj\project\example\usb_example\hardware\usb\usb_vendor\usb_vendor.o
                0x0000000010004318                usb_vendor_get_idle
 .text.usb_vendor_ep_reset
                0x0000000010004326       0x28 Output\obj\project\example\usb_example\hardware\usb\usb_vendor\usb_vendor.o
                0x0000000010004326                usb_vendor_ep_reset
 .text.usb_vendor_init
                0x000000001000434e      0x110 Output\obj\project\example\usb_example\hardware\usb\usb_vendor\usb_vendor.o
                0x000000001000434e                usb_vendor_init
 .text.usb_vendor_itf_desc_get
                0x000000001000445e       0x12 Output\obj\project\example\usb_example\hardware\usb\usb_vendor\usb_vendor_desc.o
                0x000000001000445e                usb_vendor_itf_desc_get
 .text.usb_vendor_hid_desc_get
                0x0000000010004470       0x24 Output\obj\project\example\usb_example\hardware\usb\usb_vendor\usb_vendor_desc.o
                0x0000000010004470                usb_vendor_hid_desc_get
 .text.usb_vendor_report_desc_get
                0x0000000010004494       0x12 Output\obj\project\example\usb_example\hardware\usb\usb_vendor\usb_vendor_desc.o
                0x0000000010004494                usb_vendor_report_desc_get
 .text.sys_ram_info_dump
                0x00000000100044a6       0xba Output\obj\project\example\usb_example\main.o
                0x00000000100044a6                sys_ram_info_dump
 .text.bsp_mouse_motion_port_init
                0x0000000010004560       0x28 Output\obj\project\example\usb_example\main.o
                0x0000000010004560                bsp_mouse_motion_port_init
 .text.startup.main
                0x0000000010004588       0xea Output\obj\project\example\usb_example\main.o
                0x0000000010004588                main
 .text.mem_heap_size_get
                0x0000000010004672        0x4 Output\obj\project\example\usb_example\strong_symbol.o
                0x0000000010004672                mem_heap_size_get
 .text.thread_cfg_get
                0x0000000010004676        0xa Output\obj\project\example\usb_example\strong_symbol.o
                0x0000000010004676                thread_cfg_get
 .text.utils_ring_buffer_init
                0x0000000010004680       0x1c Output\obj\project\example\usb_example\utils\utils_ring_buffer.o
                0x0000000010004680                utils_ring_buffer_init
 .text.mic_adc_init
                0x000000001000469c      0x18c ..\..\..\libs\cpu\libplatform.a(sdadc.o)
                0x000000001000469c                mic_adc_init
 .text.mic_bias_level_set
                0x0000000010004828       0x20 ..\..\..\libs\cpu\libplatform.a(sdadc.o)
                0x0000000010004828                mic_bias_level_set
 .text.mic_analog_gain_set
                0x0000000010004848       0x14 ..\..\..\libs\cpu\libplatform.a(sdadc.o)
                0x0000000010004848                mic_analog_gain_set
 .text.sdadc_done_callback_set
                0x000000001000485c        0xa ..\..\..\libs\cpu\libplatform.a(sdadc.o)
                0x000000001000485c                sdadc_done_callback_set
 .text.cm_loadpage
                0x0000000010004866       0xb4 ..\..\..\libs\cpu\libplatform.a(cm.o)
 .text.cm_next_freepage
                0x000000001000491a       0x42 ..\..\..\libs\cpu\libplatform.a(cm.o)
 .text.cm_loadparam
                0x000000001000495c        0x4 ..\..\..\libs\cpu\libplatform.a(cm.o)
                0x000000001000495c                cm_loadparam
 .text.cm_factory
                0x0000000010004960        0xa ..\..\..\libs\cpu\libplatform.a(cm.o)
                0x0000000010004960                cm_factory
 .text.cm_addr_check
                0x000000001000496a        0x4 ..\..\..\libs\cpu\libplatform.a(cm.o)
                0x000000001000496a                cm_addr_check
 .text.cm_writepage
                0x000000001000496e       0x2a ..\..\..\libs\cpu\libplatform.a(cm.o)
 .text.cm_movepage
                0x0000000010004998       0x50 ..\..\..\libs\cpu\libplatform.a(cm.o)
 .text.cm_erase
                0x00000000100049e8       0x1e ..\..\..\libs\cpu\libplatform.a(cm.o)
 .text.cm_release
                0x0000000010004a06       0xf8 ..\..\..\libs\cpu\libplatform.a(cm.o)
 .text.cm_savepage
                0x0000000010004afe       0xb6 ..\..\..\libs\cpu\libplatform.a(cm.o)
 .text.cm_check_loadpage
                0x0000000010004bb4       0xb0 ..\..\..\libs\cpu\libplatform.a(cm.o)
 .text.cm_sync  0x0000000010004c64       0x3e ..\..\..\libs\cpu\libplatform.a(cm.o)
                0x0000000010004c64                cm_sync
 .text.cm_read  0x0000000010004ca2       0x44 ..\..\..\libs\cpu\libplatform.a(cm.o)
                0x0000000010004ca2                cm_read
 .text.cm_write
                0x0000000010004ce6       0x5e ..\..\..\libs\cpu\libplatform.a(cm.o)
                0x0000000010004ce6                cm_write
 .text.cm_init  0x0000000010004d44      0x1be ..\..\..\libs\cpu\libplatform.a(cm.o)
                0x0000000010004d44                cm_init
 .text.device.init
                0x0000000010004f02       0x7e ..\..\..\libs\cpu\libplatform.a(device.o)
                0x0000000010004f02                dev_init
                0x0000000010004f1c                dev_delay_times
                0x0000000010004f32                dev_delay_online_times
                0x0000000010004f44                dev_delay_offline_times
                0x0000000010004f56                dev_clr_sta
 .text.platform_main
                0x0000000010004f80      0x1e4 ..\..\..\libs\cpu\libplatform.a(main.o)
                0x0000000010004f80                platform_main
 .text.main_startup
                0x0000000010005164        0xe ..\..\..\libs\cpu\libplatform.a(main.o)
                0x0000000010005164                main_startup
 .text.sys_irq_init
                0x0000000010005172       0x8e ..\..\..\libs\cpu\libplatform.a(interrupt.o)
                0x0000000010005172                sys_irq_init
 .text.soft_irq_init
                0x0000000010005200       0x3c ..\..\..\libs\cpu\libplatform.a(interrupt.o)
                0x0000000010005200                soft_irq_init
 .text.bthw_irq_init
                0x000000001000523c       0x12 ..\..\..\libs\cpu\libplatform.a(interrupt.o)
                0x000000001000523c                bthw_irq_init
 .text.usb_irq_init
                0x000000001000524e       0x26 ..\..\..\libs\cpu\libplatform.a(interrupt.o)
                0x000000001000524e                usb_irq_init
 .text.sys_timer_init
                0x0000000010005274       0x84 ..\..\..\libs\cpu\libplatform.a(interrupt.o)
                0x0000000010005274                sys_timer_init
 .text.thread_driver_create
                0x00000000100052f8       0x7c ..\..\..\libs\cpu\libplatform.a(startup.o)
                0x00000000100052f8                thread_driver_create
 .text.thread_aupcm_create
                0x0000000010005374       0x6c ..\..\..\libs\cpu\libplatform.a(startup.o)
                0x0000000010005374                thread_aupcm_create
 .text.thread_btstack_create
                0x00000000100053e0       0x8a ..\..\..\libs\cpu\libplatform.a(startup.o)
                0x00000000100053e0                thread_btstack_create
 .text.thread_create_callback
                0x000000001000546a       0x14 ..\..\..\libs\cpu\libplatform.a(startup.o)
                0x000000001000546a                thread_create_callback
 .text.thread_main_entry
                0x000000001000547e       0x8a ..\..\..\libs\cpu\libplatform.a(startup.o)
 .text.startup.init
                0x0000000010005508      0x10a ..\..\..\libs\cpu\libplatform.a(startup.o)
                0x0000000010005508                platform_init
                0x0000000010005510                sys_startup
 .text.sys_set_tmr_enable
                0x0000000010005612       0x22 ..\..\..\libs\cpu\libplatform.a(startup.o)
                0x0000000010005612                sys_set_tmr_enable
 .text.sys_hook_init
                0x0000000010005634        0x2 ..\..\..\libs\cpu\libplatform.a(sys_hook.o)
                0x0000000010005634                sys_hook_init
 .text.thread.driver.usb
                0x0000000010005636       0x30 ..\..\..\libs\cpu\libplatform.a(thread_driver.o)
                0x0000000010005636                thread_driver_usb_callback_register
 .text.thread.driver.vs
                0x0000000010005666       0x30 ..\..\..\libs\cpu\libplatform.a(thread_driver.o)
                0x0000000010005666                thread_driver_user_callback_register
 .text.pll0_vco_band_trimming
                0x0000000010005696       0x5a ..\..\..\libs\cpu\libplatform.a(pll.o)
                0x0000000010005696                pll0_vco_band_trimming
 .text.pll0_init
                0x00000000100056f0       0xd6 ..\..\..\libs\cpu\libplatform.a(pll.o)
                0x00000000100056f0                pll0_init
 .text.pll0_disable
                0x00000000100057c6       0x48 ..\..\..\libs\cpu\libplatform.a(pll.o)
                0x00000000100057c6                pll0_disable
 .text.debug_set
                0x000000001000580e       0x1a ..\..\..\libs\cpu\libplatform.a(debug.o)
                0x000000001000580e                debug_set
 .text.ota_pack
                0x0000000010005828      0x524 ..\..\..\libs\cpu\libplatform.a(fot_pack.o)
                0x0000000010005928                ota_pack_init
                0x000000001000596a                ota_pack_verify
 .text.ota_pack_get_curaddr
                0x0000000010005d4c        0xa ..\..\..\libs\cpu\libplatform.a(fot_pack.o)
                0x0000000010005d4c                ota_pack_get_curaddr
 .text.ota_pack_get_err
                0x0000000010005d56       0x12 ..\..\..\libs\cpu\libplatform.a(fot_pack.o)
                0x0000000010005d56                ota_pack_get_err
 .text.ota_pack_is_update_success
                0x0000000010005d68        0x8 ..\..\..\libs\cpu\libplatform.a(fot_pack.o)
                0x0000000010005d68                ota_pack_is_update_success
 .text.ota_pack_done
                0x0000000010005d70       0x46 ..\..\..\libs\cpu\libplatform.a(fot_pack.o)
                0x0000000010005d70                ota_pack_done
 .text.ota_pack_breakpoint_info_read
                0x0000000010005db6       0xca ..\..\..\libs\cpu\libplatform.a(fot_pack.o)
                0x0000000010005db6                ota_pack_breakpoint_info_read
 .text.lock_init
                0x0000000010005e80       0x1c ..\..\..\libs\cpu\libplatform.a(lock.o)
                0x0000000010005e80                lock_init
 .text.lock_code_usbdev
                0x0000000010005e9c       0x42 ..\..\..\libs\cpu\libplatform.a(lock.o)
                0x0000000010005e9c                lock_code_usbdev
 .text.unlock_code_usbdev
                0x0000000010005ede       0x36 ..\..\..\libs\cpu\libplatform.a(lock.o)
                0x0000000010005ede                unlock_code_usbdev
 .text.patch_init
                0x0000000010005f14       0x1e ..\..\..\libs\cpu\libplatform.a(patch.o)
                0x0000000010005f14                patch_init
 .text.rc2m_clk_nhz_get
                0x0000000010005f32       0x10 ..\..\..\libs\cpu\libplatform.a(sys.o)
                0x0000000010005f32                rc2m_clk_nhz_get
 .text.sys_get_rand_key_init
                0x0000000010005f42        0xa ..\..\..\libs\cpu\libplatform.a(sys.o)
                0x0000000010005f42                sys_get_rand_key_init
 .text.sys_clk_cacl_curr
                0x0000000010005f4c       0x28 ..\..\..\libs\cpu\libplatform.a(sys_clk.o)
 *fill*         0x0000000010005f74       0x8c 
 .text.set_sys_clk_do
                0x0000000010006000      0x1ea ..\..\..\libs\cpu\libplatform.a(sys_clk.o)
                0x0000000010006000                set_sys_clk_do
 .text.sys_clk  0x00000000100061ea      0x1ec ..\..\..\libs\cpu\libplatform.a(sys_clk.o)
                0x00000000100061ea                sys_clk_get_cur
                0x00000000100061f2                sys_clk_set_do
 .text.sys_clk_nhz_get
                0x00000000100063d6       0x5c ..\..\..\libs\cpu\libplatform.a(sys_clk.o)
                0x00000000100063d6                sys_clk_nhz_get
 .text.sys_clk_set
                0x0000000010006432       0x5e ..\..\..\libs\cpu\libplatform.a(sys_clk.o)
                0x0000000010006432                sys_clk_set
 *fill*         0x0000000010006490        0x0 
 .text.sys_clk.table
                0x0000000010006490       0x1a ..\..\..\libs\cpu\libplatform.a(sys_clk.o)
                0x0000000010006490                sysclk_info_tbl
 .text.voltage.trim
                0x00000000100064aa      0x1a2 ..\..\..\libs\cpu\libplatform.a(voltage_trim.o)
                0x00000000100064aa                bt_get_ft_trim_value
                0x00000000100064f4                voltage_trim_value_init
 .text.xosc_24m_div_get
                0x000000001000664c        0x4 ..\..\..\libs\cpu\libplatform.a(weak_symbol.o)
                0x000000001000664c                xosc_24m_div_get
 .text.sys_clk_change_callback
                0x0000000010006650        0x2 ..\..\..\libs\cpu\libplatform.a(weak_symbol.o)
                0x0000000010006650                sys_clk_change_callback
 .text.uart_debug_init_callback
                0x0000000010006652        0x2 ..\..\..\libs\cpu\libplatform.a(weak_symbol.o)
                0x0000000010006652                uart_debug_init_callback
 .text.rf_ft_trim_dig_gain_adjust
                0x0000000010006654        0x4 ..\..\..\libs\cpu\libplatform.a(weak_symbol.o)
                0x0000000010006654                rf_ft_trim_dig_gain_adjust
 .text.bb_run_loop
                0x0000000010006658        0x2 ..\..\..\libs\cpu\libplatform.a(weak_symbol.o)
                0x0000000010006658                bb_run_loop
 .text.nanos_var_init
                0x000000001000665a       0x18 ..\..\..\libs\cpu\libplatform.a(weak_symbol.o)
                0x000000001000665a                nanos_var_init
 .text.btstack_message
                0x0000000010006672        0x4 ..\..\..\libs\cpu\libplatform.a(weak_symbol.o)
                0x0000000010006672                btstack_message
 .text.btstack_var_init
                0x0000000010006676        0x2 ..\..\..\libs\cpu\libplatform.a(weak_symbol.o)
                0x0000000010006676                btstack_var_init
 .text.bb_patch_init
                0x0000000010006678        0x4 ..\..\..\libs\cpu\libplatform.a(weak_symbol.o)
                0x0000000010006678                bb_patch_init
 .text.bb_nanos_mem_init
                0x000000001000667c        0x2 ..\..\..\libs\cpu\libplatform.a(weak_symbol.o)
                0x000000001000667c                bb_nanos_mem_init
 .text.calc_crc32
                0x000000001000667e       0x2e ..\..\..\libs\cpu\libplatform.a(crc.o)
                0x000000001000667e                calc_crc32
 .text.usb_handler_register
                0x00000000100066ac        0x8 ..\..\..\libs\usb\libusb.a(usb_comm.o)
                0x00000000100066ac                usb_handler_register
 .text.usb_sof_hook_register
                0x00000000100066b4        0x8 ..\..\..\libs\usb\libusb.a(usb_comm.o)
                0x00000000100066b4                usb_sof_hook_register
 .text.usb_disable
                0x00000000100066bc       0x2a ..\..\..\libs\usb\libusb.a(usb_comm.o)
                0x00000000100066bc                usb_disable
 .text.usb_init_do
                0x00000000100066e6       0xa4 ..\..\..\libs\usb\libusb.a(usb_comm.o)
                0x00000000100066e6                usb_init_do
 .text.usb_init
                0x000000001000678a        0x6 ..\..\..\libs\usb\libusb.a(usb_comm.o)
                0x000000001000678a                usb_init
 .text.usb_interrupt_init
                0x0000000010006790       0x9a ..\..\..\libs\usb\libusb.a(usb_comm.o)
                0x0000000010006790                usb_interrupt_init
 .text.usb_resume_do
                0x000000001000682a       0x38 ..\..\..\libs\usb\libusb.a(usb_comm.o)
                0x000000001000682a                usb_resume_do
 .text.usb_ep_get_max_len
                0x0000000010006862       0x10 ..\..\..\libs\usb\libusb.a(usb_ep.o)
                0x0000000010006862                usb_ep_get_max_len
 .text.usb_ep_get_rx_len
                0x0000000010006872       0x24 ..\..\..\libs\usb\libusb.a(usb_ep.o)
                0x0000000010006872                usb_ep_get_rx_len
 .text.usb_ep_clear_rx_fifo
                0x0000000010006896       0x1a ..\..\..\libs\usb\libusb.a(usb_ep.o)
                0x0000000010006896                usb_ep_clear_rx_fifo
 .text.usb_ep_get_for_index
                0x00000000100068b0       0x32 ..\..\..\libs\usb\libusb.a(usb_ep.o)
                0x00000000100068b0                usb_ep_get_for_index
 .text.usb_ep_init
                0x00000000100068e2       0xc2 ..\..\..\libs\usb\libusb.a(usb_ep.o)
                0x00000000100068e2                usb_ep_init
 .text.usb_ep_clear
                0x00000000100069a4       0x46 ..\..\..\libs\usb\libusb.a(usb_ep.o)
                0x00000000100069a4                usb_ep_clear
 .text.usb_ep_reset
                0x00000000100069ea       0xa2 ..\..\..\libs\usb\libusb.a(usb_ep.o)
                0x00000000100069ea                usb_ep_reset
 .text.usb_ep0_default_size
                0x0000000010006a8c        0x4 ..\..\..\libs\usb\libusb.a(usb_device_enum.o)
                0x0000000010006a8c                usb_ep0_default_size
 .text.ude_init
                0x0000000010006a90       0x4c ..\..\..\libs\usb\libusb.a(usb_device_enum.o)
                0x0000000010006a90                ude_init
 .text.usb_device_enter
                0x0000000010006adc       0x7a ..\..\..\libs\usb\libusb.a(usb_device_manage.o)
                0x0000000010006adc                usb_device_enter
 .text.usb_device_exit
                0x0000000010006b56       0x22 ..\..\..\libs\usb\libusb.a(usb_device_manage.o)
                0x0000000010006b56                usb_device_exit
 .text.usb_device_suspend_enable
                0x0000000010006b78        0xe ..\..\..\libs\usb\libusb.a(usb_device_manage.o)
                0x0000000010006b78                usb_device_suspend_enable
 .text.usb_device_is_suspend
                0x0000000010006b86        0xa ..\..\..\libs\usb\libusb.a(usb_device_manage.o)
                0x0000000010006b86                usb_device_is_suspend
 .text.usb_device_resume
                0x0000000010006b90        0x8 ..\..\..\libs\usb\libusb.a(usb_device_manage.o)
                0x0000000010006b90                usb_device_resume
 *(.rodata*)
 *fill*         0x0000000010006b98        0x0 
 .rodata.str1.4
                0x0000000010006b98       0x7c Output\obj\project\example\usb_example\fota\fota_proc.o
 .rodata        0x0000000010006c14       0x57 Output\obj\project\example\usb_example\hardware\usb\usb_audio\usb_audio.o
 *fill*         0x0000000010006c6b        0x1 
 .rodata.str1.4
                0x0000000010006c6c       0xe4 Output\obj\project\example\usb_example\hardware\usb\usb_audio\usb_audio.o
 .rodata.usb.desc
                0x0000000010006d50       0xb8 Output\obj\project\example\usb_example\hardware\usb\usb_audio\usb_audio_desc.o
                0x0000000010006d50                desc_itf_header_audio
                0x0000000010006da0                desc_itf_speaker_stream_audio
                0x0000000010006dd4                desc_itf_mic_stream_audio
 .rodata.str1.4
                0x0000000010006e08       0x2c Output\obj\project\example\usb_example\hardware\usb\usb_com.o
 .rodata.str1.4
                0x0000000010006e34       0x19 Output\obj\project\example\usb_example\hardware\usb\usb_desc.o
 *fill*         0x0000000010006e4d        0x3 
 .rodata.usb.desc
                0x0000000010006e50       0x48 Output\obj\project\example\usb_example\hardware\usb\usb_desc.o
                0x0000000010006e50                usb_device_desc
                0x0000000010006e64                usb_cfg_desc
                0x0000000010006e70                usb_lang_desc
                0x0000000010006e74                usb_micr_os_str_desc
                0x0000000010006e88                usb_micr_os_feature_desc
 .rodata.str1.4
                0x0000000010006e98      0x400 Output\obj\project\example\usb_example\hardware\usb\usb_dev_enum.o
 .rodata.str1.4
                0x0000000010007298       0x13 Output\obj\project\example\usb_example\hardware\usb\usb_hid\usb_usr_hid.o
 *fill*         0x00000000100072ab        0x1 
 .rodata.str1.4
                0x00000000100072ac       0x35 Output\obj\project\example\usb_example\hardware\usb\usb_vendor\usb_vendor.o
 *fill*         0x00000000100072e1        0x3 
 .rodata.usb.desc
                0x00000000100072e4       0x84 Output\obj\project\example\usb_example\hardware\usb\usb_vendor\usb_vendor_desc.o
                0x00000000100072e4                desc_itf_vendor
                0x0000000010007304                desc_vendor_report
 .rodata.str1.4
                0x0000000010007368      0x114 Output\obj\project\example\usb_example\main.o
 .rodata        0x000000001000747c       0x18 Output\obj\project\example\usb_example\strong_symbol.o
 .rodata.cm_next_freepage.str1.4
                0x0000000010007494        0xc ..\..\..\libs\cpu\libplatform.a(cm.o)
 .rodata.cm_movepage.str1.4
                0x00000000100074a0       0x10 ..\..\..\libs\cpu\libplatform.a(cm.o)
 .rodata.cm_release.str1.4
                0x00000000100074b0       0x22 ..\..\..\libs\cpu\libplatform.a(cm.o)
 *fill*         0x00000000100074d2        0x2 
 .rodata.cm_savepage.str1.4
                0x00000000100074d4       0x13 ..\..\..\libs\cpu\libplatform.a(cm.o)
 *fill*         0x00000000100074e7        0x1 
 .rodata.cm_check_loadpage.str1.4
                0x00000000100074e8       0x3b ..\..\..\libs\cpu\libplatform.a(cm.o)
 *fill*         0x0000000010007523        0x1 
 .rodata.cm_init.str1.4
                0x0000000010007524       0x30 ..\..\..\libs\cpu\libplatform.a(cm.o)
 .rodata.platform_main.str1.4
                0x0000000010007554       0x10 ..\..\..\libs\cpu\libplatform.a(main.o)
 .rodata.thread_driver_create.str1.4
                0x0000000010007564        0x8 ..\..\..\libs\cpu\libplatform.a(startup.o)
 .rodata.thread_aupcm_create.str1.4
                0x000000001000756c        0x4 ..\..\..\libs\cpu\libplatform.a(startup.o)
 .rodata.thread_btstack_create.str1.4
                0x0000000010007570        0xc ..\..\..\libs\cpu\libplatform.a(startup.o)
 .rodata.thread_main_entry.str1.4
                0x000000001000757c        0x4 ..\..\..\libs\cpu\libplatform.a(startup.o)
 .rodata.startup.init.str1.4
                0x0000000010007580       0x2b ..\..\..\libs\cpu\libplatform.a(startup.o)
 *fill*         0x00000000100075ab        0x1 
 .rodata.lock_code_usbdev.str1.4
                0x00000000100075ac       0x18 ..\..\..\libs\cpu\libplatform.a(lock.o)
                                         0x16 (size before relaxing)
 .rodata.volt_trim
                0x00000000100075c4       0x40 ..\..\..\libs\cpu\libplatform.a(voltage_trim.o)
 .rodata.dfu_crc32_table
                0x0000000010007604      0x400 ..\..\..\libs\cpu\libplatform.a(crc.o)
 *(.srodata*)
 *(.rela*)
 .rela.text.clk_clk32k_rtc_get
                0x0000000010007a04        0x0 Output\obj\driver\driver_clk.o
 .rela.text.clk_saradc_clk_get
                0x0000000010007a04        0x0 Output\obj\driver\driver_clk.o
 .rela.text.clk_udet_clk_get
                0x0000000010007a04        0x0 Output\obj\driver\driver_clk.o
 .rela.text.clk_hsut0_clk_get
                0x0000000010007a04        0x0 Output\obj\driver\driver_clk.o
 .rela.text.clk_tmr_inc_get
                0x0000000010007a04        0x0 Output\obj\driver\driver_clk.o
 .rela.text.clk_clk2m_ks_get
                0x0000000010007a04        0x0 Output\obj\driver\driver_clk.o
 .rela.text.clk_sdadda_clk_get
                0x0000000010007a04        0x0 Output\obj\driver\driver_clk.o
 .rela.text.clk_touch_key_clk_get
                0x0000000010007a04        0x0 Output\obj\driver\driver_clk.o
 .rela.text.clk_ttmr_inc_get
                0x0000000010007a04        0x0 Output\obj\driver\driver_clk.o
 .rela.text.wk0_edge_capture_config
                0x0000000010007a04        0x0 Output\obj\driver\driver_clk.o
 .rela.text.gpio_edge_capture_config
                0x0000000010007a04        0x0 Output\obj\driver\driver_clk.o
 .rela.text.gpio_edge_pic_config
                0x0000000010007a04        0x0 Output\obj\driver\driver_clk.o
 .rela.text.sdadc_init
                0x0000000010007a04        0x0 Output\obj\driver\driver_clk.o
 .rela.text.sdadc_deinit
                0x0000000010007a04        0x0 Output\obj\driver\driver_clk.o
 .rela.text.sdadc_pic_config
                0x0000000010007a04        0x0 Output\obj\driver\driver_clk.o
 .rela.com_periph.sddac.spr_set
                0x0000000010007a04        0x0 Output\obj\driver\driver_clk.o
 .rela.text.sddac_pic_config
                0x0000000010007a04        0x0 Output\obj\driver\driver_clk.o
 .rela.text.uart_init
                0x0000000010007a04        0x0 Output\obj\driver\driver_clk.o
 .rela.text.uart_pic_config
                0x0000000010007a04        0x0 Output\obj\driver\driver_clk.o
 .rela.text.uart_baud_config
                0x0000000010007a04        0x0 Output\obj\driver\driver_clk.o
 .rela.text.bsp.param
                0x0000000010007a04        0x0 Output\obj\driver\driver_clk.o
 .rela.text.bsp.param.fota
                0x0000000010007a04        0x0 Output\obj\driver\driver_clk.o
 .rela.text.bsp.param.fota.head_info
                0x0000000010007a04        0x0 Output\obj\driver\driver_clk.o
 .rela.text.fot.cache
                0x0000000010007a04        0x0 Output\obj\driver\driver_clk.o
 .rela.text.fot.update
                0x0000000010007a04        0x0 Output\obj\driver\driver_clk.o
 .rela.text.ab_fota_write
                0x0000000010007a04        0x0 Output\obj\driver\driver_clk.o
 .rela.text.ab_fota_get_err
                0x0000000010007a04        0x0 Output\obj\driver\driver_clk.o
 .rela.text.ab_fota_breakpoint_info_read
                0x0000000010007a04        0x0 Output\obj\driver\driver_clk.o
 .rela.text.ab_fota_init
                0x0000000010007a04        0x0 Output\obj\driver\driver_clk.o
 .rela.text.ab_fota_get_curaddr
                0x0000000010007a04        0x0 Output\obj\driver\driver_clk.o
 .rela.text.ab_fota_is_update_success
                0x0000000010007a04        0x0 Output\obj\driver\driver_clk.o
 .rela.text.fota_init
                0x0000000010007a04        0x0 Output\obj\driver\driver_clk.o
 .rela.text.app.proc.fot
                0x0000000010007a04        0x0 Output\obj\driver\driver_clk.o
 .rela.text.fota_recv_packet_handle
                0x0000000010007a04        0x0 Output\obj\driver\driver_clk.o
 .rela.com_text.thread.aupcm
                0x0000000010007a04        0x0 Output\obj\driver\driver_clk.o
 .rela.com_text.isr.sdadc
                0x0000000010007a04        0x0 Output\obj\driver\driver_clk.o
 .rela.text.bsp_sdadc_init
                0x0000000010007a04        0x0 Output\obj\driver\driver_clk.o
 .rela.com_text.isr.sddac
                0x0000000010007a04        0x0 Output\obj\driver\driver_clk.o
 .rela.text.bsp_sddac_init
                0x0000000010007a04        0x0 Output\obj\driver\driver_clk.o
 .rela.text.bsp_uart_debug_init
                0x0000000010007a04        0x0 Output\obj\driver\driver_clk.o
 .rela.usbdev.com
                0x0000000010007a04        0x0 Output\obj\driver\driver_clk.o
 .rela.text.func.usbdev
                0x0000000010007a04        0x0 Output\obj\driver\driver_clk.o
 .rela.com_text.usbdev
                0x0000000010007a04        0x0 Output\obj\driver\driver_clk.o
 .rela.text.usb_audio_exit
                0x0000000010007a04        0x0 Output\obj\driver\driver_clk.o
 .rela.text.bsp_usb_audio_init
                0x0000000010007a04        0x0 Output\obj\driver\driver_clk.o
 .rela.text.usb_audio_init
                0x0000000010007a04        0x0 Output\obj\driver\driver_clk.o
 .rela.text.usb_usr_cdc_data_out
                0x0000000010007a04        0x0 Output\obj\driver\driver_clk.o
 .rela.com_text.thread.driver
                0x0000000010007a04        0x0 Output\obj\driver\driver_clk.o
 .rela.text.usb_device_init_handler
                0x0000000010007a04        0x0 Output\obj\driver\driver_clk.o
 .rela.com_text.isr.sof
                0x0000000010007a04        0x0 Output\obj\driver\driver_clk.o
 .rela.text.usb_ep_callback_register
                0x0000000010007a04        0x0 Output\obj\driver\driver_clk.o
 .rela.text.usb_ep_reset_deal
                0x0000000010007a04        0x0 Output\obj\driver\driver_clk.o
 .rela.text.usb_event_callback
                0x0000000010007a04        0x0 Output\obj\driver\driver_clk.o
 .rela.text.usb_device_init
                0x0000000010007a04        0x0 Output\obj\driver\driver_clk.o
 .rela.text.usb_device_deinit
                0x0000000010007a04        0x0 Output\obj\driver\driver_clk.o
 .rela.text.usb_get_manufacturer_str_descriptor
                0x0000000010007a04        0x0 Output\obj\driver\driver_clk.o
 .rela.text.usb_get_product_str_descriptor
                0x0000000010007a04        0x0 Output\obj\driver\driver_clk.o
 .rela.text.usb_get_serial_str_descriptor
                0x0000000010007a04        0x0 Output\obj\driver\driver_clk.o
 .rela.text.usb_get_microsoft_str_descriptor
                0x0000000010007a04        0x0 Output\obj\driver\driver_clk.o
 .rela.text.usb_get_microsoft_feature_descriptor
                0x0000000010007a04        0x0 Output\obj\driver\driver_clk.o
 .rela.text.usb_ep0_ctl_callback
                0x0000000010007a04        0x0 Output\obj\driver\driver_clk.o
 .rela.text.usb_hid_init
                0x0000000010007a04        0x0 Output\obj\driver\driver_clk.o
 .rela.text.usb_usr_hid_data_out
                0x0000000010007a04        0x0 Output\obj\driver\driver_clk.o
 .rela.com_text.usb.hid
                0x0000000010007a04        0x0 Output\obj\driver\driver_clk.o
 .rela.com_text.usb.vendor.usr
                0x0000000010007a04        0x0 Output\obj\driver\driver_clk.o
 .rela.com_text.usb.vendor.queue
                0x0000000010007a04        0x0 Output\obj\driver\driver_clk.o
 .rela.text.usb_usr_vendor_ready
                0x0000000010007a04        0x0 Output\obj\driver\driver_clk.o
 .rela.text.usb_usr_vendor_init
                0x0000000010007a04        0x0 Output\obj\driver\driver_clk.o
 .rela.com_text.usb.vendor.user
                0x0000000010007a04        0x0 Output\obj\driver\driver_clk.o
 .rela.text.usb_usr_vendor_app_write
                0x0000000010007a04        0x0 Output\obj\driver\driver_clk.o
 .rela.text.usb_usr_vendor_app_send
                0x0000000010007a04        0x0 Output\obj\driver\driver_clk.o
 .rela.text.usb_usb_vendor_sof_poll
                0x0000000010007a04        0x0 Output\obj\driver\driver_clk.o
 .rela.text.usb_vendor_in_callback
                0x0000000010007a04        0x0 Output\obj\driver\driver_clk.o
 .rela.text.usb_vendor_ep_reset
                0x0000000010007a04        0x0 Output\obj\driver\driver_clk.o
 .rela.text.usb_vendor_init
                0x0000000010007a04        0x0 Output\obj\driver\driver_clk.o
 .rela.text.usb_vendor_deinit
                0x0000000010007a04        0x0 Output\obj\driver\driver_clk.o
 .rela.text.sys_ram_info_dump
                0x0000000010007a04        0x0 Output\obj\driver\driver_clk.o
 .rela.com_text.detect
                0x0000000010007a04        0x0 Output\obj\driver\driver_clk.o
 .rela.com_text.timer
                0x0000000010007a04        0x0 Output\obj\driver\driver_clk.o
 .rela.text.bsp_mouse_motion_port_init
                0x0000000010007a04        0x0 Output\obj\driver\driver_clk.o
 .rela.text.startup.main
                0x0000000010007a04        0x0 Output\obj\driver\driver_clk.o
 .rela.text.utils_ring_buffer_init
                0x0000000010007a04        0x0 Output\obj\driver\driver_clk.o
 .rela.com_text.ring_buf.write
                0x0000000010007a04        0x0 Output\obj\driver\driver_clk.o
 .rela.com_text.ring_buf.read
                0x0000000010007a04        0x0 Output\obj\driver\driver_clk.o
 .rela.text.mic_adc_init
                0x0000000010007a04        0x0 Output\obj\driver\driver_clk.o
 .rela.com_text.irq.sdadc
                0x0000000010007a04        0x0 Output\obj\driver\driver_clk.o
 .rela.text.cm_loadpage
                0x0000000010007a04        0x0 Output\obj\driver\driver_clk.o
 .rela.text.cm_next_freepage
                0x0000000010007a04        0x0 Output\obj\driver\driver_clk.o
 .rela.text.cm_factory
                0x0000000010007a04        0x0 Output\obj\driver\driver_clk.o
 .rela.text.cm_writepage
                0x0000000010007a04        0x0 Output\obj\driver\driver_clk.o
 .rela.text.cm_movepage
                0x0000000010007a04        0x0 Output\obj\driver\driver_clk.o
 .rela.text.cm_erase
                0x0000000010007a04        0x0 Output\obj\driver\driver_clk.o
 .rela.text.cm_release
                0x0000000010007a04        0x0 Output\obj\driver\driver_clk.o
 .rela.text.cm_savepage
                0x0000000010007a04        0x0 Output\obj\driver\driver_clk.o
 .rela.text.cm_check_loadpage
                0x0000000010007a04        0x0 Output\obj\driver\driver_clk.o
 .rela.text.cm_move_allpages
                0x0000000010007a04        0x0 Output\obj\driver\driver_clk.o
 .rela.text.cm_sync
                0x0000000010007a04        0x0 Output\obj\driver\driver_clk.o
 .rela.text.cm_release_all
                0x0000000010007a04        0x0 Output\obj\driver\driver_clk.o
 .rela.text.cm_read
                0x0000000010007a04        0x0 Output\obj\driver\driver_clk.o
 .rela.text.cm_read8
                0x0000000010007a04        0x0 Output\obj\driver\driver_clk.o
 .rela.text.cm_read16
                0x0000000010007a04        0x0 Output\obj\driver\driver_clk.o
 .rela.text.cm_read32
                0x0000000010007a04        0x0 Output\obj\driver\driver_clk.o
 .rela.text.cm_write
                0x0000000010007a04        0x0 Output\obj\driver\driver_clk.o
 .rela.text.cm_write8
                0x0000000010007a04        0x0 Output\obj\driver\driver_clk.o
 .rela.text.cm_write16
                0x0000000010007a04        0x0 Output\obj\driver\driver_clk.o
 .rela.text.cm_write32
                0x0000000010007a04        0x0 Output\obj\driver\driver_clk.o
 .rela.text.cm_clear
                0x0000000010007a04        0x0 Output\obj\driver\driver_clk.o
 .rela.text.cm_init
                0x0000000010007a04        0x0 Output\obj\driver\driver_clk.o
 .rela.com_text.spiflash.id
                0x0000000010007a04        0x0 Output\obj\driver\driver_clk.o
 .rela.com_text.spiflash.dev_id
                0x0000000010007a04        0x0 Output\obj\driver\driver_clk.o
 .rela.com_text.spiflash.read
                0x0000000010007a04        0x0 Output\obj\driver\driver_clk.o
 .rela.com_text.spiflash
                0x0000000010007a04        0x0 Output\obj\driver\driver_clk.o
 .rela.com_text.spiflash.protect.weak
                0x0000000010007a04        0x0 Output\obj\driver\driver_clk.o
 .rela.com_text.spiflash.erase_2
                0x0000000010007a04        0x0 Output\obj\driver\driver_clk.o
 .rela.com_text.spiflash.erase_32k
                0x0000000010007a04        0x0 Output\obj\driver\driver_clk.o
 .rela.com_text.spiflash.erase_64k
                0x0000000010007a04        0x0 Output\obj\driver\driver_clk.o
 .rela.com_text.exception.hook
                0x0000000010007a04        0x0 Output\obj\driver\driver_clk.o
 .rela.com_text.exception
                0x0000000010007a04        0x0 Output\obj\driver\driver_clk.o
 .rela.com_text.delay
                0x0000000010007a04        0x0 Output\obj\driver\driver_clk.o
 .rela.text.platform_main
                0x0000000010007a04        0x0 Output\obj\driver\driver_clk.o
 .rela.text.main_startup
                0x0000000010007a04        0x0 Output\obj\driver\driver_clk.o
 .rela.text.compiler
                0x0000000010007a04        0x0 Output\obj\driver\driver_clk.o
 .rela.com_text.irq
                0x0000000010007a04        0x0 Output\obj\driver\driver_clk.o
 .rela.text.sys_irq_init
                0x0000000010007a04        0x0 Output\obj\driver\driver_clk.o
 .rela.text.soft_irq_init
                0x0000000010007a04        0x0 Output\obj\driver\driver_clk.o
 .rela.text.bthw_irq_init
                0x0000000010007a04        0x0 Output\obj\driver\driver_clk.o
 .rela.text.watch_point_set
                0x0000000010007a04        0x0 Output\obj\driver\driver_clk.o
 .rela.text.usb_irq_init
                0x0000000010007a04        0x0 Output\obj\driver\driver_clk.o
 .rela.text.sys_timer_init
                0x0000000010007a04        0x0 Output\obj\driver\driver_clk.o
 .rela.text.thread_driver_create
                0x0000000010007a04        0x0 Output\obj\driver\driver_clk.o
 .rela.text.thread_aupcm_create
                0x0000000010007a04        0x0 Output\obj\driver\driver_clk.o
 .rela.text.thread_btstack_create
                0x0000000010007a04        0x0 Output\obj\driver\driver_clk.o
 .rela.text.thread_create_callback
                0x0000000010007a04        0x0 Output\obj\driver\driver_clk.o
 .rela.text.thread_main_entry
                0x0000000010007a04        0x0 Output\obj\driver\driver_clk.o
 .rela.text.startup.init
                0x0000000010007a04        0x0 Output\obj\driver\driver_clk.o
 .rela.com_text.thread.driver.usb
                0x0000000010007a04        0x0 Output\obj\driver\driver_clk.o
 .rela.com_text.thread.driver.vs
                0x0000000010007a04        0x0 Output\obj\driver\driver_clk.o
 .rela.text.thread.driver.usb
                0x0000000010007a04        0x0 Output\obj\driver\driver_clk.o
 .rela.text.thread.driver.vs
                0x0000000010007a04        0x0 Output\obj\driver\driver_clk.o
 .rela.com_text.thread.driver.enter
                0x0000000010007a04        0x0 Output\obj\driver\driver_clk.o
 .rela.text.pll0_vco_band_trimming
                0x0000000010007a04        0x0 Output\obj\driver\driver_clk.o
 .rela.text.pll0_init
                0x0000000010007a04        0x0 Output\obj\driver\driver_clk.o
 .rela.reset    0x0000000010007a04        0x0 Output\obj\driver\driver_clk.o
 .rela.com_text.spiflash.erase
                0x0000000010007a04        0x0 Output\obj\driver\driver_clk.o
 .rela.com_text.spiflash.protect_do
                0x0000000010007a04        0x0 Output\obj\driver\driver_clk.o
 .rela.com_text.spiflash.is_protect
                0x0000000010007a04        0x0 Output\obj\driver\driver_clk.o
 .rela.com_text.spiflash.read_kick
                0x0000000010007a04        0x0 Output\obj\driver\driver_clk.o
 .rela.text.ota_pack
                0x0000000010007a04        0x0 Output\obj\driver\driver_clk.o
 .rela.text.ota_pack_deinit
                0x0000000010007a04        0x0 Output\obj\driver\driver_clk.o
 .rela.text.lock_code_usbdev
                0x0000000010007a04        0x0 Output\obj\driver\driver_clk.o
 .rela.text.patch_init
                0x0000000010007a04        0x0 Output\obj\driver\driver_clk.o
 .rela.text.xosc_init
                0x0000000010007a04        0x0 Output\obj\driver\driver_clk.o
 .rela.text.set_sys_clk_do
                0x0000000010007a04        0x0 Output\obj\driver\driver_clk.o
 .rela.text.sys_clk
                0x0000000010007a04        0x0 Output\obj\driver\driver_clk.o
 .rela.text.sys_clk_set
                0x0000000010007a04        0x0 Output\obj\driver\driver_clk.o
 .rela.text.sys_clk_lower_limit_lock
                0x0000000010007a04        0x0 Output\obj\driver\driver_clk.o
 .rela.text.sys_clk_lower_limit_unlock
                0x0000000010007a04        0x0 Output\obj\driver\driver_clk.o
 .rela.text.voltage.trim
                0x0000000010007a04        0x0 Output\obj\driver\driver_clk.o
 .rela.com_text.stack.api
                0x0000000010007a04        0x0 Output\obj\driver\driver_clk.o
 .rela.com_text.stack.run_loop
                0x0000000010007a04        0x0 Output\obj\driver\driver_clk.o
 .rela.text.usb_init_do
                0x0000000010007a04        0x0 Output\obj\driver\driver_clk.o
 .rela.text.usb_init
                0x0000000010007a04        0x0 Output\obj\driver\driver_clk.o
 .rela.text.usb_init_2
                0x0000000010007a04        0x0 Output\obj\driver\driver_clk.o
 .rela.text.usb_interrupt_init
                0x0000000010007a04        0x0 Output\obj\driver\driver_clk.o
 .rela.text.ude_init
                0x0000000010007a04        0x0 Output\obj\driver\driver_clk.o
 .rela.text.usb.host.init
                0x0000000010007a04        0x0 Output\obj\driver\driver_clk.o
                0x0000000010007a04        0x4 LONG 0x0
                0x0000000010007c00                . = ALIGN (0x200)
 *fill*         0x0000000010007a08      0x1f8 

.stack          0x0000000000010800      0x400
                0x0000000000010800                __irq_stack_start = .
                0x0000000000000400                . = 0x400
 *fill*         0x0000000000010800      0x400 
                0x0000000000010c00                __irq_stack = .
                0x0000000000000400                __irq_stack_size = (__irq_stack - __irq_stack_start)

.bss            0x0000000000010c00     0x2520
                0x0000000000010c00                __heap_start = .
 *(.mem_heap)
 .mem_heap      0x0000000000010c00     0x2000 Output\obj\project\example\usb_example\strong_symbol.o
                0x0000000000010c00                mem_heap
                0x0000000000012c00                __heap_end = .
                0x0000000000012c00                __bss_start = .
 *(COMMON)
 COMMON         0x0000000000012c00       0x48 Output\obj\project\example\usb_example\hardware\usb\usb_audio\usb_audio.o
                0x0000000000012c00                ep_isoc_buf_in
                0x0000000000012c24                ep_isoc_buf_out
 COMMON         0x0000000000012c48       0x28 Output\obj\project\example\usb_example\hardware\usb\usb_com.o
                0x0000000000012c48                ep_cb
                0x0000000000012c68                usb_handler_cb
 COMMON         0x0000000000012c70        0x3 Output\obj\project\example\usb_example\main.o
                0x0000000000012c70                tmr5ms_cnt
                0x0000000000012c72                is_usb_mode
 *(.bss*)
 *fill*         0x0000000000012c73        0x1 
 .bss           0x0000000000012c74       0x34 Output\obj\project\example\usb_example\fota\fota_proc.o
 .bss           0x0000000000012ca8       0xe8 Output\obj\project\example\usb_example\hardware\usb\usb_vendor\usb_usr_vendor.o
 .bss.cpu_gprs  0x0000000000012d90       0x80 ..\..\..\libs\cpu\libplatform.a(main.o)
                0x0000000000012d90                cpu_gprs
 .bss.sys       0x0000000000012e10       0x18 ..\..\..\libs\cpu\libplatform.a(main.o)
                0x0000000000012e10                sys
 .bss.irq_tbl   0x0000000000012e28       0x84 ..\..\..\libs\cpu\libplatform.a(interrupt.o)
                0x0000000000012e28                tbl_irq_vector
                0x0000000000012ea8                irq_mask
 .bss.soft_timer
                0x0000000000012eac       0x28 ..\..\..\libs\cpu\libplatform.a(startup.o)
 .bss.thread.aupcm
                0x0000000000012ed4        0x4 ..\..\..\libs\cpu\libplatform.a(startup.o)
                0x0000000000012ed4                pmq_aupcm
 .bss.thread.btstack
                0x0000000000012ed8        0x8 ..\..\..\libs\cpu\libplatform.a(startup.o)
                0x0000000000012ed8                psem_btstack
                0x0000000000012edc                pmq_btstack
 .bss.thread.driver
                0x0000000000012ee0        0x8 ..\..\..\libs\cpu\libplatform.a(startup.o)
                0x0000000000012ee0                pmq_driver
                0x0000000000012ee4                psem_driver
 .bss.lock_cb   0x0000000000012ee8       0x10 ..\..\..\libs\cpu\libplatform.a(lock.o)
 .bss.sys_trim  0x0000000000012ef8       0x10 ..\..\..\libs\cpu\libplatform.a(voltage_trim.o)
                0x0000000000012ef8                sys_trim
 .bss.heap_buf  0x0000000000012f08       0x14 ..\..\..\libs\cpu\libplatform.a(weak_symbol.o)
 .bss.heap_size_buf
                0x0000000000012f1c        0xa ..\..\..\libs\cpu\libplatform.a(weak_symbol.o)
 *fill*         0x0000000000012f26        0x2 
 .bss           0x0000000000012f28       0x28 ..\..\..\libs\usb\libusb.a(usb_ep.o)
                0x0000000000012f28                eps
 *(.sbss*)
 .sbss          0x0000000000012f50        0x1 Output\obj\project\example\usb_example\fota\fota_proc.o
 .sbss          0x0000000000012f51        0x1 Output\obj\project\example\usb_example\hardware\usb\usb_audio\usb_audio.o
                0x0000000000012f51                usbmic_compli_xp_sys
 *fill*         0x0000000000012f52        0x2 
 .sbss          0x0000000000012f54        0x9 Output\obj\project\example\usb_example\hardware\usb\usb_hid\usb_usr_hid.o
 *fill*         0x0000000000012f5d        0x3 
 .sbss          0x0000000000012f60       0x24 Output\obj\project\example\usb_example\hardware\usb\usb_vendor\usb_usr_vendor.o
 .sbss          0x0000000000012f84        0x4 Output\obj\project\example\usb_example\main.o
 .sbss.p_sdadc_done
                0x0000000000012f88        0x4 ..\..\..\libs\cpu\libplatform.a(sdadc.o)
 .sbss.spi_baud_r
                0x0000000000012f8c        0x4 ..\..\..\libs\cpu\libplatform.a(os_flash.o)
                0x0000000000012f8c                spi_baud_r
 .sbss.spi_baud_w
                0x0000000000012f90        0x4 ..\..\..\libs\cpu\libplatform.a(os_flash.o)
                0x0000000000012f90                spi_baud_w
 .sbss.ms_tick  0x0000000000012f94        0x4 ..\..\..\libs\cpu\libplatform.a(interrupt.o)
                0x0000000000012f94                ms_tick
 .sbss.os_tick_cnt
                0x0000000000012f98        0x4 ..\..\..\libs\cpu\libplatform.a(interrupt.o)
                0x0000000000012f98                os_tick_cnt
 .sbss.p_thread_cfg_cb
                0x0000000000012f9c        0x4 ..\..\..\libs\cpu\libplatform.a(startup.o)
                0x0000000000012f9c                p_thread_cfg_cb
 .sbss.pmutex_clk
                0x0000000000012fa0        0x4 ..\..\..\libs\cpu\libplatform.a(startup.o)
                0x0000000000012fa0                pmutex_clk
 .sbss.pmutex_cm
                0x0000000000012fa4        0x4 ..\..\..\libs\cpu\libplatform.a(startup.o)
                0x0000000000012fa4                pmutex_cm
 .sbss.soft_timer_isr_en
                0x0000000000012fa8        0x4 ..\..\..\libs\cpu\libplatform.a(startup.o)
                0x0000000000012fa8                soft_timer_isr_en
 .sbss.thread_driver_usb_enter_func
                0x0000000000012fac        0x4 ..\..\..\libs\cpu\libplatform.a(thread_driver.o)
                0x0000000000012fac                thread_driver_usb_enter_func
 .sbss.thread_driver_vs_enter_func
                0x0000000000012fb0        0x4 ..\..\..\libs\cpu\libplatform.a(thread_driver.o)
                0x0000000000012fb0                thread_driver_vs_enter_func
 .sbss.flash_manufacturer_id
                0x0000000000012fb4        0x1 ..\..\..\libs\cpu\libplatform.a(spiflash.o)
                0x0000000000012fb4                flash_manufacturer_id
 .sbss.fot_update_init
                0x0000000000012fb5        0x1 ..\..\..\libs\cpu\libplatform.a(fot_pack.o)
 .sbss.fot_update_success
                0x0000000000012fb6        0x1 ..\..\..\libs\cpu\libplatform.a(fot_pack.o)
 .sbss.spiflash_protect_dis
                0x0000000000012fb7        0x1 ..\..\..\libs\cpu\libplatform.a(fot_pack.o)
 .sbss.cfg_spiflash_speed_up_en
                0x0000000000012fb8        0x1 ..\..\..\libs\cpu\libplatform.a(sys_clk.o)
                0x0000000000012fb8                cfg_spiflash_speed_up_en
 .sbss.cfg_bt_work_mode
                0x0000000000012fb9        0x1 ..\..\..\libs\cpu\libplatform.a(weak_symbol.o)
                0x0000000000012fb9                cfg_bt_work_mode
 *fill*         0x0000000000012fba        0x2 
 .sbss.p_sddac_done
                0x0000000000012fbc        0x4 ..\..\..\libs\cpu\libplatform.a(sddac.o)
 .sbss.bt_thread_res
                0x0000000000012fc0        0x4 ..\..\..\libs\cpu\libplatform.a(bt.o)
                0x0000000000012fc0                bt_thread_res
 .sbss          0x0000000000012fc4        0x8 ..\..\..\libs\usb\libusb.a(usb_comm.o)
                0x0000000000012fc4                p_usb_sof_hook
                0x0000000000012fc8                p_usb_handler_cb
 *(.buf*)
 .buf.sdadc_buf
                0x0000000000012fcc      0x100 Output\obj\project\example\usb_example\hardware\audio\sdadc.o
                0x0000000000012fcc                sdadc_buf
 .buf.device.cb
                0x00000000000130cc        0xa ..\..\..\libs\cpu\libplatform.a(device.o)
                0x00000000000130cc                dev_cb
 *fill*         0x00000000000130d6        0x2 
 .buf.usbchk.cb
                0x00000000000130d8        0x2 ..\..\..\libs\usb\libusb.a(usb_detect.o)
                0x00000000000130d8                usbchk_cb
 *fill*         0x00000000000130da        0x2 
 .buf.usb.ctrl  0x00000000000130dc       0x44 ..\..\..\libs\usb\libusb.a(usb_ep.o)
                0x00000000000130dc                ep0_buf
 *(.btmem.stack.l2cap)
                0x0000000000013120                __bss_end = .
                0x0000000000000520                __bss_size = (__bss_end - __bss_start)
                0x0000000000002000                __heap_size = (__heap_end - __heap_start)

.bram           0x0000000000018000     0x19b2
                0x0000000000018000                __bram_start = .
 *(.btmem.bthw)
 *(.btmem*)
 .btmem.spi     0x0000000000018000      0x28c ..\..\..\libs\cpu\libplatform.a(cm.o)
 *(.ble_cache*)
 *(.ble_buf*)
 *(.usb_buf*)
 .usb_buf.aubuf.mic
                0x000000000001828c      0x978 Output\obj\project\example\usb_example\hardware\usb\usb_audio\usb_audio.o
                0x000000000001828c                aumic_cb
                0x00000000000182a4                ude_micbuf
 .usb_buf.aubuf.spk
                0x0000000000018c04      0x998 Output\obj\project\example\usb_example\hardware\usb\usb_audio\usb_audio.o
                0x0000000000018c04                ude_aubuf
                0x0000000000018c24                auspeaker_cb
                0x0000000000018c3c                ude_speakerbuf
 .usb_buf.usb   0x000000000001959c       0x44 Output\obj\project\example\usb_example\hardware\usb\usb_audio\usb_audio.o
                0x000000000001959c                uda_0
                0x00000000000195b0                ep_isoc_in
                0x00000000000195c8                ep_isoc_out
 .usb_buf.desc  0x00000000000195e0       0x40 Output\obj\project\example\usb_example\hardware\usb\usb_desc.o
                0x00000000000195e0                usb_str_desc_buf
 .usb_buf.device.desc.buf
                0x0000000000019620      0x200 Output\obj\project\example\usb_example\hardware\usb\usb_dev_enum.o
                0x0000000000019620                cfg_desc_buf
 .usb_buf.usb   0x0000000000019820        0x4 Output\obj\project\example\usb_example\hardware\usb\usb_dev_enum.o
                0x0000000000019820                ude_cb
 .usb_buf.hid   0x0000000000019824       0x4c Output\obj\project\example\usb_example\hardware\usb\usb_hid\usb_hid.o
                0x0000000000019824                ep_hid_buf_in
                0x000000000001982c                ep_hid_buf_out
 .usb_buf.usb   0x0000000000019870       0x3c Output\obj\project\example\usb_example\hardware\usb\usb_hid\usb_hid.o
                0x0000000000019870                udh_0
                0x000000000001987c                ep_hid_tx
                0x0000000000019894                ep_hid_rx
 .usb_buf.usb   0x00000000000198ac       0x3c Output\obj\project\example\usb_example\hardware\usb\usb_vendor\usb_vendor.o
                0x00000000000198ac                udv_0
                0x00000000000198b8                ep_vendor_tx
                0x00000000000198d0                ep_vendor_rx
 .usb_buf.vendor
                0x00000000000198e8       0x84 Output\obj\project\example\usb_example\hardware\usb\usb_vendor\usb_vendor.o
                0x00000000000198e8                ep_vendor_buf_in
                0x0000000000019928                ep_vendor_buf_out
 .usb_buf.usb   0x000000000001996c       0x24 ..\..\..\libs\usb\libusb.a(usb_device_enum.o)
                0x000000000001996c                ude_0
 *(.user_buf*)
 .user_buf.sddac
                0x0000000000019990       0x22 Output\obj\project\example\usb_example\hardware\audio\sddac.o
                0x0000000000019990                sddac_buf
                0x00000000000199b2                __bram_end = .
                0x00000000000019b2                __bram_size = (__bram_end - __bram_start)

.cram_aac
 *(.dut.huart_buf)
 *(.hci.h3*)

.cram_fot       0x000000000001ec00      0x268
 *(.fot_data.*)
 .fot_data.buf  0x000000000001ec00      0x200 Output\obj\project\example\usb_example\fota\fota_proc.o
 .fot_data.com.pack
                0x000000000001ee00       0x68 ..\..\..\libs\cpu\libplatform.a(fot_pack.o)
                0x0000000000006600                __bank_size = SIZEOF (.flash)
                0x0000000010000200                __comm_lma = LOADADDR (.comm)
                0x0000000000001400                __comm_size = SIZEOF (.comm)
LOAD ..\..\..\libs\cpu\libplatform.a
LOAD ..\..\..\libs\cpu\libm.a
LOAD ..\..\..\libs\cpu\libc.a
LOAD ..\..\..\libs\cpu\libgcc.a
LOAD ..\..\..\libs\usb\libusb.a
LOAD ..\..\..\libs\modules\ains\libains3.a
LOAD ..\..\..\libs\modules\ains\libains4.a
LOAD ..\..\..\libs\modules\ains\libfft.a
OUTPUT(Output\bin\app.rv32 elf32-littleriscv)

.comment        0x0000000000000000       0x23
 .comment       0x0000000000000000       0x11 Output\obj\driver\driver_clk.o
                                         0x12 (size before relaxing)
 .comment       0x0000000000000011       0x12 Output\obj\driver\driver_gpio.o
 .comment       0x0000000000000011       0x12 Output\obj\driver\driver_sdadc.o
 .comment       0x0000000000000011       0x12 Output\obj\driver\driver_sddac.o
 .comment       0x0000000000000011       0x12 Output\obj\driver\driver_uart.o
 .comment       0x0000000000000011       0x12 Output\obj\project\example\usb_example\fota\bsp_param.o
 .comment       0x0000000000000011       0x12 Output\obj\project\example\usb_example\fota\fota_proc.o
 .comment       0x0000000000000011       0x12 Output\obj\project\example\usb_example\hardware\audio\sdadc.o
 .comment       0x0000000000000011       0x12 Output\obj\project\example\usb_example\hardware\audio\sddac.o
 .comment       0x0000000000000011       0x12 Output\obj\project\example\usb_example\hardware\uart\bsp_uart_debug.o
 .comment       0x0000000000000011       0x12 Output\obj\project\example\usb_example\hardware\usb\usb_audio\usb_audio.o
 .comment       0x0000000000000011       0x12 Output\obj\project\example\usb_example\hardware\usb\usb_audio\usb_audio_desc.o
 .comment       0x0000000000000011       0x12 Output\obj\project\example\usb_example\hardware\usb\usb_com.o
 .comment       0x0000000000000011       0x12 Output\obj\project\example\usb_example\hardware\usb\usb_desc.o
 .comment       0x0000000000000011       0x12 Output\obj\project\example\usb_example\hardware\usb\usb_dev_enum.o
 .comment       0x0000000000000011       0x12 Output\obj\project\example\usb_example\hardware\usb\usb_hid\usb_hid.o
 .comment       0x0000000000000011       0x12 Output\obj\project\example\usb_example\hardware\usb\usb_hid\usb_hid_desc.o
 .comment       0x0000000000000011       0x12 Output\obj\project\example\usb_example\hardware\usb\usb_hid\usb_usr_hid.o
 .comment       0x0000000000000011       0x12 Output\obj\project\example\usb_example\hardware\usb\usb_vendor\usb_usr_vendor.o
 .comment       0x0000000000000011       0x12 Output\obj\project\example\usb_example\hardware\usb\usb_vendor\usb_vendor.o
 .comment       0x0000000000000011       0x12 Output\obj\project\example\usb_example\hardware\usb\usb_vendor\usb_vendor_desc.o
 .comment       0x0000000000000011       0x12 Output\obj\project\example\usb_example\main.o
 .comment       0x0000000000000011       0x12 Output\obj\project\example\usb_example\strong_symbol.o
 .comment       0x0000000000000011       0x12 Output\obj\project\example\usb_example\utils\utils_ring_buffer.o
 .comment       0x0000000000000011       0x12 ..\..\..\libs\cpu\libplatform.a(sdadc.o)
                                         0x13 (size before relaxing)
 .comment       0x0000000000000023       0x13 ..\..\..\libs\cpu\libplatform.a(cm.o)
 .comment       0x0000000000000023       0x13 ..\..\..\libs\cpu\libplatform.a(os_flash.o)
 .comment       0x0000000000000023       0x13 ..\..\..\libs\cpu\libplatform.a(device.o)
 .comment       0x0000000000000023       0x13 ..\..\..\libs\cpu\libplatform.a(main.o)
 .comment       0x0000000000000023       0x13 ..\..\..\libs\cpu\libplatform.a(interrupt.o)
 .comment       0x0000000000000023       0x13 ..\..\..\libs\cpu\libplatform.a(startup.o)
 .comment       0x0000000000000023       0x13 ..\..\..\libs\cpu\libplatform.a(sys_hook.o)
 .comment       0x0000000000000023       0x13 ..\..\..\libs\cpu\libplatform.a(thread_aupcm.o)
 .comment       0x0000000000000023       0x13 ..\..\..\libs\cpu\libplatform.a(thread_driver.o)
 .comment       0x0000000000000023       0x13 ..\..\..\libs\cpu\libplatform.a(pll.o)
 .comment       0x0000000000000023       0x13 ..\..\..\libs\cpu\libplatform.a(spiflash.o)
 .comment       0x0000000000000023       0x13 ..\..\..\libs\cpu\libplatform.a(debug.o)
 .comment       0x0000000000000023       0x13 ..\..\..\libs\cpu\libplatform.a(fot_pack.o)
 .comment       0x0000000000000023       0x13 ..\..\..\libs\cpu\libplatform.a(lock.o)
 .comment       0x0000000000000023       0x13 ..\..\..\libs\cpu\libplatform.a(patch.o)
 .comment       0x0000000000000023       0x13 ..\..\..\libs\cpu\libplatform.a(sys.o)
 .comment       0x0000000000000023       0x13 ..\..\..\libs\cpu\libplatform.a(sys_clk.o)
 .comment       0x0000000000000023       0x13 ..\..\..\libs\cpu\libplatform.a(voltage_trim.o)
 .comment       0x0000000000000023       0x13 ..\..\..\libs\cpu\libplatform.a(weak_symbol.o)
 .comment       0x0000000000000023       0x13 ..\..\..\libs\cpu\libplatform.a(sddac.o)
 .comment       0x0000000000000023       0x13 ..\..\..\libs\cpu\libplatform.a(bt.o)
 .comment       0x0000000000000023       0x13 ..\..\..\libs\cpu\libplatform.a(crc.o)
 .comment       0x0000000000000023       0x13 ..\..\..\libs\usb\libusb.a(usb_comm.o)
 .comment       0x0000000000000023       0x13 ..\..\..\libs\usb\libusb.a(usb_detect.o)
 .comment       0x0000000000000023       0x13 ..\..\..\libs\usb\libusb.a(usb_ep.o)
 .comment       0x0000000000000023       0x13 ..\..\..\libs\usb\libusb.a(usb_device_enum.o)
 .comment       0x0000000000000023       0x13 ..\..\..\libs\usb\libusb.a(usb_device_manage.o)
 .comment       0x0000000000000023       0x13 ..\..\..\libs\usb\libusb.a(usb_host_manage.o)

.riscv.attributes
                0x0000000000000000      0x60e
 .riscv.attributes
                0x0000000000000000       0x32 ..\..\..\libs\cpu\libplatform.a(sdadc.o)
 .riscv.attributes
                0x0000000000000032       0x32 ..\..\..\libs\cpu\libplatform.a(cm.o)
 .riscv.attributes
                0x0000000000000064       0x32 ..\..\..\libs\cpu\libplatform.a(os_flash.o)
 .riscv.attributes
                0x0000000000000096       0x32 ..\..\..\libs\cpu\libplatform.a(device.o)
 .riscv.attributes
                0x00000000000000c8       0x32 ..\..\..\libs\cpu\libplatform.a(main.o)
 .riscv.attributes
                0x00000000000000fa       0x32 ..\..\..\libs\cpu\libplatform.a(interrupt.o)
 .riscv.attributes
                0x000000000000012c       0x32 ..\..\..\libs\cpu\libplatform.a(startup.o)
 .riscv.attributes
                0x000000000000015e       0x32 ..\..\..\libs\cpu\libplatform.a(sys_hook.o)
 .riscv.attributes
                0x0000000000000190       0x32 ..\..\..\libs\cpu\libplatform.a(thread_aupcm.o)
 .riscv.attributes
                0x00000000000001c2       0x32 ..\..\..\libs\cpu\libplatform.a(thread_driver.o)
 .riscv.attributes
                0x00000000000001f4       0x32 ..\..\..\libs\cpu\libplatform.a(pll.o)
 .riscv.attributes
                0x0000000000000226       0x34 ..\..\..\libs\cpu\libplatform.a(reset.o)
 .riscv.attributes
                0x000000000000025a       0x32 ..\..\..\libs\cpu\libplatform.a(spiflash.o)
 .riscv.attributes
                0x000000000000028c       0x32 ..\..\..\libs\cpu\libplatform.a(debug.o)
 .riscv.attributes
                0x00000000000002be       0x32 ..\..\..\libs\cpu\libplatform.a(fot_pack.o)
 .riscv.attributes
                0x00000000000002f0       0x32 ..\..\..\libs\cpu\libplatform.a(lock.o)
 .riscv.attributes
                0x0000000000000322       0x32 ..\..\..\libs\cpu\libplatform.a(patch.o)
 .riscv.attributes
                0x0000000000000354       0x30 ..\..\..\libs\cpu\libplatform.a(s_sys.o)
 .riscv.attributes
                0x0000000000000384       0x32 ..\..\..\libs\cpu\libplatform.a(sys.o)
 .riscv.attributes
                0x00000000000003b6       0x32 ..\..\..\libs\cpu\libplatform.a(sys_clk.o)
 .riscv.attributes
                0x00000000000003e8       0x32 ..\..\..\libs\cpu\libplatform.a(voltage_trim.o)
 .riscv.attributes
                0x000000000000041a       0x32 ..\..\..\libs\cpu\libplatform.a(weak_symbol.o)
 .riscv.attributes
                0x000000000000044c       0x32 ..\..\..\libs\cpu\libplatform.a(sddac.o)
 .riscv.attributes
                0x000000000000047e       0x32 ..\..\..\libs\cpu\libplatform.a(bt.o)
 .riscv.attributes
                0x00000000000004b0       0x32 ..\..\..\libs\cpu\libplatform.a(crc.o)
 .riscv.attributes
                0x00000000000004e2       0x32 ..\..\..\libs\usb\libusb.a(usb_comm.o)
 .riscv.attributes
                0x0000000000000514       0x32 ..\..\..\libs\usb\libusb.a(usb_detect.o)
 .riscv.attributes
                0x0000000000000546       0x32 ..\..\..\libs\usb\libusb.a(usb_ep.o)
 .riscv.attributes
                0x0000000000000578       0x32 ..\..\..\libs\usb\libusb.a(usb_device_enum.o)
 .riscv.attributes
                0x00000000000005aa       0x32 ..\..\..\libs\usb\libusb.a(usb_device_manage.o)
 .riscv.attributes
                0x00000000000005dc       0x32 ..\..\..\libs\usb\libusb.a(usb_host_manage.o)
